 EventFiringObject

 Timestamp is 464be7f8 (Thu May 17 13:28:24 2007)

 Preferred load address is 10000000

 Start         Length     Name                   Class
 0001:00000000 0005a920H .text                   CODE
 0001:0005a920 000009a3H .text$x                 CODE
 0001:0005b2d0 0000048cH .text$yc                CODE
 0001:0005b760 0000007fH .text$yd                CODE
 0002:00000000 0000027cH .idata$5                DATA
 0002:0000027c 00000004H .CRT$XCA                DATA
 0002:00000280 0000000cH .CRT$XCC                DATA
 0002:0000028c 00000078H .CRT$XCL                DATA
 0002:00000304 0000000cH .CRT$XCU                DATA
 0002:00000310 00000004H .CRT$XCZ                DATA
 0002:00000314 00000004H .CRT$XIA                DATA
 0002:00000318 00000014H .CRT$XIC                DATA
 0002:0000032c 00000004H .CRT$XIY                DATA
 0002:00000330 00000004H .CRT$XIZ                DATA
 0002:00000334 00000004H .CRT$XPA                DATA
 0002:00000338 00000008H .CRT$XPX                DATA
 0002:00000340 00000004H .CRT$XPXA               DATA
 0002:00000344 00000004H .CRT$XPZ                DATA
 0002:00000348 00000004H .CRT$XTA                DATA
 0002:0000034c 00000004H .CRT$XTB                DATA
 0002:00000350 00000004H .CRT$XTZ                DATA
 0002:00000360 000138f0H .rdata                  DATA
 0002:00013c50 00000063H .rdata$debug            DATA
 0002:00013cb8 00000fe4H .rdata$r                DATA
 0002:00014ca0 000000d4H .rdata$sxdata           DATA
 0002:00014d74 00000004H .rtc$IAA                DATA
 0002:00014d78 00000008H .rtc$IMZ                DATA
 0002:00014d80 00000004H .rtc$IZZ                DATA
 0002:00014d84 00000004H .rtc$TAA                DATA
 0002:00014d88 00000008H .rtc$TMZ                DATA
 0002:00014d90 00000004H .rtc$TZZ                DATA
 0002:00014d98 0000188cH .xdata$x                DATA
 0002:00016624 00000004H ATL$__a                 DATA
 0002:00016628 00000004H ATL$__z                 DATA
 0002:0001662c 00000064H .idata$2                DATA
 0002:00016690 00000014H .idata$3                DATA
 0002:000166a4 0000027cH .idata$4                DATA
 0002:00016920 00000a94H .idata$6                DATA
 0002:000173c0 000000aeH .edata                  DATA
 0003:00000000 00001d30H .data                   DATA
 0003:00001d40 00001efcH .bss                    DATA
 0004:00000000 00000154H .rsrc$01                DATA
 0004:00000160 00000ee8H .rsrc$02                DATA

  Address         Publics by Value              Rva+Base       Lib:Object

 0000:00000000       __except_list              00000000     <absolute>
 0000:00000035       ___safe_se_handler_count   00000035     <absolute>
 0000:00000000       ___ImageBase               10000000     <linker-defined>
 0001:00000000       ?UpdateRegistry@CEventFiringObject@@SGJH@Z 10001000 f i EventFiringObject.obj
 0001:00000020       _DllMain@12                10001020 f   EventFiringObject.obj
 0001:00000080       _DllCanUnloadNow@0         10001080 f   EventFiringObject.obj
 0001:000000a0       _DllGetClassObject@12      100010a0 f   EventFiringObject.obj
 0001:000000d0       _DllRegisterServer@0       100010d0 f   EventFiringObject.obj
 0001:000000f0       _DllUnregisterServer@0     100010f0 f   EventFiringObject.obj
 0001:00000270       ?GetObjectDescription@?$CComCoClass@VCEventFiringObject@@$1?CLSID_EventFiringObject@@3U_GUID@@B@ATL@@SGPBDXZ 10001270 f i EventFiringObject.obj
 0001:00000280       ?CreateInstance@?$CComCreator@V?$CComObjectCached@VCComClassFactory@ATL@@@ATL@@@ATL@@SGJPAXABU_GUID@@PAPAX@Z 10001280 f i EventFiringObject.obj
 0001:00000450       ?CreateInstance@?$CComCreator2@V?$CComCreator@V?$CComObject@VCEventFiringObject@@@ATL@@@ATL@@V?$CComCreator@V?$CComAggObject@VCEventFiringObject@@@ATL@@@2@@ATL@@SGJPAXABU_GUID@@PAPAX@Z 10001450 f i EventFiringObject.obj
 0001:000004d0       ??_G?$CComObjectCached@VCComClassFactory@ATL@@@ATL@@QAEPAXI@Z 100014d0 f i EventFiringObject.obj
 0001:00000510       ?_AtlInitialConstruct@?$CComObjectRootEx@VCComMultiThreadModel@ATL@@@ATL@@QAEJXZ 10001510 f i EventFiringObject.obj
 0001:00000540       ??0?$CComObjectCached@VCComClassFactory@ATL@@@ATL@@QAE@PAX@Z 10001540 f i EventFiringObject.obj
 0001:00000580       ??1?$CComObjectCached@VCComClassFactory@ATL@@@ATL@@QAE@XZ 10001580 f i EventFiringObject.obj
 0001:00000600       ?AddRef@?$CComObjectCached@VCComClassFactory@ATL@@@ATL@@UAGKXZ 10001600 f i EventFiringObject.obj
 0001:00000650       ?Release@?$CComObjectCached@VCComClassFactory@ATL@@@ATL@@UAGKXZ 10001650 f i EventFiringObject.obj
 0001:000006e0       ?QueryInterface@?$CComObjectCached@VCComClassFactory@ATL@@@ATL@@UAGJABU_GUID@@PAPAX@Z 100016e0 f i EventFiringObject.obj
 0001:00000700       ?CreateInstance@?$CComCreator@V?$CComObject@VCEventFiringObject@@@ATL@@@ATL@@SGJPAXABU_GUID@@PAPAX@Z 10001700 f i EventFiringObject.obj
 0001:000008d0       ?InternalFinalConstructAddRef@CEventFiringObject@@QAEXXZ 100018d0 f i EventFiringObject.obj
 0001:00000900       ?InternalFinalConstructRelease@CEventFiringObject@@QAEXXZ 10001900 f i EventFiringObject.obj
 0001:00000930       ?CreateInstance@?$CComCreator@V?$CComAggObject@VCEventFiringObject@@@ATL@@@ATL@@SGJPAXABU_GUID@@PAPAX@Z 10001930 f i EventFiringObject.obj
 0001:00000b00       ??0CComClassFactory@ATL@@QAE@XZ 10001b00 f i EventFiringObject.obj
 0001:00000b40       ??0IClassFactory@@QAE@XZ   10001b40 f i EventFiringObject.obj
 0001:00000b70       ??0?$CComObjectRootEx@VCComMultiThreadModel@ATL@@@ATL@@QAE@XZ 10001b70 f i EventFiringObject.obj
 0001:00000be0       ??0CComAutoDeleteCriticalSection@ATL@@QAE@XZ 10001be0 f i EventFiringObject.obj
 0001:00000c10       ?InternalAddRef@?$CComObjectRootEx@VCComMultiThreadModel@ATL@@@ATL@@QAEKXZ 10001c10 f i EventFiringObject.obj
 0001:00000c70       ?InternalRelease@?$CComObjectRootEx@VCComMultiThreadModel@ATL@@@ATL@@QAEKXZ 10001c70 f i EventFiringObject.obj
 0001:00000ce0       ??0?$CComObject@VCEventFiringObject@@@ATL@@QAE@PAX@Z 10001ce0 f i EventFiringObject.obj
 0001:00000d50       ??0CEventFiringObject@@QAE@XZ 10001d50 f i EventFiringObject.obj
 0001:00000de0       ??0?$CComObjectRootEx@VCComSingleThreadModel@ATL@@@ATL@@QAE@XZ 10001de0 f i EventFiringObject.obj
 0001:00000e10       ??0ISupportErrorInfo@@QAE@XZ 10001e10 f i EventFiringObject.obj
 0001:00000e40       ??0?$IConnectionPointContainerImpl@VCEventFiringObject@@@ATL@@QAE@XZ 10001e40 f i EventFiringObject.obj
 0001:00000e70       ??0?$IDispatchImpl@UIEventFiringObject@@$1?IID_IEventFiringObject@@3U_GUID@@B$1?LIBID_EVENTFIRINGOBJECTLib@@3U3@B$00$0A@VCComTypeInfoHolder@ATL@@@ATL@@QAE@XZ 10001e70 f i EventFiringObject.obj
 0001:00000ea0       ??0?$CProxy_IEventFiringObjectEvents@VCEventFiringObject@@@@QAE@XZ 10001ea0 f i EventFiringObject.obj
 0001:00000ed0       ??0IConnectionPointContainer@@QAE@XZ 10001ed0 f i EventFiringObject.obj
 0001:00000f00       ??0IEventFiringObject@@QAE@XZ 10001f00 f i EventFiringObject.obj
 0001:00000f30       ??0?$IConnectionPointImpl@VCEventFiringObject@@$1?DIID__IEventFiringObjectEvents@@3U_GUID@@BVCComDynamicUnkArray@ATL@@@ATL@@QAE@XZ 10001f30 f i EventFiringObject.obj
 0001:00000f70       ??0IDispatch@@QAE@XZ       10001f70 f i EventFiringObject.obj
 0001:00000fa0       ??0?$_ICPLocator@$1?DIID__IEventFiringObjectEvents@@3U_GUID@@B@ATL@@QAE@XZ 10001fa0 f i EventFiringObject.obj
 0001:00000fc0       ?EnumConnectionPoints@?$IConnectionPointContainerImpl@VCEventFiringObject@@@ATL@@UAGJPAPAUIEnumConnectionPoints@@@Z 10001fc0 f i EventFiringObject.obj
 0001:00001420       ?GetConnMap@CEventFiringObject@@SAPBU_ATL_CONNMAP_ENTRY@ATL@@PAH@Z 10002420 f i EventFiringObject.obj
 0001:000014c0       ?FindConnectionPoint@?$IConnectionPointContainerImpl@VCEventFiringObject@@@ATL@@UAGJABU_GUID@@PAPAUIConnectionPoint@@@Z 100024c0 f i EventFiringObject.obj
 0001:00001610       _InlineIsEqualGUID         10002610 f i EventFiringObject.obj
 0001:00001670       ?GetTypeInfoCount@?$IDispatchImpl@UIEventFiringObject@@$1?IID_IEventFiringObject@@3U_GUID@@B$1?LIBID_EVENTFIRINGOBJECTLib@@3U3@B$00$0A@VCComTypeInfoHolder@ATL@@@ATL@@UAGJPAI@Z 10002670 f i EventFiringObject.obj
 0001:00001690       ?GetTypeInfo@?$IDispatchImpl@UIEventFiringObject@@$1?IID_IEventFiringObject@@3U_GUID@@B$1?LIBID_EVENTFIRINGOBJECTLib@@3U3@B$00$0A@VCComTypeInfoHolder@ATL@@@ATL@@UAGJIKPAPAUITypeInfo@@@Z 10002690 f i EventFiringObject.obj
 0001:000016c0       ?GetIDsOfNames@?$IDispatchImpl@UIEventFiringObject@@$1?IID_IEventFiringObject@@3U_GUID@@B$1?LIBID_EVENTFIRINGOBJECTLib@@3U3@B$00$0A@VCComTypeInfoHolder@ATL@@@ATL@@UAGJABU_GUID@@PAPA_WIKPAJ@Z 100026c0 f i EventFiringObject.obj
 0001:000016f0       ?Invoke@?$IDispatchImpl@UIEventFiringObject@@$1?IID_IEventFiringObject@@3U_GUID@@B$1?LIBID_EVENTFIRINGOBJECTLib@@3U3@B$00$0A@VCComTypeInfoHolder@ATL@@@ATL@@UAGJJABU_GUID@@KGPAUtagDISPPARAMS@@PAUtagVARIANT@@PAUtagEXCEPINFO@@PAI@Z 100026f0 f i EventFiringObject.obj
 0001:00001730       ?_LocCPQueryInterface@?$IConnectionPointImpl@VCEventFiringObject@@$1?DIID__IEventFiringObjectEvents@@3U_GUID@@BVCComDynamicUnkArray@ATL@@@ATL@@UAGJABU_GUID@@PAPAX@Z 10002730 f i EventFiringObject.obj
 0001:000017d0       ?GetConnectionInterface@?$IConnectionPointImpl@VCEventFiringObject@@$1?DIID__IEventFiringObjectEvents@@3U_GUID@@BVCComDynamicUnkArray@ATL@@@ATL@@UAGJPAU_GUID@@@Z 100027d0 f i EventFiringObject.obj
 0001:00001810       ?GetConnectionPointContainer@?$IConnectionPointImpl@VCEventFiringObject@@$1?DIID__IEventFiringObjectEvents@@3U_GUID@@BVCComDynamicUnkArray@ATL@@@ATL@@UAGJPAPAUIConnectionPointContainer@@@Z 10002810 f i EventFiringObject.obj
 0001:00001880       ??0?$CComObject@V?$CComEnum@UIEnumConnectionPoints@@$1?_GUID_b196b285_bab4_101a_b69c_00aa00341d07@@3U__s_GUID@@BPAUIConnectionPoint@@V?$_CopyInterface@UIConnectionPoint@@@ATL@@VCComSingleThreadModel@6@@ATL@@@ATL@@QAE@PAX@Z 10002880 f i EventFiringObject.obj
 0001:000018d0       ?AddRef@?$CComObject@V?$CComEnum@UIEnumConnectionPoints@@$1?_GUID_b196b285_bab4_101a_b69c_00aa00341d07@@3U__s_GUID@@BPAUIConnectionPoint@@V?$_CopyInterface@UIConnectionPoint@@@ATL@@VCComSingleThreadModel@6@@ATL@@@ATL@@UAGKXZ 100028d0 f i EventFiringObject.obj
 0001:000018f0       ?Release@?$CComObject@V?$CComEnum@UIEnumConnectionPoints@@$1?_GUID_b196b285_bab4_101a_b69c_00aa00341d07@@3U__s_GUID@@BPAUIConnectionPoint@@V?$_CopyInterface@UIConnectionPoint@@@ATL@@VCComSingleThreadModel@6@@ATL@@@ATL@@UAGKXZ 100028f0 f i EventFiringObject.obj
 0001:00001970       ?QueryInterface@?$CComObject@V?$CComEnum@UIEnumConnectionPoints@@$1?_GUID_b196b285_bab4_101a_b69c_00aa00341d07@@3U__s_GUID@@BPAUIConnectionPoint@@V?$_CopyInterface@UIConnectionPoint@@@ATL@@VCComSingleThreadModel@6@@ATL@@@ATL@@UAGJABU_GUID@@PAPAX@Z 10002970 f i EventFiringObject.obj
 0001:00001990       ?Reset@?$CComEnumImpl@UIEnumConnectionPoints@@$1?_GUID_b196b285_bab4_101a_b69c_00aa00341d07@@3U__s_GUID@@BPAUIConnectionPoint@@V?$_CopyInterface@UIConnectionPoint@@@ATL@@@ATL@@UAGJXZ 10002990 f i EventFiringObject.obj
 0001:000019b0       ??_E?$CComObject@V?$CComEnum@UIEnumConnectionPoints@@$1?_GUID_b196b285_bab4_101a_b69c_00aa00341d07@@3U__s_GUID@@BPAUIConnectionPoint@@V?$_CopyInterface@UIConnectionPoint@@@ATL@@VCComSingleThreadModel@6@@ATL@@@ATL@@UAEPAXI@Z 100029b0 f i EventFiringObject.obj
 0001:000019b0       ??_G?$CComObject@V?$CComEnum@UIEnumConnectionPoints@@$1?_GUID_b196b285_bab4_101a_b69c_00aa00341d07@@3U__s_GUID@@BPAUIConnectionPoint@@V?$_CopyInterface@UIConnectionPoint@@@ATL@@VCComSingleThreadModel@6@@ATL@@@ATL@@UAEPAXI@Z 100029b0 f i EventFiringObject.obj
 0001:000019f0       ??1?$CComObject@V?$CComEnum@UIEnumConnectionPoints@@$1?_GUID_b196b285_bab4_101a_b69c_00aa00341d07@@3U__s_GUID@@BPAUIConnectionPoint@@V?$_CopyInterface@UIConnectionPoint@@@ATL@@VCComSingleThreadModel@6@@ATL@@@ATL@@UAE@XZ 100029f0 f i EventFiringObject.obj
 0001:00001a50       ??0?$CComEnum@UIEnumConnectionPoints@@$1?_GUID_b196b285_bab4_101a_b69c_00aa00341d07@@3U__s_GUID@@BPAUIConnectionPoint@@V?$_CopyInterface@UIConnectionPoint@@@ATL@@VCComSingleThreadModel@6@@ATL@@QAE@XZ 10002a50 f i EventFiringObject.obj
 0001:00001ac0       ??1?$CComEnum@UIEnumConnectionPoints@@$1?_GUID_b196b285_bab4_101a_b69c_00aa00341d07@@3U__s_GUID@@BPAUIConnectionPoint@@V?$_CopyInterface@UIConnectionPoint@@@ATL@@VCComSingleThreadModel@6@@ATL@@UAE@XZ 10002ac0 f i EventFiringObject.obj
 0001:00001b50       ?_InternalQueryInterface@?$CComEnum@UIEnumConnectionPoints@@$1?_GUID_b196b285_bab4_101a_b69c_00aa00341d07@@3U__s_GUID@@BPAUIConnectionPoint@@V?$_CopyInterface@UIConnectionPoint@@@ATL@@VCComSingleThreadModel@6@@ATL@@QAEJABU_GUID@@PAPAX@Z 10002b50 f i EventFiringObject.obj
 0001:00001b90       ??0?$CComEnumImpl@UIEnumConnectionPoints@@$1?_GUID_b196b285_bab4_101a_b69c_00aa00341d07@@3U__s_GUID@@BPAUIConnectionPoint@@V?$_CopyInterface@UIConnectionPoint@@@ATL@@@ATL@@QAE@XZ 10002b90 f i EventFiringObject.obj
 0001:00001bf0       ?AddRef@?$CComObject@VCEventFiringObject@@@ATL@@UAGKXZ 10002bf0 f i EventFiringObject.obj
 0001:00001c10       ?Release@?$CComObject@VCEventFiringObject@@@ATL@@UAGKXZ 10002c10 f i EventFiringObject.obj
 0001:00001c90       ?QueryInterface@?$CComObject@VCEventFiringObject@@@ATL@@UAGJABU_GUID@@PAPAX@Z 10002c90 f i EventFiringObject.obj
 0001:00001cb0       ?_InternalQueryInterface@CEventFiringObject@@QAEJABU_GUID@@PAPAX@Z 10002cb0 f i EventFiringObject.obj
 0001:00001cf0       ?_GetEntries@CEventFiringObject@@SGPBU_ATL_INTMAP_ENTRY@ATL@@XZ 10002cf0 f i EventFiringObject.obj
 0001:00001d00       ??0?$CComAggObject@VCEventFiringObject@@@ATL@@QAE@PAX@Z 10002d00 f i EventFiringObject.obj
 0001:00001db0       ?_AtlInitialConstruct@?$CComAggObject@VCEventFiringObject@@@ATL@@QAEJXZ 10002db0 f i EventFiringObject.obj
 0001:00001e00       ?FinalConstruct@?$CComAggObject@VCEventFiringObject@@@ATL@@QAEJXZ 10002e00 f i EventFiringObject.obj
 0001:00001e40       ?AddRef@?$CComAggObject@VCEventFiringObject@@@ATL@@UAGKXZ 10002e40 f i EventFiringObject.obj
 0001:00001e60       ?Release@?$CComAggObject@VCEventFiringObject@@@ATL@@UAGKXZ 10002e60 f i EventFiringObject.obj
 0001:00001ee0       ?QueryInterface@?$CComAggObject@VCEventFiringObject@@@ATL@@UAGJABU_GUID@@PAPAX@Z 10002ee0 f i EventFiringObject.obj
 0001:00001f90       ??0IEnumConnectionPoints@@QAE@XZ 10002f90 f i EventFiringObject.obj
 0001:00001fc0       ??_G?$CComObject@VCEventFiringObject@@@ATL@@UAEPAXI@Z 10002fc0 f i EventFiringObject.obj
 0001:00001fc0       ??_E?$CComObject@VCEventFiringObject@@@ATL@@UAEPAXI@Z 10002fc0 f i EventFiringObject.obj
 0001:00002000       ??1?$CComObject@VCEventFiringObject@@@ATL@@UAE@XZ 10003000 f i EventFiringObject.obj
 0001:00002080       ??1CEventFiringObject@@QAE@XZ 10003080 f i EventFiringObject.obj
 0001:00002130       ??1?$CProxy_IEventFiringObjectEvents@VCEventFiringObject@@@@QAE@XZ 10003130 f i EventFiringObject.obj
 0001:00002160       ??_G?$CComAggObject@VCEventFiringObject@@@ATL@@UAEPAXI@Z 10003160 f i EventFiringObject.obj
 0001:00002160       ??_E?$CComAggObject@VCEventFiringObject@@@ATL@@UAEPAXI@Z 10003160 f i EventFiringObject.obj
 0001:000021a0       ??1?$CComAggObject@VCEventFiringObject@@@ATL@@UAE@XZ 100031a0 f i EventFiringObject.obj
 0001:00002270       ??1?$CComContainedObject@VCEventFiringObject@@@ATL@@QAE@XZ 10003270 f i EventFiringObject.obj
 0001:000022a0       ?_GetEntries@?$CComEnum@UIEnumConnectionPoints@@$1?_GUID_b196b285_bab4_101a_b69c_00aa00341d07@@3U__s_GUID@@BPAUIConnectionPoint@@V?$_CopyInterface@UIConnectionPoint@@@ATL@@VCComSingleThreadModel@6@@ATL@@SGPBU_ATL_INTMAP_ENTRY@2@XZ 100032a0 f i EventFiringObject.obj
 0001:000022b0       ?FinalRelease@?$CComAggObject@VCEventFiringObject@@@ATL@@QAEXXZ 100032b0 f i EventFiringObject.obj
 0001:000022f0       ??0?$CComContainedObject@VCEventFiringObject@@@ATL@@QAE@PAX@Z 100032f0 f i EventFiringObject.obj
 0001:00002350       ?AddRef@?$CComContainedObject@VCEventFiringObject@@@ATL@@UAGKXZ 10003350 f i EventFiringObject.obj
 0001:00002370       ?Release@?$CComContainedObject@VCEventFiringObject@@@ATL@@UAGKXZ 10003370 f i EventFiringObject.obj
 0001:00002390       ?QueryInterface@?$CComContainedObject@VCEventFiringObject@@@ATL@@UAGJABU_GUID@@PAPAX@Z 10003390 f i EventFiringObject.obj
 0001:000023c0       ??1?$IConnectionPointImpl@VCEventFiringObject@@$1?DIID__IEventFiringObjectEvents@@3U_GUID@@BVCComDynamicUnkArray@ATL@@@ATL@@QAE@XZ 100033c0 f i EventFiringObject.obj
 0001:00002480       ?Advise@?$IConnectionPointImpl@VCEventFiringObject@@$1?DIID__IEventFiringObjectEvents@@3U_GUID@@BVCComDynamicUnkArray@ATL@@@ATL@@UAGJPAUIUnknown@@PAK@Z 10003480 f i EventFiringObject.obj
 0001:00002610       ?Unadvise@?$IConnectionPointImpl@VCEventFiringObject@@$1?DIID__IEventFiringObjectEvents@@3U_GUID@@BVCComDynamicUnkArray@ATL@@@ATL@@UAGJK@Z 10003610 f i EventFiringObject.obj
 0001:000026d0       ?EnumConnections@?$IConnectionPointImpl@VCEventFiringObject@@$1?DIID__IEventFiringObjectEvents@@3U_GUID@@BVCComDynamicUnkArray@ATL@@@ATL@@UAGJPAPAUIEnumConnections@@@Z 100036d0 f i EventFiringObject.obj
 0001:00002980       ??$AtlMultiply@I@ATL@@YAJPAIII@Z 10003980 f i EventFiringObject.obj
 0001:000029d0       ??1?$CComEnumImpl@UIEnumConnectionPoints@@$1?_GUID_b196b285_bab4_101a_b69c_00aa00341d07@@3U__s_GUID@@BPAUIConnectionPoint@@V?$_CopyInterface@UIConnectionPoint@@@ATL@@@ATL@@UAE@XZ 100039d0 f i EventFiringObject.obj
 0001:00002a90       ?Next@?$CComEnumImpl@UIEnumConnectionPoints@@$1?_GUID_b196b285_bab4_101a_b69c_00aa00341d07@@3U__s_GUID@@BPAUIConnectionPoint@@V?$_CopyInterface@UIConnectionPoint@@@ATL@@@ATL@@UAGJKPAPAUIConnectionPoint@@PAK@Z 10003a90 f i EventFiringObject.obj
 0001:00002c10       ?Skip@?$CComEnumImpl@UIEnumConnectionPoints@@$1?_GUID_b196b285_bab4_101a_b69c_00aa00341d07@@3U__s_GUID@@BPAUIConnectionPoint@@V?$_CopyInterface@UIConnectionPoint@@@ATL@@@ATL@@UAGJK@Z 10003c10 f i EventFiringObject.obj
 0001:00002c90       ?Clone@?$CComEnumImpl@UIEnumConnectionPoints@@$1?_GUID_b196b285_bab4_101a_b69c_00aa00341d07@@3U__s_GUID@@BPAUIConnectionPoint@@V?$_CopyInterface@UIConnectionPoint@@@ATL@@@ATL@@UAGJPAPAUIEnumConnectionPoints@@@Z 10003c90 f i EventFiringObject.obj
 0001:00002e30       ?Init@?$CComEnumImpl@UIEnumConnectionPoints@@$1?_GUID_b196b285_bab4_101a_b69c_00aa00341d07@@3U__s_GUID@@BPAUIConnectionPoint@@V?$_CopyInterface@UIConnectionPoint@@@ATL@@@ATL@@QAEJPAPAUIConnectionPoint@@0PAUIUnknown@@W4CComEnumFlags@2@@Z 10003e30 f i EventFiringObject.obj
 0001:00003060       ?_AtlVerifyStackAvailable@_ATL_SAFE_ALLOCA_IMPL@ATL@@YA_NK@Z 10004060 f i EventFiringObject.obj
 0001:00003200       ??4?$CComPtr@UIUnknown@@@ATL@@QAEPAUIUnknown@@PAU2@@Z 10004200 f i EventFiringObject.obj
 0001:00003250       ??0?$CComObject@V?$CComEnum@UIEnumConnections@@$1?_GUID_b196b287_bab4_101a_b69c_00aa00341d07@@3U__s_GUID@@BUtagCONNECTDATA@@V?$_Copy@UtagCONNECTDATA@@@ATL@@VCComSingleThreadModel@6@@ATL@@@ATL@@QAE@PAX@Z 10004250 f i EventFiringObject.obj
 0001:000032a0       ?AddRef@?$CComObject@V?$CComEnum@UIEnumConnections@@$1?_GUID_b196b287_bab4_101a_b69c_00aa00341d07@@3U__s_GUID@@BUtagCONNECTDATA@@V?$_Copy@UtagCONNECTDATA@@@ATL@@VCComSingleThreadModel@6@@ATL@@@ATL@@UAGKXZ 100042a0 f i EventFiringObject.obj
 0001:000032c0       ?Release@?$CComObject@V?$CComEnum@UIEnumConnections@@$1?_GUID_b196b287_bab4_101a_b69c_00aa00341d07@@3U__s_GUID@@BUtagCONNECTDATA@@V?$_Copy@UtagCONNECTDATA@@@ATL@@VCComSingleThreadModel@6@@ATL@@@ATL@@UAGKXZ 100042c0 f i EventFiringObject.obj
 0001:00003340       ?QueryInterface@?$CComObject@V?$CComEnum@UIEnumConnections@@$1?_GUID_b196b287_bab4_101a_b69c_00aa00341d07@@3U__s_GUID@@BUtagCONNECTDATA@@V?$_Copy@UtagCONNECTDATA@@@ATL@@VCComSingleThreadModel@6@@ATL@@@ATL@@UAGJABU_GUID@@PAPAX@Z 10004340 f i EventFiringObject.obj
 0001:00003360       ?_InternalQueryInterface@?$CComEnum@UIEnumConnections@@$1?_GUID_b196b287_bab4_101a_b69c_00aa00341d07@@3U__s_GUID@@BUtagCONNECTDATA@@V?$_Copy@UtagCONNECTDATA@@@ATL@@VCComSingleThreadModel@6@@ATL@@QAEJABU_GUID@@PAPAX@Z 10004360 f i EventFiringObject.obj
 0001:000033a0       ?Reset@?$CComEnumImpl@UIEnumConnections@@$1?_GUID_b196b287_bab4_101a_b69c_00aa00341d07@@3U__s_GUID@@BUtagCONNECTDATA@@V?$_Copy@UtagCONNECTDATA@@@ATL@@@ATL@@UAGJXZ 100043a0 f i EventFiringObject.obj
 0001:000033c0       ?copy@?$_CopyInterface@UIConnectionPoint@@@ATL@@SAJPAPAUIConnectionPoint@@0@Z 100043c0 f i EventFiringObject.obj
 0001:00003470       ?init@?$_CopyInterface@UIConnectionPoint@@@ATL@@SAXPAPAUIConnectionPoint@@@Z 10004470 f i EventFiringObject.obj
 0001:00003480       ?destroy@?$_CopyInterface@UIConnectionPoint@@@ATL@@SAXPAPAUIConnectionPoint@@@Z 10004480 f i EventFiringObject.obj
 0001:000034c0       ??_G?$CComObject@V?$CComEnum@UIEnumConnections@@$1?_GUID_b196b287_bab4_101a_b69c_00aa00341d07@@3U__s_GUID@@BUtagCONNECTDATA@@V?$_Copy@UtagCONNECTDATA@@@ATL@@VCComSingleThreadModel@6@@ATL@@@ATL@@UAEPAXI@Z 100044c0 f i EventFiringObject.obj
 0001:000034c0       ??_E?$CComObject@V?$CComEnum@UIEnumConnections@@$1?_GUID_b196b287_bab4_101a_b69c_00aa00341d07@@3U__s_GUID@@BUtagCONNECTDATA@@V?$_Copy@UtagCONNECTDATA@@@ATL@@VCComSingleThreadModel@6@@ATL@@@ATL@@UAEPAXI@Z 100044c0 f i EventFiringObject.obj
 0001:00003500       ??1?$CComObject@V?$CComEnum@UIEnumConnections@@$1?_GUID_b196b287_bab4_101a_b69c_00aa00341d07@@3U__s_GUID@@BUtagCONNECTDATA@@V?$_Copy@UtagCONNECTDATA@@@ATL@@VCComSingleThreadModel@6@@ATL@@@ATL@@UAE@XZ 10004500 f i EventFiringObject.obj
 0001:00003560       ??0?$CComEnum@UIEnumConnections@@$1?_GUID_b196b287_bab4_101a_b69c_00aa00341d07@@3U__s_GUID@@BUtagCONNECTDATA@@V?$_Copy@UtagCONNECTDATA@@@ATL@@VCComSingleThreadModel@6@@ATL@@QAE@XZ 10004560 f i EventFiringObject.obj
 0001:000035d0       ??1?$CComEnum@UIEnumConnections@@$1?_GUID_b196b287_bab4_101a_b69c_00aa00341d07@@3U__s_GUID@@BUtagCONNECTDATA@@V?$_Copy@UtagCONNECTDATA@@@ATL@@VCComSingleThreadModel@6@@ATL@@UAE@XZ 100045d0 f i EventFiringObject.obj
 0001:00003660       ?_GetEntries@?$CComEnum@UIEnumConnections@@$1?_GUID_b196b287_bab4_101a_b69c_00aa00341d07@@3U__s_GUID@@BUtagCONNECTDATA@@V?$_Copy@UtagCONNECTDATA@@@ATL@@VCComSingleThreadModel@6@@ATL@@SGPBU_ATL_INTMAP_ENTRY@2@XZ 10004660 f i EventFiringObject.obj
 0001:00003670       ??0?$CComEnumImpl@UIEnumConnections@@$1?_GUID_b196b287_bab4_101a_b69c_00aa00341d07@@3U__s_GUID@@BUtagCONNECTDATA@@V?$_Copy@UtagCONNECTDATA@@@ATL@@@ATL@@QAE@XZ 10004670 f i EventFiringObject.obj
 0001:000036d0       ??0IEnumConnections@@QAE@XZ 100046d0 f i EventFiringObject.obj
 0001:00003700       ?CreateInstance@?$CComObject@V?$CComEnum@UIEnumConnectionPoints@@$1?_GUID_b196b285_bab4_101a_b69c_00aa00341d07@@3U__s_GUID@@BPAUIConnectionPoint@@V?$_CopyInterface@UIConnectionPoint@@@ATL@@VCComSingleThreadModel@6@@ATL@@@ATL@@SGJPAPAV12@@Z 10004700 f i EventFiringObject.obj
 0001:000038c0       ??1?$CComEnumImpl@UIEnumConnections@@$1?_GUID_b196b287_bab4_101a_b69c_00aa00341d07@@3U__s_GUID@@BUtagCONNECTDATA@@V?$_Copy@UtagCONNECTDATA@@@ATL@@@ATL@@UAE@XZ 100048c0 f i EventFiringObject.obj
 0001:00003980       ?Next@?$CComEnumImpl@UIEnumConnections@@$1?_GUID_b196b287_bab4_101a_b69c_00aa00341d07@@3U__s_GUID@@BUtagCONNECTDATA@@V?$_Copy@UtagCONNECTDATA@@@ATL@@@ATL@@UAGJKPAUtagCONNECTDATA@@PAK@Z 10004980 f i EventFiringObject.obj
 0001:00003b00       ?Skip@?$CComEnumImpl@UIEnumConnections@@$1?_GUID_b196b287_bab4_101a_b69c_00aa00341d07@@3U__s_GUID@@BUtagCONNECTDATA@@V?$_Copy@UtagCONNECTDATA@@@ATL@@@ATL@@UAGJK@Z 10004b00 f i EventFiringObject.obj
 0001:00003b80       ?Clone@?$CComEnumImpl@UIEnumConnections@@$1?_GUID_b196b287_bab4_101a_b69c_00aa00341d07@@3U__s_GUID@@BUtagCONNECTDATA@@V?$_Copy@UtagCONNECTDATA@@@ATL@@@ATL@@UAGJPAPAUIEnumConnections@@@Z 10004b80 f i EventFiringObject.obj
 0001:00003d20       ?Init@?$CComEnumImpl@UIEnumConnections@@$1?_GUID_b196b287_bab4_101a_b69c_00aa00341d07@@3U__s_GUID@@BUtagCONNECTDATA@@V?$_Copy@UtagCONNECTDATA@@@ATL@@@ATL@@QAEJPAUtagCONNECTDATA@@0PAUIUnknown@@W4CComEnumFlags@2@@Z 10004d20 f i EventFiringObject.obj
 0001:00003f50       ?CreateInstance@?$CComObject@V?$CComEnum@UIEnumConnections@@$1?_GUID_b196b287_bab4_101a_b69c_00aa00341d07@@3U__s_GUID@@BUtagCONNECTDATA@@V?$_Copy@UtagCONNECTDATA@@@ATL@@VCComSingleThreadModel@6@@ATL@@@ATL@@SGJPAPAV12@@Z 10004f50 f i EventFiringObject.obj
 0001:00004110       ?Release@?$CComContainedObject@VCEventFiringObject@@@ATL@@W3AGKXZ 10005110 f i EventFiringObject.obj
 0001:00004120       ?AddRef@?$CComContainedObject@VCEventFiringObject@@@ATL@@W3AGKXZ 10005120 f i EventFiringObject.obj
 0001:00004130       ?QueryInterface@?$CComObject@VCEventFiringObject@@@ATL@@W3AGJABU_GUID@@PAPAX@Z 10005130 f i EventFiringObject.obj
 0001:00004140       ?Release@?$CComContainedObject@VCEventFiringObject@@@ATL@@W7AGKXZ 10005140 f i EventFiringObject.obj
 0001:00004150       ?AddRef@?$CComContainedObject@VCEventFiringObject@@@ATL@@W7AGKXZ 10005150 f i EventFiringObject.obj
 0001:00004160       ?QueryInterface@?$CComObject@VCEventFiringObject@@@ATL@@W7AGJABU_GUID@@PAPAX@Z 10005160 f i EventFiringObject.obj
 0001:00004170       ?Release@?$CComContainedObject@VCEventFiringObject@@@ATL@@WM@AGKXZ 10005170 f i EventFiringObject.obj
 0001:00004180       ?AddRef@?$CComContainedObject@VCEventFiringObject@@@ATL@@WM@AGKXZ 10005180 f i EventFiringObject.obj
 0001:00004190       ?Release@?$CComObject@VCEventFiringObject@@@ATL@@W3AGKXZ 10005190 f i EventFiringObject.obj
 0001:000041a0       ?AddRef@?$CComObject@VCEventFiringObject@@@ATL@@W3AGKXZ 100051a0 f i EventFiringObject.obj
 0001:000041b0       ?Release@?$CComObject@VCEventFiringObject@@@ATL@@W7AGKXZ 100051b0 f i EventFiringObject.obj
 0001:000041c0       ?AddRef@?$CComObject@VCEventFiringObject@@@ATL@@W7AGKXZ 100051c0 f i EventFiringObject.obj
 0001:000041d0       ?QueryInterface@?$CComContainedObject@VCEventFiringObject@@@ATL@@W3AGJABU_GUID@@PAPAX@Z 100051d0 f i EventFiringObject.obj
 0001:000041e0       ?Release@?$CComObject@VCEventFiringObject@@@ATL@@WM@AGKXZ 100051e0 f i EventFiringObject.obj
 0001:000041f0       ?AddRef@?$CComObject@VCEventFiringObject@@@ATL@@WM@AGKXZ 100051f0 f i EventFiringObject.obj
 0001:00004200       ?QueryInterface@?$CComContainedObject@VCEventFiringObject@@@ATL@@W7AGJABU_GUID@@PAPAX@Z 10005200 f i EventFiringObject.obj
 0001:00004210       ?AtlThrowImpl@ATL@@YGXJ@Z  10005210 f i EventFiringObject.obj
 0001:00004290       ??0CTraceFileAndLineInfo@ATL@@QAE@PBDH@Z 10005290 f i EventFiringObject.obj
 0001:000042c0       ??RCTraceFileAndLineInfo@ATL@@QBAXKIPBDZZ 100052c0 f i EventFiringObject.obj
 0001:00004310       ?TraceV@CTrace@ATL@@QBAXPBDHKI0PAD@Z 10005310 f i EventFiringObject.obj
 0001:00004350       ??BCTraceCategory@ATL@@QBEKXZ 10005350 f i EventFiringObject.obj
 0001:00004370       ??0CAtlException@ATL@@QAE@J@Z 10005370 f i EventFiringObject.obj
 0001:00004390       ??0CComSafeDeleteCriticalSection@ATL@@QAE@XZ 10005390 f i EventFiringObject.obj
 0001:000043c0       ??0CComCriticalSection@ATL@@QAE@XZ 100053c0 f i EventFiringObject.obj
 0001:000043f0       ?Init@CComSafeDeleteCriticalSection@ATL@@QAEJXZ 100053f0 f i EventFiringObject.obj
 0001:00004460       ?Init@CComCriticalSection@ATL@@QAEJXZ 10005460 f i EventFiringObject.obj
 0001:00004560       ?AtlComPtrAssign@ATL@@YGPAUIUnknown@@PAPAU2@PAU2@@Z 10005560 f i EventFiringObject.obj
 0001:000045d0       ??1?$CComPtr@UIUnknown@@@ATL@@QAE@XZ 100055d0 f i EventFiringObject.obj
 0001:00004600       ?Increment@CComMultiThreadModel@ATL@@SGKPAJ@Z 10005600 f i EventFiringObject.obj
 0001:00004630       ?Decrement@CComMultiThreadModel@ATL@@SGKPAJ@Z 10005630 f i EventFiringObject.obj
 0001:00004660       ?InlineIsEqualUnknown@ATL@@YGHABU_GUID@@@Z 10005660 f i EventFiringObject.obj
 0001:000046b0       ?GetLockCount@CAtlModule@ATL@@UAEJXZ 100056b0 f i EventFiringObject.obj
 0001:000046d0       ?UpdateRegistryFromResourceS@CComModule@ATL@@UAGJIHPAU_ATL_REGMAP_ENTRY@2@@Z 100056d0 f i EventFiringObject.obj
 0001:00004700       ??0IUnknown@@QAE@XZ        10005700 f i EventFiringObject.obj
 0001:00004720       ?UpdateRegistryFromResourceS@CAtlModule@ATL@@QAGJIHPAU_ATL_REGMAP_ENTRY@2@@Z 10005720 f i EventFiringObject.obj
 0001:00004cf0       ??$AtlMultiply@H@ATL@@YAJPAHHH@Z 10005cf0 f i EventFiringObject.obj
 0001:00004d70       ?_AtlGetConversionACP@ATL@@YGIXZ 10005d70 f i EventFiringObject.obj
 0001:00004d90       ?AtlA2WHelper@@YGPA_WPA_WPBDHI@Z 10005d90 f i EventFiringObject.obj
 0001:00004e70       ?ocslen@@YAHPB_W@Z         10005e70 f i EventFiringObject.obj
 0001:00004ea0       ?ocscpy_s@@YA_NPA_WIPB_W@Z 10005ea0 f i EventFiringObject.obj
 0001:00004ee0       ?GetModuleInstance@CAtlBaseModule@ATL@@QAEPAUHINSTANCE__@@XZ 10005ee0 f i EventFiringObject.obj
 0001:00004f00       ?AtlHresultFromLastError@ATL@@YAJXZ 10005f00 f i EventFiringObject.obj
 0001:00004f60       ?EscapeSingleQuote@CAtlModule@ATL@@SAXPA_WIPB_W@Z 10005f60 f i EventFiringObject.obj
 0001:00005010       ??1CRegObject@ATL@@UAE@XZ  10006010 f i EventFiringObject.obj
 0001:00005090       ??1CExpansionVector@ATL@@QAE@XZ 10006090 f i EventFiringObject.obj
 0001:00005100       ?ClearReplacements@CExpansionVector@ATL@@QAEJXZ 10006100 f i EventFiringObject.obj
 0001:00005190       ?QueryInterface@CRegObject@ATL@@UAGJABU_GUID@@PAPAX@Z 10006190 f i EventFiringObject.obj
 0001:000051d0       ?AddRef@CRegObject@ATL@@UAGKXZ 100061d0 f i EventFiringObject.obj
 0001:00005210       ?Release@CRegObject@ATL@@UAGKXZ 10006210 f i EventFiringObject.obj
 0001:00005250       ?FinalConstruct@CRegObject@ATL@@QAEJXZ 10006250 f i EventFiringObject.obj
 0001:00005280       ?Init@CComFakeCriticalSection@ATL@@QAEJXZ 10006280 f i EventFiringObject.obj
 0001:000052a0       ??_GCRegObject@ATL@@UAEPAXI@Z 100062a0 f i EventFiringObject.obj
 0001:000052a0       ??_ECRegObject@ATL@@UAEPAXI@Z 100062a0 f i EventFiringObject.obj
 0001:000052e0       ?AddReplacement@CRegObject@ATL@@UAGJPB_W0@Z 100062e0 f i EventFiringObject.obj
 0001:00005540       ?AtlW2AHelper@@YGPADPADPB_WHI@Z 10006540 f i EventFiringObject.obj
 0001:00005620       ?Lock@CComFakeCriticalSection@ATL@@QAEJXZ 10006620 f i EventFiringObject.obj
 0001:00005640       ?Unlock@CComFakeCriticalSection@ATL@@QAEJXZ 10006640 f i EventFiringObject.obj
 0001:00005660       ?Add@CExpansionVector@ATL@@QAEHPBDPB_W@Z 10006660 f i EventFiringObject.obj
 0001:000058f0       ?memcpy_s@Checked@ATL@@YAXPAXIPBXI@Z 100068f0 f i EventFiringObject.obj
 0001:00005920       ?AtlCrtErrorCheck@ATL@@YAHH@Z 10006920 f i EventFiringObject.obj
 0001:000059f0       ?ResourceRegister@CRegObject@ATL@@QAGJPB_WI0@Z 100069f0 f i EventFiringObject.obj
 0001:00005c10       ?RegisterFromResource@CRegObject@ATL@@IAEJPB_WPBD1H@Z 10006c10 f i EventFiringObject.obj
 0001:00006130       ?ResourceUnregister@CRegObject@ATL@@QAGJPB_WI0@Z 10007130 f i EventFiringObject.obj
 0001:00006350       ?ClearReplacements@CRegObject@ATL@@UAGJXZ 10007350 f i EventFiringObject.obj
 0001:000063a0       ??0CRegParser@ATL@@QAE@PAVCRegObject@1@@Z 100073a0 f i EventFiringObject.obj
 0001:000063d0       ?RegisterBuffer@CRegParser@ATL@@QAEJPADH@Z 100073d0 f i EventFiringObject.obj
 0001:000066f0       ?GenerateError@CRegParser@ATL@@IAEJI@Z 100076f0 f i EventFiringObject.obj
 0001:00006710       ?HKeyFromString@CRegParser@ATL@@KAPAUHKEY__@@PAD@Z 10007710 f i EventFiringObject.obj
 0001:00006780       ?SkipWhiteSpace@CRegParser@ATL@@IAEXXZ 10007780 f i EventFiringObject.obj
 0001:000067d0       ?IsSpace@CRegParser@ATL@@IAEHD@Z 100077d0 f i EventFiringObject.obj
 0001:00006840       ?NextToken@CRegParser@ATL@@IAEJPAD@Z 10007840 f i EventFiringObject.obj
 0001:00006ad0       ?EndOfVar@CRegParser@ATL@@IAEHXZ 10007ad0 f i EventFiringObject.obj
 0001:00006b40       ?PreProcessBuffer@CRegParser@ATL@@QAEJPADPAPAD@Z 10007b40 f i EventFiringObject.obj
 0001:00006e80       ?tcsncpy_s@Checked@ATL@@YAHPADIPBDI@Z 10007e80 f i EventFiringObject.obj
 0001:00006eb0       __tcsncpy_s                10007eb0 f i EventFiringObject.obj
 0001:00006ee0       ??0CParseBuffer@CRegParser@ATL@@QAE@H@Z 10007ee0 f i EventFiringObject.obj
 0001:00006f50       ?AtlCoTaskMemCAlloc@ATL@@YAPAXKK@Z 10007f50 f i EventFiringObject.obj
 0001:00006fe0       ??$AtlMultiply@K@ATL@@YAJPAKKK@Z 10007fe0 f i EventFiringObject.obj
 0001:00007030       ??1CParseBuffer@CRegParser@ATL@@QAE@XZ 10008030 f i EventFiringObject.obj
 0001:00007070       ?AddChar@CParseBuffer@CRegParser@ATL@@QAEHPBD@Z 10008070 f i EventFiringObject.obj
 0001:000070d0       ?Append@CParseBuffer@CRegParser@ATL@@QAEHPBDH@Z 100080d0 f i EventFiringObject.obj
 0001:00007230       ?AtlCoTaskMemRecalloc@ATL@@YAPAXPAXKK@Z 10008230 f i EventFiringObject.obj
 0001:000072d0       ?AddString@CParseBuffer@CRegParser@ATL@@QAEHPB_W@Z 100082d0 f i EventFiringObject.obj
 0001:00007510       ?Detach@CParseBuffer@CRegParser@ATL@@QAEPADXZ 10008510 f i EventFiringObject.obj
 0001:00007560       ?StrFromMap@CRegObject@ATL@@QAEPB_WPAD@Z 10008560 f i EventFiringObject.obj
 0001:000075f0       ?StrChrA@CRegParser@ATL@@KAPADPADD@Z 100085f0 f i EventFiringObject.obj
 0001:00007660       ?RegisterSubkeys@CRegParser@ATL@@IAEJPADPAUHKEY__@@HH@Z 10008660 f i EventFiringObject.obj
 0001:000081f0       ?AtlHresultFromWin32@ATL@@YAJK@Z 100091f0 f i EventFiringObject.obj
 0001:00008230       ??0CRegKey@ATL@@QAE@XZ     10009230 f i EventFiringObject.obj
 0001:00008250       ??1CRegKey@ATL@@QAE@XZ     10009250 f i EventFiringObject.obj
 0001:00008280       ??BCRegKey@ATL@@QBEPAUHKEY__@@XZ 10009280 f i EventFiringObject.obj
 0001:000082a0       ?Detach@CRegKey@ATL@@QAEPAUHKEY__@@XZ 100092a0 f i EventFiringObject.obj
 0001:000082d0       ?Attach@CRegKey@ATL@@QAEXPAUHKEY__@@@Z 100092d0 f i EventFiringObject.obj
 0001:00008330       ?DeleteSubKey@CRegKey@ATL@@QAEJPBD@Z 10009330 f i EventFiringObject.obj
 0001:000083a0       ?DeleteValue@CRegKey@ATL@@QAEJPBD@Z 100093a0 f i EventFiringObject.obj
 0001:00008410       ?Close@CRegKey@ATL@@QAEJXZ 10009410 f i EventFiringObject.obj
 0001:00008470       ?Create@CRegKey@ATL@@QAEJPAUHKEY__@@PBDPADKKPAU_SECURITY_ATTRIBUTES@@PAK@Z 10009470 f i EventFiringObject.obj
 0001:00008570       ?Open@CRegKey@ATL@@QAEJPAUHKEY__@@PBDK@Z 10009570 f i EventFiringObject.obj
 0001:00008670       ?RecurseDeleteKey@CRegKey@ATL@@QAEJPBD@Z 10009670 f i EventFiringObject.obj
 0001:00008840       ?AddValue@CRegParser@ATL@@IAEJAAVCRegKey@2@PBDPAD@Z 10009840 f i EventFiringObject.obj
 0001:000091f0       ?SetDWORDValue@CRegKey@ATL@@QAEJPBDK@Z 1000a1f0 f i EventFiringObject.obj
 0001:00009260       ?SetStringValue@CRegKey@ATL@@QAEJPBD0K@Z 1000a260 f i EventFiringObject.obj
 0001:00009370       ?SetMultiStringValue@CRegKey@ATL@@QAEJPBD0@Z 1000a370 f i EventFiringObject.obj
 0001:00009480       ?VTFromRegType@CRegParser@ATL@@KAHPBDAAG@Z 1000a480 f i EventFiringObject.obj
 0001:00009560       ?ChToByte@CRegParser@ATL@@KAED@Z 1000a560 f i EventFiringObject.obj
 0001:00009670       ?CanForceRemoveKey@CRegParser@ATL@@IAEHPBD@Z 1000a670 f i EventFiringObject.obj
 0001:000096e0       ?HasSubKeys@CRegParser@ATL@@IAEHPAUHKEY__@@@Z 1000a6e0 f i EventFiringObject.obj
 0001:000097e0       ?SkipAssignment@CRegParser@ATL@@IAEJPAD@Z 1000a7e0 f i EventFiringObject.obj
 0001:000098c0       ??0CRegObject@ATL@@QAE@XZ  1000a8c0 f i EventFiringObject.obj
 0001:00009900       ??0IRegistrarBase@@QAE@XZ  1000a900 f i EventFiringObject.obj
 0001:00009930       ??0CExpansionVector@ATL@@QAE@XZ 1000a930 f i EventFiringObject.obj
 0001:00009960       ?Init@CComModule@ATL@@QAEJPAU_ATL_OBJMAP_ENTRY30@2@PAUHINSTANCE__@@PBU_GUID@@@Z 1000a960 f i EventFiringObject.obj
 0001:00009a50       ?Term@CComModule@ATL@@QAEXXZ 1000aa50 f i EventFiringObject.obj
 0001:00009b40       ?Term@CAtlWinModule@ATL@@QAEXXZ 1000ab40 f i EventFiringObject.obj
 0001:00009b70       ?Term@CAtlModule@ATL@@QAEXXZ 1000ab70 f i EventFiringObject.obj
 0001:00009c20       ?Term@CComCriticalSection@ATL@@QAEJXZ 1000ac20 f i EventFiringObject.obj
 0001:00009c60       ?AtlWinModuleTerm@ATL@@YGJPAU_ATL_WIN_MODULE70@1@PAUHINSTANCE__@@@Z 1000ac60 f i EventFiringObject.obj
 0001:00009d20       ?GetClassObject@CComModule@ATL@@QAEJABU_GUID@@0PAPAX@Z 1000ad20 f i EventFiringObject.obj
 0001:00009f20       ?RegisterServer@CComModule@ATL@@QAEJHPBU_GUID@@@Z 1000af20 f i EventFiringObject.obj
 0001:0000a000       _IsEqualGUID               1000b000 f i EventFiringObject.obj
 0001:0000a030       ?AtlRegisterClassCategoriesHelper@ATL@@YGJABU_GUID@@PBU_ATL_CATMAP_ENTRY@1@H@Z 1000b030 f i EventFiringObject.obj
 0001:0000a7d0       ?strcpy_s@Checked@ATL@@YAXPADIPBD@Z 1000b7d0 f i EventFiringObject.obj
 0001:0000a800       ?strcat_s@Checked@ATL@@YAXPADIPBD@Z 1000b800 f i EventFiringObject.obj
 0001:0000a830       ??0CRegKey@ATL@@QAE@PAUHKEY__@@@Z 1000b830 f i EventFiringObject.obj
 0001:0000a850       ??1?$CComPtr@UICatRegister@@@ATL@@QAE@XZ 1000b850 f i EventFiringObject.obj
 0001:0000a880       ?UnregisterServer@CComModule@ATL@@QAEJHPBU_GUID@@@Z 1000b880 f i EventFiringObject.obj
 0001:0000a960       ??0CComObjectRootBase@ATL@@QAE@XZ 1000b960 f i EventFiringObject.obj
 0001:0000a980       ??1CComObjectRootBase@ATL@@QAE@XZ 1000b980 f i EventFiringObject.obj
 0001:0000a9a0       ?FinalConstruct@CComObjectRootBase@ATL@@QAEJXZ 1000b9a0 f i EventFiringObject.obj
 0001:0000a9c0       ?_AtlFinalConstruct@CComObjectRootBase@ATL@@QAEJXZ 1000b9c0 f i EventFiringObject.obj
 0001:0000a9e0       ?FinalRelease@CComObjectRootBase@ATL@@QAEXXZ 1000b9e0 f i EventFiringObject.obj
 0001:0000aa00       ?GetCategoryMap@CComObjectRootBase@ATL@@SAPBU_ATL_CATMAP_ENTRY@2@XZ 1000ba00 f i EventFiringObject.obj
 0001:0000aa10       ?InternalQueryInterface@CComObjectRootBase@ATL@@SGJPAXPBU_ATL_INTMAP_ENTRY@2@ABU_GUID@@PAPAX@Z 1000ba10 f i EventFiringObject.obj
 0001:0000aac0       ?OuterAddRef@CComObjectRootBase@ATL@@QAEKXZ 1000bac0 f i EventFiringObject.obj
 0001:0000ab00       ?OuterRelease@CComObjectRootBase@ATL@@QAEKXZ 1000bb00 f i EventFiringObject.obj
 0001:0000ab40       ?OuterQueryInterface@CComObjectRootBase@ATL@@QAEJABU_GUID@@PAPAX@Z 1000bb40 f i EventFiringObject.obj
 0001:0000ab90       ?SetVoid@CComObjectRootBase@ATL@@QAEXPAX@Z 1000bb90 f i EventFiringObject.obj
 0001:0000abb0       ?InternalFinalConstructAddRef@CComObjectRootBase@ATL@@QAEXXZ 1000bbb0 f i EventFiringObject.obj
 0001:0000abd0       ?InternalFinalConstructRelease@CComObjectRootBase@ATL@@QAEXXZ 1000bbd0 f i EventFiringObject.obj
 0001:0000ac20       ?ObjectMain@CComObjectRootBase@ATL@@SGX_N@Z 1000bc20 f i EventFiringObject.obj
 0001:0000ac30       ??1?$CComObjectRootEx@VCComSingleThreadModel@ATL@@@ATL@@QAE@XZ 1000bc30 f i EventFiringObject.obj
 0001:0000ac60       ?InternalAddRef@?$CComObjectRootEx@VCComSingleThreadModel@ATL@@@ATL@@QAEKXZ 1000bc60 f i EventFiringObject.obj
 0001:0000acc0       ?Increment@CComSingleThreadModel@ATL@@SGKPAJ@Z 1000bcc0 f i EventFiringObject.obj
 0001:0000ace0       ?InternalRelease@?$CComObjectRootEx@VCComSingleThreadModel@ATL@@@ATL@@QAEKXZ 1000bce0 f i EventFiringObject.obj
 0001:0000ad50       ?Decrement@CComSingleThreadModel@ATL@@SGKPAJ@Z 1000bd50 f i EventFiringObject.obj
 0001:0000ad70       ?_AtlInitialConstruct@?$CComObjectRootEx@VCComSingleThreadModel@ATL@@@ATL@@QAEJXZ 1000bd70 f i EventFiringObject.obj
 0001:0000ad90       ?Lock@?$CComObjectRootEx@VCComSingleThreadModel@ATL@@@ATL@@QAEXXZ 1000bd90 f i EventFiringObject.obj
 0001:0000adb0       ?Unlock@?$CComObjectRootEx@VCComSingleThreadModel@ATL@@@ATL@@QAEXXZ 1000bdb0 f i EventFiringObject.obj
 0001:0000add0       ?_InternalQueryInterface@CComClassFactory@ATL@@QAEJABU_GUID@@PAPAX@Z 1000bdd0 f i EventFiringObject.obj
 0001:0000ae10       ?_GetEntries@CComClassFactory@ATL@@SGPBU_ATL_INTMAP_ENTRY@2@XZ 1000be10 f i EventFiringObject.obj
 0001:0000ae20       ??1CComClassFactory@ATL@@QAE@XZ 1000be20 f i EventFiringObject.obj
 0001:0000ae70       ?CreateInstance@CComClassFactory@ATL@@UAGJPAUIUnknown@@ABU_GUID@@PAPAX@Z 1000be70 f i EventFiringObject.obj
 0001:0000af50       ?LockServer@CComClassFactory@ATL@@UAGJH@Z 1000bf50 f i EventFiringObject.obj
 0001:0000afb0       ?SetVoid@CComClassFactory@ATL@@QAEXPAX@Z 1000bfb0 f i EventFiringObject.obj
 0001:0000afd0       ?GetTypeInfo@CComTypeInfoHolder@ATL@@QAEJIKPAPAUITypeInfo@@@Z 1000bfd0 f i EventFiringObject.obj
 0001:0000b000       ?GetTI@CComTypeInfoHolder@ATL@@QAEJKPAPAUITypeInfo@@@Z 1000c000 f i EventFiringObject.obj
 0001:0000b0c0       ?GetIDsOfNames@CComTypeInfoHolder@ATL@@QAEJABU_GUID@@PAPA_WIKPAJ@Z 1000c0c0 f i EventFiringObject.obj
 0001:0000b200       ??BCComBSTR@ATL@@QBEPA_WXZ 1000c200 f i EventFiringObject.obj
 0001:0000b220       ?EnsureTI@CComTypeInfoHolder@ATL@@QAEJK@Z 1000c220 f i EventFiringObject.obj
 0001:0000b280       ?Invoke@CComTypeInfoHolder@ATL@@QAEJPAUIDispatch@@JABU_GUID@@KGPAUtagDISPPARAMS@@PAUtagVARIANT@@PAUtagEXCEPINFO@@PAI@Z 1000c280 f i EventFiringObject.obj
 0001:0000b310       ??_Estringdispid@CComTypeInfoHolder@ATL@@QAEPAXI@Z 1000c310 f i EventFiringObject.obj
 0001:0000b390       ??1stringdispid@CComTypeInfoHolder@ATL@@QAE@XZ 1000c390 f i EventFiringObject.obj
 0001:0000b3c0       ??1CComBSTR@ATL@@QAE@XZ    1000c3c0 f i EventFiringObject.obj
 0001:0000b400       ?GetTI@CComTypeInfoHolder@ATL@@QAEJK@Z 1000c400 f i EventFiringObject.obj
 0001:0000bf40       ?AddTermFunc@CAtlModule@ATL@@QAEJP6GXK@ZK@Z 1000cf40 f i EventFiringObject.obj
 0001:0000bf90       ??1?$CComPtr@UITypeLib@@@ATL@@QAE@XZ 1000cf90 f i EventFiringObject.obj
 0001:0000bfc0       ??1?$CComPtr@UITypeInfo@@@ATL@@QAE@XZ 1000cfc0 f i EventFiringObject.obj
 0001:0000bff0       ?LoadNameCache@CComTypeInfoHolder@ATL@@QAEJPAUITypeInfo@@@Z 1000cff0 f i EventFiringObject.obj
 0001:0000c2f0       ??0CComBSTR@ATL@@QAE@XZ    1000d2f0 f i EventFiringObject.obj
 0001:0000c310       ??ICComBSTR@ATL@@QAEPAPA_WXZ 1000d310 f i EventFiringObject.obj
 0001:0000c330       ?Attach@CComBSTR@ATL@@QAEXPA_W@Z 1000d330 f i EventFiringObject.obj
 0001:0000c380       ?Detach@CComBSTR@ATL@@QAEPA_WXZ 1000d380 f i EventFiringObject.obj
 0001:0000c3b0       ??0stringdispid@CComTypeInfoHolder@ATL@@QAE@XZ 1000d3b0 f i EventFiringObject.obj
 0001:0000c3f0       ?Cleanup@CComTypeInfoHolder@ATL@@SGXK@Z 1000d3f0 f i EventFiringObject.obj
 0001:0000c4c0       ??1?$CComPtr@UITypeInfo2@@@ATL@@QAE@XZ 1000d4c0 f i EventFiringObject.obj
 0001:0000c4f0       ?copy@?$_Copy@UtagCONNECTDATA@@@ATL@@SAJPAUtagCONNECTDATA@@PBU3@@Z 1000d4f0 f i EventFiringObject.obj
 0001:0000c5b0       ?init@?$_Copy@UtagCONNECTDATA@@@ATL@@SAXPAUtagCONNECTDATA@@@Z 1000d5b0 f i EventFiringObject.obj
 0001:0000c5c0       ?destroy@?$_Copy@UtagCONNECTDATA@@@ATL@@SAXPAUtagCONNECTDATA@@@Z 1000d5c0 f i EventFiringObject.obj
 0001:0000c600       ??0CComDynamicUnkArray@ATL@@QAE@XZ 1000d600 f i EventFiringObject.obj
 0001:0000c630       ??1CComDynamicUnkArray@ATL@@QAE@XZ 1000d630 f i EventFiringObject.obj
 0001:0000c670       ?GetCookie@CComDynamicUnkArray@ATL@@QAGKPAPAUIUnknown@@@Z 1000d670 f i EventFiringObject.obj
 0001:0000c720       ?GetUnknown@CComDynamicUnkArray@ATL@@QAGPAUIUnknown@@K@Z 1000d720 f i EventFiringObject.obj
 0001:0000c790       ?begin@CComDynamicUnkArray@ATL@@QAEPAPAUIUnknown@@XZ 1000d790 f i EventFiringObject.obj
 0001:0000c7b0       ?end@CComDynamicUnkArray@ATL@@QAEPAPAUIUnknown@@XZ 1000d7b0 f i EventFiringObject.obj
 0001:0000c7d0       ?GetAt@CComDynamicUnkArray@ATL@@QAEPAUIUnknown@@H@Z 1000d7d0 f i EventFiringObject.obj
 0001:0000c850       ?Add@CComDynamicUnkArray@ATL@@QAEKPAUIUnknown@@@Z 1000d850 f i EventFiringObject.obj
 0001:0000c9e0       ?Remove@CComDynamicUnkArray@ATL@@QAEHK@Z 1000d9e0 f i EventFiringObject.obj
 0001:0000ca90       ??0?$CAtlSafeAllocBufferManager@VCCRTAllocator@ATL@@@_ATL_SAFE_ALLOCA_IMPL@ATL@@QAE@XZ 1000da90 f i EventFiringObject.obj
 0001:0000cab0       ?Allocate@?$CAtlSafeAllocBufferManager@VCCRTAllocator@ATL@@@_ATL_SAFE_ALLOCA_IMPL@ATL@@QAEPAXK@Z 1000dab0 f i EventFiringObject.obj
 0001:0000cb20       ?Allocate@CCRTAllocator@ATL@@SAPAXI@Z 1000db20 f i EventFiringObject.obj
 0001:0000cb40       ??1?$CAtlSafeAllocBufferManager@VCCRTAllocator@ATL@@@_ATL_SAFE_ALLOCA_IMPL@ATL@@QAE@XZ 1000db40 f i EventFiringObject.obj
 0001:0000cb90       ?Free@CCRTAllocator@ATL@@SAXPAX@Z 1000db90 f i EventFiringObject.obj
 0001:0000cbb0       ??0?$CComPtr@UIUnknown@@@ATL@@QAE@XZ 1000dbb0 f i EventFiringObject.obj
 0001:0000cbe0       ??0?$CComPtr@UIUnknown@@@ATL@@QAE@PAUIUnknown@@@Z 1000dbe0 f i EventFiringObject.obj
 0001:0000cc10       ??1?$CComPtrBase@UIUnknown@@@ATL@@QAE@XZ 1000dc10 f i EventFiringObject.obj
 0001:0000cc60       ??B?$CComPtrBase@UIUnknown@@@ATL@@QBEPAUIUnknown@@XZ 1000dc60 f i EventFiringObject.obj
 0001:0000cc80       ??9?$CComPtrBase@UIUnknown@@@ATL@@QBE_NPAUIUnknown@@@Z 1000dc80 f i EventFiringObject.obj
 0001:0000ccc0       ?GetSize@?$CSimpleArray@GV?$CSimpleArrayEqualHelper@G@ATL@@@ATL@@QBEHXZ 1000dcc0 f i EventFiringObject.obj
 0001:0000cce0       ?RemoveAll@?$CSimpleArray@GV?$CSimpleArrayEqualHelper@G@ATL@@@ATL@@QAEXXZ 1000dce0 f i EventFiringObject.obj
 0001:0000cd60       ??A?$CSimpleArray@GV?$CSimpleArrayEqualHelper@G@ATL@@@ATL@@QAEAAGH@Z 1000dd60 f i EventFiringObject.obj
 0001:0000cde0       ?_AtlRaiseException@ATL@@YAXKK@Z 1000dde0 f i EventFiringObject.obj
 0001:0000ce10       ?RegisterServer@?$CAtlModuleT@VCComModule@ATL@@@ATL@@QAEJHPBU_GUID@@@Z 1000de10 f i EventFiringObject.obj
 0001:0000ce90       ?RegisterServer@CAtlComModule@ATL@@QAEJHPBU_GUID@@@Z 1000de90 f i EventFiringObject.obj
 0001:0000cec0       ?AtlComModuleRegisterServer@ATL@@YGJPAU_ATL_COM_MODULE70@1@HPBU_GUID@@@Z 1000dec0 f i EventFiringObject.obj
 0001:0000d010       ?AtlRegisterTypeLib@ATL@@YGJPAUHINSTANCE__@@PB_W@Z 1000e010 f i EventFiringObject.obj
 0001:0000d1e0       ?wcsncpy_s@Checked@ATL@@YAHPA_WIPB_WI@Z 1000e1e0 f i EventFiringObject.obj
 0001:0000d210       ?Length@CComBSTR@ATL@@QBEIXZ 1000e210 f i EventFiringObject.obj
 0001:0000d250       ?CharNextO@@YAPA_WPB_W@Z   1000e250 f i EventFiringObject.obj
 0001:0000d280       ?AtlLoadTypeLib@ATL@@YGJPAUHINSTANCE__@@PB_WPAPA_WPAPAUITypeLib@@@Z 1000e280 f i EventFiringObject.obj
 0001:0000d9f0       ?UnregisterServer@?$CAtlModuleT@VCComModule@ATL@@@ATL@@QAEJHPBU_GUID@@@Z 1000e9f0 f i EventFiringObject.obj
 0001:0000da60       ?UnregisterServer@CAtlComModule@ATL@@QAEJHPBU_GUID@@@Z 1000ea60 f i EventFiringObject.obj
 0001:0000da90       ?AtlComModuleUnregisterServer@ATL@@YGJPAU_ATL_COM_MODULE70@1@HPBU_GUID@@@Z 1000ea90 f i EventFiringObject.obj
 0001:0000dbc0       ?AtlUnRegisterTypeLib@ATL@@YGJPAUHINSTANCE__@@PB_W@Z 1000ebc0 f i EventFiringObject.obj
 0001:0000dd20       ??0?$CSimpleMap@PADPA_WVCExpansionVectorEqualHelper@ATL@@@ATL@@QAE@XZ 1000ed20 f i EventFiringObject.obj
 0001:0000dd60       ??1?$CSimpleMap@PADPA_WVCExpansionVectorEqualHelper@ATL@@@ATL@@QAE@XZ 1000ed60 f i EventFiringObject.obj
 0001:0000dd90       ?GetSize@?$CSimpleMap@PADPA_WVCExpansionVectorEqualHelper@ATL@@@ATL@@QBEHXZ 1000ed90 f i EventFiringObject.obj
 0001:0000ddb0       ?Add@?$CSimpleMap@PADPA_WVCExpansionVectorEqualHelper@ATL@@@ATL@@QAEHABQADABQA_W@Z 1000edb0 f i EventFiringObject.obj
 0001:0000de70       ?RemoveAll@?$CSimpleMap@PADPA_WVCExpansionVectorEqualHelper@ATL@@@ATL@@QAEXXZ 1000ee70 f i EventFiringObject.obj
 0001:0000df00       ?Lookup@?$CSimpleMap@PADPA_WVCExpansionVectorEqualHelper@ATL@@@ATL@@QBEPA_WABQAD@Z 1000ef00 f i EventFiringObject.obj
 0001:0000df50       ?GetKeyAt@?$CSimpleMap@PADPA_WVCExpansionVectorEqualHelper@ATL@@@ATL@@QBEAAPADH@Z 1000ef50 f i EventFiringObject.obj
 0001:0000dfd0       ?GetValueAt@?$CSimpleMap@PADPA_WVCExpansionVectorEqualHelper@ATL@@@ATL@@QBEAAPA_WH@Z 1000efd0 f i EventFiringObject.obj
 0001:0000e050       ??0?$CAutoVectorPtr@D@ATL@@QAE@XZ 1000f050 f i EventFiringObject.obj
 0001:0000e070       ??1?$CAutoVectorPtr@D@ATL@@QAE@XZ 1000f070 f i EventFiringObject.obj
 0001:0000e0a0       ?Attach@?$CAutoVectorPtr@D@ATL@@QAEXPAD@Z 1000f0a0 f i EventFiringObject.obj
 0001:0000e100       ?Detach@?$CAutoVectorPtr@D@ATL@@QAEPADXZ 1000f100 f i EventFiringObject.obj
 0001:0000e130       ??0?$CAutoVectorPtr@_W@ATL@@QAE@XZ 1000f130 f i EventFiringObject.obj
 0001:0000e150       ??1?$CAutoVectorPtr@_W@ATL@@QAE@XZ 1000f150 f i EventFiringObject.obj
 0001:0000e180       ?Attach@?$CAutoVectorPtr@_W@ATL@@QAEXPA_W@Z 1000f180 f i EventFiringObject.obj
 0001:0000e1e0       ?Detach@?$CAutoVectorPtr@_W@ATL@@QAEPA_WXZ 1000f1e0 f i EventFiringObject.obj
 0001:0000e210       ??0?$CTempBuffer@D$0EAA@VCCRTAllocator@ATL@@@ATL@@QAE@XZ 1000f210 f i EventFiringObject.obj
 0001:0000e230       ??1?$CTempBuffer@D$0EAA@VCCRTAllocator@ATL@@@ATL@@QAE@XZ 1000f230 f i EventFiringObject.obj
 0001:0000e270       ??B?$CTempBuffer@D$0EAA@VCCRTAllocator@ATL@@@ATL@@QBEPADXZ 1000f270 f i EventFiringObject.obj
 0001:0000e290       ?Allocate@?$CTempBuffer@D$0EAA@VCCRTAllocator@ATL@@@ATL@@QAEPADI@Z 1000f290 f i EventFiringObject.obj
 0001:0000e2d0       ??0?$CTempBuffer@D$0BAA@VCCRTAllocator@ATL@@@ATL@@QAE@XZ 1000f2d0 f i EventFiringObject.obj
 0001:0000e2f0       ??1?$CTempBuffer@D$0BAA@VCCRTAllocator@ATL@@@ATL@@QAE@XZ 1000f2f0 f i EventFiringObject.obj
 0001:0000e330       ??B?$CTempBuffer@D$0BAA@VCCRTAllocator@ATL@@@ATL@@QBEPADXZ 1000f330 f i EventFiringObject.obj
 0001:0000e350       ?Allocate@?$CTempBuffer@D$0BAA@VCCRTAllocator@ATL@@@ATL@@QAEPADI@Z 1000f350 f i EventFiringObject.obj
 0001:0000e390       ??0?$CTempBuffer@E$0BAA@VCCRTAllocator@ATL@@@ATL@@QAE@XZ 1000f390 f i EventFiringObject.obj
 0001:0000e3b0       ??1?$CTempBuffer@E$0BAA@VCCRTAllocator@ATL@@@ATL@@QAE@XZ 1000f3b0 f i EventFiringObject.obj
 0001:0000e3f0       ??B?$CTempBuffer@E$0BAA@VCCRTAllocator@ATL@@@ATL@@QBEPAEXZ 1000f3f0 f i EventFiringObject.obj
 0001:0000e410       ?Allocate@?$CTempBuffer@E$0BAA@VCCRTAllocator@ATL@@@ATL@@QAEPAEI@Z 1000f410 f i EventFiringObject.obj
 0001:0000e450       ??0?$CComPtr@UITypeLib@@@ATL@@QAE@XZ 1000f450 f i EventFiringObject.obj
 0001:0000e480       ??1?$CComPtrBase@UITypeLib@@@ATL@@QAE@XZ 1000f480 f i EventFiringObject.obj
 0001:0000e4d0       ??B?$CComPtrBase@UITypeLib@@@ATL@@QBEPAUITypeLib@@XZ 1000f4d0 f i EventFiringObject.obj
 0001:0000e4f0       ??I?$CComPtrBase@UITypeLib@@@ATL@@QAEPAPAUITypeLib@@XZ 1000f4f0 f i EventFiringObject.obj
 0001:0000e540       ??C?$CComPtrBase@UITypeLib@@@ATL@@QBEPAV?$_NoAddRefReleaseOnCComPtr@UITypeLib@@@1@XZ 1000f540 f i EventFiringObject.obj
 0001:0000e590       ??0?$CComPtr@UICatRegister@@@ATL@@QAE@XZ 1000f590 f i EventFiringObject.obj
 0001:0000e5c0       ??1?$CComPtrBase@UICatRegister@@@ATL@@QAE@XZ 1000f5c0 f i EventFiringObject.obj
 0001:0000e610       ??I?$CComPtrBase@UICatRegister@@@ATL@@QAEPAPAUICatRegister@@XZ 1000f610 f i EventFiringObject.obj
 0001:0000e660       ??C?$CComPtrBase@UICatRegister@@@ATL@@QBEPAV?$_NoAddRefReleaseOnCComPtr@UICatRegister@@@1@XZ 1000f660 f i EventFiringObject.obj
 0001:0000e6b0       ??0?$CComPtr@UITypeInfo@@@ATL@@QAE@XZ 1000f6b0 f i EventFiringObject.obj
 0001:0000e6e0       ??0?$CComPtr@UITypeInfo@@@ATL@@QAE@ABV01@@Z 1000f6e0 f i EventFiringObject.obj
 0001:0000e710       ??1?$CComPtrBase@UITypeInfo@@@ATL@@QAE@XZ 1000f710 f i EventFiringObject.obj
 0001:0000e760       ??I?$CComPtrBase@UITypeInfo@@@ATL@@QAEPAPAUITypeInfo@@XZ 1000f760 f i EventFiringObject.obj
 0001:0000e7b0       ??C?$CComPtrBase@UITypeInfo@@@ATL@@QBEPAV?$_NoAddRefReleaseOnCComPtr@UITypeInfo@@@1@XZ 1000f7b0 f i EventFiringObject.obj
 0001:0000e800       ?Detach@?$CComPtrBase@UITypeInfo@@@ATL@@QAEPAUITypeInfo@@XZ 1000f800 f i EventFiringObject.obj
 0001:0000e830       ??1?$CComObjectRootEx@VCComMultiThreadModel@ATL@@@ATL@@QAE@XZ 1000f830 f i EventFiringObject.obj
 0001:0000e860       ??0?$CComPtr@UITypeInfo2@@@ATL@@QAE@XZ 1000f860 f i EventFiringObject.obj
 0001:0000e890       ??1?$CComPtrBase@UITypeInfo2@@@ATL@@QAE@XZ 1000f890 f i EventFiringObject.obj
 0001:0000e8e0       ??I?$CComPtrBase@UITypeInfo2@@@ATL@@QAEPAPAUITypeInfo2@@XZ 1000f8e0 f i EventFiringObject.obj
 0001:0000e930       ??1CComAutoDeleteCriticalSection@ATL@@QAE@XZ 1000f930 f i EventFiringObject.obj
 0001:0000e960       ??1CComSafeDeleteCriticalSection@ATL@@QAE@XZ 1000f960 f i EventFiringObject.obj
 0001:0000e9a0       ??1CComCriticalSection@ATL@@QAE@XZ 1000f9a0 f i EventFiringObject.obj
 0001:0000e9c0       ??0?$CComPtrBase@UIUnknown@@@ATL@@IAE@XZ 1000f9c0 f i EventFiringObject.obj
 0001:0000e9e0       ??0?$CComPtrBase@UIUnknown@@@ATL@@IAE@PAUIUnknown@@@Z 1000f9e0 f i EventFiringObject.obj
 0001:0000ea30       ??8?$CComPtrBase@UIUnknown@@@ATL@@QBE_NPAUIUnknown@@@Z 1000fa30 f i EventFiringObject.obj
 0001:0000ea60       ?FindKey@?$CSimpleMap@PADPA_WVCExpansionVectorEqualHelper@ATL@@@ATL@@QBEHABQAD@Z 1000fa60 f i EventFiringObject.obj
 0001:0000ead0       ?IsEqualKey@CExpansionVectorEqualHelper@ATL@@SA_NQAD0@Z 1000fad0 f i EventFiringObject.obj
 0001:0000eb00       ?InternalSetAtIndex@?$CSimpleMap@PADPA_WVCExpansionVectorEqualHelper@ATL@@@ATL@@QAEXHABQADABQA_W@Z 1000fb00 f i EventFiringObject.obj
 0001:0000ec00       ?Free@?$CAutoVectorPtr@D@ATL@@QAEXXZ 1000fc00 f i EventFiringObject.obj
 0001:0000ec50       ?Free@?$CAutoVectorPtr@_W@ATL@@QAEXXZ 1000fc50 f i EventFiringObject.obj
 0001:0000eca0       ?AllocateBytes@?$CTempBuffer@D$0EAA@VCCRTAllocator@ATL@@@ATL@@QAEPADI@Z 1000fca0 f i EventFiringObject.obj
 0001:0000ed10       ?FreeHeap@?$CTempBuffer@D$0EAA@VCCRTAllocator@ATL@@@ATL@@AAEXXZ 1000fd10 f i EventFiringObject.obj
 0001:0000ed40       ?AllocateBytes@?$CTempBuffer@D$0BAA@VCCRTAllocator@ATL@@@ATL@@QAEPADI@Z 1000fd40 f i EventFiringObject.obj
 0001:0000edb0       ?FreeHeap@?$CTempBuffer@D$0BAA@VCCRTAllocator@ATL@@@ATL@@AAEXXZ 1000fdb0 f i EventFiringObject.obj
 0001:0000ede0       ?AllocateBytes@?$CTempBuffer@E$0BAA@VCCRTAllocator@ATL@@@ATL@@QAEPAEI@Z 1000fde0 f i EventFiringObject.obj
 0001:0000ee50       ?FreeHeap@?$CTempBuffer@E$0BAA@VCCRTAllocator@ATL@@@ATL@@AAEXXZ 1000fe50 f i EventFiringObject.obj
 0001:0000ee80       ??0?$CComPtrBase@UITypeLib@@@ATL@@IAE@XZ 1000fe80 f i EventFiringObject.obj
 0001:0000eea0       ??0?$CComPtrBase@UICatRegister@@@ATL@@IAE@XZ 1000fea0 f i EventFiringObject.obj
 0001:0000eec0       ??0?$CComPtrBase@UITypeInfo@@@ATL@@IAE@XZ 1000fec0 f i EventFiringObject.obj
 0001:0000eee0       ??0?$CComPtrBase@UITypeInfo@@@ATL@@IAE@PAUITypeInfo@@@Z 1000fee0 f i EventFiringObject.obj
 0001:0000ef30       ??0?$CComPtrBase@UITypeInfo2@@@ATL@@IAE@XZ 1000ff30 f i EventFiringObject.obj
 0001:0000ef50       ?GetData@CAtlSafeAllocBufferNode@?$CAtlSafeAllocBufferManager@VCCRTAllocator@ATL@@@_ATL_SAFE_ALLOCA_IMPL@ATL@@QAEPAXXZ 1000ff50 f i EventFiringObject.obj
 0001:0000ef70       ?AllocateHeap@?$CTempBuffer@D$0EAA@VCCRTAllocator@ATL@@@ATL@@AAEXI@Z 1000ff70 f i EventFiringObject.obj
 0001:0000efc0       ?AllocateHeap@?$CTempBuffer@D$0BAA@VCCRTAllocator@ATL@@@ATL@@AAEXI@Z 1000ffc0 f i EventFiringObject.obj
 0001:0000f010       ?AllocateHeap@?$CTempBuffer@E$0BAA@VCCRTAllocator@ATL@@@ATL@@AAEXI@Z 10010010 f i EventFiringObject.obj
 0001:0000f060       ??0?$Wrapper@PAD@?$CSimpleMap@PADPA_WVCExpansionVectorEqualHelper@ATL@@@ATL@@QAE@ABQAD@Z 10010060 f i EventFiringObject.obj
 0001:0000f090       ??0?$Wrapper@PA_W@?$CSimpleMap@PADPA_WVCExpansionVectorEqualHelper@ATL@@@ATL@@QAE@ABQA_W@Z 10010090 f i EventFiringObject.obj
 0001:0000f0c0       ??$AtlAdd@K@ATL@@YAJPAKKK@Z 100100c0 f i EventFiringObject.obj
 0001:0000f0f0       ??0?$CComCritSecLock@VCComCriticalSection@ATL@@@ATL@@QAE@AAVCComCriticalSection@1@_N@Z 100100f0 f i EventFiringObject.obj
 0001:0000f150       ??1?$CComCritSecLock@VCComCriticalSection@ATL@@@ATL@@QAE@XZ 10010150 f i EventFiringObject.obj
 0001:0000f180       ?Unlock@?$CComCritSecLock@VCComCriticalSection@ATL@@@ATL@@QAEXXZ 10010180 f i EventFiringObject.obj
 0001:0000f1e0       ?Unlock@CComCriticalSection@ATL@@QAEJXZ 100101e0 f i EventFiringObject.obj
 0001:0000f220       ?Lock@?$CComCritSecLock@VCComCriticalSection@ATL@@@ATL@@QAEJXZ 10010220 f i EventFiringObject.obj
 0001:0000f2a0       ?Lock@CComCriticalSection@ATL@@QAEJXZ 100102a0 f i EventFiringObject.obj
 0001:0000f2e0       ??$QueryInterface@UITypeInfo2@@@IUnknown@@QAGJPAPAUITypeInfo2@@@Z 100102e0 f i EventFiringObject.obj
 0001:0000f310       ??$?4UITypeInfo2@@@?$CComPtr@UITypeInfo@@@ATL@@QAEPAUITypeInfo@@ABV?$CComPtr@UITypeInfo2@@@1@@Z 10010310 f i EventFiringObject.obj
 0001:0000f370       ?IsEqualObject@?$CComPtrBase@UITypeInfo@@@ATL@@QAE_NPAUIUnknown@@@Z 10010370 f i EventFiringObject.obj
 0001:0000f4a0       ??B?$CComPtrBase@UITypeInfo2@@@ATL@@QBEPAUITypeInfo2@@XZ 100104a0 f i EventFiringObject.obj
 0001:0000f4c0       ??I?$CComPtrBase@UIUnknown@@@ATL@@QAEPAPAUIUnknown@@XZ 100104c0 f i EventFiringObject.obj
 0001:0000f510       ?AtlComQIPtrAssign@ATL@@YGPAUIUnknown@@PAPAU2@PAU2@ABU_GUID@@@Z 10010510 f i EventFiringObject.obj
 0001:0000f590       ??B?$CComPtrBase@UITypeInfo@@@ATL@@QBEPAUITypeInfo@@XZ 10010590 f i EventFiringObject.obj
 0001:0000f5b0       ??$AtlAddThrow@K@ATL@@YAKKK@Z 100105b0 f i EventFiringObject.obj
 0001:0000f630       ??$AtlMultiplyThrow@I@ATL@@YAIII@Z 10010630 f i EventFiringObject.obj
 0001:0000f6b0       ??$?2PAD@?$Wrapper@PAD@?$CSimpleMap@PADPA_WVCExpansionVectorEqualHelper@ATL@@@ATL@@SAPAXIPAPAD@Z 100106b0 f i EventFiringObject.obj
 0001:0000f6c0       ??$?3PAD@?$Wrapper@PAD@?$CSimpleMap@PADPA_WVCExpansionVectorEqualHelper@ATL@@@ATL@@SAXPAXPAPAD@Z 100106c0 f i EventFiringObject.obj
 0001:0000f6d0       ??$?2PA_W@?$Wrapper@PA_W@?$CSimpleMap@PADPA_WVCExpansionVectorEqualHelper@ATL@@@ATL@@SAPAXIPAPA_W@Z 100106d0 f i EventFiringObject.obj
 0001:0000f6e0       ??$?3PA_W@?$Wrapper@PA_W@?$CSimpleMap@PADPA_WVCExpansionVectorEqualHelper@ATL@@@ATL@@SAXPAXPAPA_W@Z 100106e0 f i EventFiringObject.obj
 0001:0000f6f0       ??0CComModule@ATL@@QAE@XZ  100106f0 f i EventFiringObject.obj
 0001:0000f760       ?Lock@CAtlModule@ATL@@UAEJXZ 10010760 f i EventFiringObject.obj
 0001:0000f790       ?Unlock@CAtlModule@ATL@@UAEJXZ 10010790 f i EventFiringObject.obj
 0001:0000f7c0       ?GetGITPtr@CAtlModule@ATL@@UAEJPAPAUIGlobalInterfaceTable@@@Z 100107c0 f i EventFiringObject.obj
 0001:0000f8c0       ?UpdateRegistryFromResourceD@CComModule@ATL@@UAGJPBDHPAU_ATL_REGMAP_ENTRY@2@@Z 100108c0 f i EventFiringObject.obj
 0001:0000f8d0       ?UpdateRegistryFromResourceD@CComModule@ATL@@UAGJIHPAU_ATL_REGMAP_ENTRY@2@@Z 100108d0 f i EventFiringObject.obj
 0001:0000f8e0       ?UpdateRegistryFromResourceS@CComModule@ATL@@UAGJPBDHPAU_ATL_REGMAP_ENTRY@2@@Z 100108e0 f i EventFiringObject.obj
 0001:0000f910       ??_ECComModule@ATL@@UAEPAXI@Z 10010910 f i EventFiringObject.obj
 0001:0000f910       ??_GCComModule@ATL@@UAEPAXI@Z 10010910 f i EventFiringObject.obj
 0001:0000f950       ??1CComModule@ATL@@UAE@XZ  10010950 f i EventFiringObject.obj
 0001:0000f980       ??1?$CAtlModuleT@VCComModule@ATL@@@ATL@@UAE@XZ 10010980 f i EventFiringObject.obj
 0001:0000f9b0       ??1CAtlModule@ATL@@UAE@XZ  100109b0 f i EventFiringObject.obj
 0001:0000fa00       ??1_ATL_MODULE70@ATL@@QAE@XZ 10010a00 f i EventFiringObject.obj
 0001:0000fa30       ?UpdateRegistryFromResourceS@CAtlModule@ATL@@QAGJPBDHPAU_ATL_REGMAP_ENTRY@2@@Z 10010a30 f i EventFiringObject.obj
 0001:00010140       ?ResourceRegisterSz@CRegObject@ATL@@QAGJPB_W00@Z 10011140 f i EventFiringObject.obj
 0001:00010460       ?ResourceUnregisterSz@CRegObject@ATL@@QAGJPB_W00@Z 10011460 f i EventFiringObject.obj
 0001:00010780       ??0?$CAtlModuleT@VCComModule@ATL@@@ATL@@QAE@XZ 10011780 f i EventFiringObject.obj
 0001:000107b0       ??0CAtlModule@ATL@@QAE@XZ  100117b0 f i EventFiringObject.obj
 0001:000108c0       ??0_ATL_MODULE70@ATL@@QAE@XZ 100118c0 f i EventFiringObject.obj
 0001:000108f0       ?AddCommonRGSReplacements@?$CAtlModuleT@VCComModule@ATL@@@ATL@@UAEJPAUIRegistrarBase@@@Z 100118f0 f i EventFiringObject.obj
 0001:00010940       ?InitLibId@?$CAtlModuleT@VCComModule@ATL@@@ATL@@SAXXZ 10011940 f i EventFiringObject.obj
 0001:00010950       ?GetAppId@?$CAtlModuleT@VCComModule@ATL@@@ATL@@SAPB_WXZ 10011950 f i EventFiringObject.obj
 0001:00010960       ?InterfaceSupportsErrorInfo@CEventFiringObject@@UAGJABU_GUID@@@Z 10011960 f   EventFiringObject_Impl.obj
 0001:000109c0       ?TestFunction@CEventFiringObject@@UAGJJ@Z 100119c0 f   EventFiringObject_Impl.obj
 0001:000109e0       ?Fire_Event1@?$CProxy_IEventFiringObjectEvents@VCEventFiringObject@@@@QAEJJ@Z 100119e0 f i EventFiringObject_Impl.obj
 0001:00010c30       ??_ECComVariant@ATL@@QAEPAXI@Z 10011c30 f i EventFiringObject_Impl.obj
 0001:00010cb0       ??0CComVariant@ATL@@QAE@XZ 10011cb0 f i EventFiringObject_Impl.obj
 0001:00010cf0       ??1CComVariant@ATL@@QAE@XZ 10011cf0 f i EventFiringObject_Impl.obj
 0001:00010d20       ??4CComVariant@ATL@@QAEAAV01@J@Z 10011d20 f i EventFiringObject_Impl.obj
 0001:00010d70       ?Clear@CComVariant@ATL@@QAEJXZ 10011d70 f i EventFiringObject_Impl.obj
 0001:00010db0       ?GetSize@CComDynamicUnkArray@ATL@@QBEHXZ 10011db0 f i EventFiringObject_Impl.obj
 0001:00010dd0       ??0Thank_you@Define_the_symbol__ATL_MIXED@@QAE@XZ 10011dd0 f i StdAfx.obj
 0001:00010df0       ?one@Thank_you@Define_the_symbol__ATL_MIXED@@UAEXXZ 10011df0 f i StdAfx.obj
 0001:00010e02       _DisableThreadLibraryCalls@4 10011e02 f   kernel32:KERNEL32.dll
 0001:00010e08       _InitializeCriticalSection@4 10011e08 f   kernel32:KERNEL32.dll
 0001:00010e0e       _InterlockedIncrement@4    10011e0e f   kernel32:KERNEL32.dll
 0001:00010e14       _InterlockedDecrement@4    10011e14 f   kernel32:KERNEL32.dll
 0001:00010e1a       _GetModuleHandleA@4        10011e1a f   kernel32:KERNEL32.dll
 0001:00010e20       _lstrlenA@4                10011e20 f   kernel32:KERNEL32.dll
 0001:00010e26       _GetModuleFileNameA@12     10011e26 f   kernel32:KERNEL32.dll
 0001:00010e2c       _MultiByteToWideChar@24    10011e2c f   kernel32:KERNEL32.dll
 0001:00010e32       _lstrlenW@4                10011e32 f   kernel32:KERNEL32.dll
 0001:00010e38       _GetLastError@0            10011e38 f   kernel32:KERNEL32.dll
 0001:00010e3e       _WideCharToMultiByte@32    10011e3e f   kernel32:KERNEL32.dll
 0001:00010e44       _FreeLibrary@4             10011e44 f   kernel32:KERNEL32.dll
 0001:00010e4a       _SizeofResource@8          10011e4a f   kernel32:KERNEL32.dll
 0001:00010e50       _LoadResource@8            10011e50 f   kernel32:KERNEL32.dll
 0001:00010e56       _FindResourceA@12          10011e56 f   kernel32:KERNEL32.dll
 0001:00010e5c       _LoadLibraryExA@12         10011e5c f   kernel32:KERNEL32.dll
 0001:00010e62       _lstrcmpiA@8               10011e62 f   kernel32:KERNEL32.dll
 0001:00010e68       _IsDBCSLeadByte@4          10011e68 f   kernel32:KERNEL32.dll
 0001:00010e6e       _DeleteCriticalSection@4   10011e6e f   kernel32:KERNEL32.dll
 0001:00010e74       _RaiseException@16         10011e74 f   kernel32:KERNEL32.dll
 0001:00010e7a       _LeaveCriticalSection@4    10011e7a f   kernel32:KERNEL32.dll
 0001:00010e80       _EnterCriticalSection@4    10011e80 f   kernel32:KERNEL32.dll
 0001:00010e86       _CharNextA@4               10011e86 f   user32:USER32.dll
 0001:00010e8c       _UnregisterClassA@8        10011e8c f   user32:USER32.dll
 0001:00010e92       _RegDeleteKeyA@8           10011e92 f   advapi32:ADVAPI32.dll
 0001:00010e98       _RegDeleteValueA@8         10011e98 f   advapi32:ADVAPI32.dll
 0001:00010e9e       _RegCloseKey@4             10011e9e f   advapi32:ADVAPI32.dll
 0001:00010ea4       _RegCreateKeyExA@36        10011ea4 f   advapi32:ADVAPI32.dll
 0001:00010eaa       _RegOpenKeyExA@20          10011eaa f   advapi32:ADVAPI32.dll
 0001:00010eb0       _RegEnumKeyExA@32          10011eb0 f   advapi32:ADVAPI32.dll
 0001:00010eb6       _RegSetValueExA@24         10011eb6 f   advapi32:ADVAPI32.dll
 0001:00010ebc       _RegQueryInfoKeyA@48       10011ebc f   advapi32:ADVAPI32.dll
 0001:00010ec2       _CoTaskMemFree@4           10011ec2 f   ole32:ole32.dll
 0001:00010ec8       _CoTaskMemAlloc@4          10011ec8 f   ole32:ole32.dll
 0001:00010ece       _CoTaskMemRealloc@8        10011ece f   ole32:ole32.dll
 0001:00010ed4       _StringFromGUID2@12        10011ed4 f   ole32:ole32.dll
 0001:00010eda       _CoCreateInstance@20       10011eda f   ole32:ole32.dll
 0001:00010ee0       _VarUI4FromStr@16          10011ee0 f   oleaut32:OLEAUT32.dll
 0001:00010ee6       _SysFreeString@4           10011ee6 f   oleaut32:OLEAUT32.dll
 0001:00010eec       _LoadRegTypeLib@20         10011eec f   oleaut32:OLEAUT32.dll
 0001:00010ef2       _LoadTypeLib@8             10011ef2 f   oleaut32:OLEAUT32.dll
 0001:00010ef8       _SysStringLen@4            10011ef8 f   oleaut32:OLEAUT32.dll
 0001:00010efe       _RegisterTypeLib@12        10011efe f   oleaut32:OLEAUT32.dll
 0001:00010f04       _SysAllocString@4          10011f04 f   oleaut32:OLEAUT32.dll
 0001:00010f0a       _UnRegisterTypeLib@20      10011f0a f   oleaut32:OLEAUT32.dll
 0001:00010f10       _VariantClear@4            10011f10 f   oleaut32:OLEAUT32.dll
 0001:00010f16       _VariantInit@4             10011f16 f   oleaut32:OLEAUT32.dll
 0001:00010f20       ?_AtlGetThreadACPThunk@ATL@@YGIXZ 10011f20 f i atlsd:atltrace.obj
 0001:00010fa0       ?InterlockedExchangePointer@@YGPAXPAPAXPAX@Z 10011fa0 f i atlsd:atltrace.obj
 0001:00010fc0       ?_AtlGetThreadACPFake@ATL@@YGIXZ 10011fc0 f i atlsd:atltrace.obj
 0001:00011050       ?_AtlGetThreadACPReal@ATL@@YGIXZ 10012050 f i atlsd:atltrace.obj
 0001:00011060       ??0CTraceCategory@ATL@@QAE@PBDI@Z 10012060 f i atlsd:atltrace.obj
 0001:000110b0       ?ChangeCategory@CTrace@ATL@@QAE_NKIW4ATLTRACESTATUS@2@@Z 100120b0 f i atlsd:atltrace.obj
 0001:000110e0       ?RegisterCategory@CTrace@ATL@@QAEKPBD@Z 100120e0 f i atlsd:atltrace.obj
 0001:00011100       ??0CAtlAllocator@@QAE@XZ   10012100 f i atlsd:Externs.obj
 0001:00011150       ??0CTraceSnapshot@@QAE@XZ  10012150 f i atlsd:Externs.obj
 0001:00011180       ??0?$CSimpleArray@UCModuleInfo@CTraceSnapshot@@V?$CSimpleArrayEqualHelper@UCModuleInfo@CTraceSnapshot@@@ATL@@@ATL@@QAE@XZ 10012180 f i atlsd:Externs.obj
 0001:000111b0       ??0?$CSimpleArray@KV?$CSimpleArrayEqualHelper@K@ATL@@@ATL@@QAE@XZ 100121b0 f i atlsd:Externs.obj
 0001:00011300       ??0CTrace@ATL@@AAE@P6AHHPBDH00ZZ@Z 10012300 f i atlsd:Externs.obj
 0001:00011340       ??1CAtlAllocator@@QAE@XZ   10012340 f i atlsd:Externs.obj
 0001:00011360       ??1CTraceSnapshot@@QAE@XZ  10012360 f i atlsd:Externs.obj
 0001:00011380       ??1?$CSimpleArray@UCModuleInfo@CTraceSnapshot@@V?$CSimpleArrayEqualHelper@UCModuleInfo@CTraceSnapshot@@@ATL@@@ATL@@QAE@XZ 10012380 f i atlsd:Externs.obj
 0001:000113a0       ??1?$CSimpleArray@KV?$CSimpleArrayEqualHelper@K@ATL@@@ATL@@QAE@XZ 100123a0 f i atlsd:Externs.obj
 0001:000113c0       ?RemoveAll@?$CSimpleArray@UCModuleInfo@CTraceSnapshot@@V?$CSimpleArrayEqualHelper@UCModuleInfo@CTraceSnapshot@@@ATL@@@ATL@@QAEXXZ 100123c0 f i atlsd:Externs.obj
 0001:00011420       ?RemoveAll@?$CSimpleArray@KV?$CSimpleArrayEqualHelper@K@ATL@@@ATL@@QAEXXZ 10012420 f i atlsd:Externs.obj
 0001:00011480       ??1CTrace@ATL@@AAE@XZ      10012480 f i atlsd:Externs.obj
 0001:000114a0       ?NotifyTool@ATL@@YGXXZ     100124a0 f   atlsd:AtlDebugAPI.obj
 0001:000114e0       _AtlTraceRegister@8        100124e0 f   atlsd:AtlDebugAPI.obj
 0001:00011550       _AtlTraceUnregister@4      10012550 f   atlsd:AtlDebugAPI.obj
 0001:00011580       _AtlTraceRegisterCategoryA@8 10012580 f   atlsd:AtlDebugAPI.obj
 0001:000115d0       _AtlTraceRegisterCategoryU@8 100125d0 f   atlsd:AtlDebugAPI.obj
 0001:00011610       _AtlTraceModifyProcess@20  10012610 f   atlsd:AtlDebugAPI.obj
 0001:000116b0       _AtlTraceModifyModule@16   100126b0 f   atlsd:AtlDebugAPI.obj
 0001:00011790       _AtlTraceModifyCategory@16 10012790 f   atlsd:AtlDebugAPI.obj
 0001:00011840       _AtlTraceGetProcess@20     10012840 f   atlsd:AtlDebugAPI.obj
 0001:00011910       _AtlTraceGetModule@16      10012910 f   atlsd:AtlDebugAPI.obj
 0001:00011a20       _AtlTraceGetCategory@16    10012a20 f   atlsd:AtlDebugAPI.obj
 0001:00011b00       _AtlTraceGetUpdateEventNameA@4 10012b00 f   atlsd:AtlDebugAPI.obj
 0001:00011b30       _AtlTraceGetUpdateEventNameA_s@8 10012b30 f   atlsd:AtlDebugAPI.obj
 0001:00011b60       _AtlTraceGetUpdateEventNameU@4 10012b60 f   atlsd:AtlDebugAPI.obj
 0001:00011bb0       _AtlTraceGetUpdateEventNameU_s@8 10012bb0 f   atlsd:AtlDebugAPI.obj
 0001:00011c10       _AtlTraceVA                10012c10 f   atlsd:AtlDebugAPI.obj
 0001:00011f30       _AtlTraceVU                10012f30 f   atlsd:AtlDebugAPI.obj
 0001:00012280       _AtlTraceOpenProcess@4     10013280 f   atlsd:AtlDebugAPI.obj
 0001:00012370       _AtlTraceCloseProcess@4    10013370 f   atlsd:AtlDebugAPI.obj
 0001:00012400       _AtlTraceSnapshotProcess@4 10013400 f   atlsd:AtlDebugAPI.obj
 0001:00012470       _AtlTraceGetProcessInfo@8  10013470 f   atlsd:AtlDebugAPI.obj
 0001:00012610       _AtlTraceGetModuleInfo@12  10013610 f   atlsd:AtlDebugAPI.obj
 0001:000127a0       _AtlTraceGetCategoryInfo@16 100137a0 f   atlsd:AtlDebugAPI.obj
 0001:00012b20       ?GetProcess@CAtlAllocator@@QBEPAVCAtlTraceProcess@@XZ 10013b20 f i atlsd:AtlDebugAPI.obj
 0001:00012b40       ?Name@CAtlTraceCategory@@QBEPB_WXZ 10013b40 f i atlsd:AtlDebugAPI.obj
 0001:00012b60       ??_GCAtlAllocator@@QAEPAXI@Z 10013b60 f i atlsd:AtlDebugAPI.obj
 0001:00012b90       ?Path@CAtlTraceModuleInfo@@QBEPB_WXZ 10013b90 f i atlsd:AtlDebugAPI.obj
 0001:00012bb0       ?Name@CAtlTraceModuleInfo@@QBEPB_WXZ 10013bb0 f i atlsd:AtlDebugAPI.obj
 0001:00012bd0       ?Id@CAtlTraceProcess@@QBEKXZ 10013bd0 f i atlsd:AtlDebugAPI.obj
 0001:00012bf0       ?CrtDbgReport@CAtlTraceModule@@QBEP6AHHPBDH00ZZXZ 10013bf0 f i atlsd:AtlDebugAPI.obj
 0001:00012c10       ?GetSize@?$CSimpleArray@UCModuleInfo@CTraceSnapshot@@V?$CSimpleArrayEqualHelper@UCModuleInfo@CTraceSnapshot@@@ATL@@@ATL@@QBEHXZ 10013c10 f i atlsd:AtlDebugAPI.obj
 0001:00012c30       ??A?$CSimpleArray@UCModuleInfo@CTraceSnapshot@@V?$CSimpleArrayEqualHelper@UCModuleInfo@CTraceSnapshot@@@ATL@@@ATL@@QAEAAUCModuleInfo@CTraceSnapshot@@H@Z 10013c30 f i atlsd:AtlDebugAPI.obj
 0001:00012ca0       ?wcscpy_s@Checked@ATL@@YAXPA_WIPB_W@Z 10013ca0 f i atlsd:AtlDebugAPI.obj
 0001:00012cd0       ??0?$CA2WEX@$0IA@@ATL@@QAE@PBD@Z 10013cd0 f i atlsd:AtlDebugAPI.obj
 0001:00012d00       ??1?$CA2WEX@$0IA@@ATL@@QAE@XZ 10013d00 f i atlsd:AtlDebugAPI.obj
 0001:00012d30       ??B?$CA2WEX@$0IA@@ATL@@QBEPA_WXZ 10013d30 f i atlsd:AtlDebugAPI.obj
 0001:00012d40       ?Init@?$CA2WEX@$0IA@@ATL@@AAEXPBDI@Z 10013d40 f i atlsd:AtlDebugAPI.obj
 0001:00012e40       ?AtlThrowLastWin32@ATL@@YGXXZ 10013e40 f i atlsd:AtlDebugAPI.obj
 0001:00012e90       ??$AtlConvFreeMemory@_W@ATL@@YAXPA_W0H@Z 10013e90 f i atlsd:AtlDebugAPI.obj
 0001:00012ed0       ??$AtlConvAllocMemory@_W@ATL@@YAXPAPA_WHPA_WH@Z 10013ed0 f i atlsd:AtlDebugAPI.obj
 0001:00013050       ??0CAtlBaseModule@ATL@@QAE@XZ 10014050 f   atlsd:atlbase.obj
 0001:000131c0       ??1CAtlBaseModule@ATL@@QAE@XZ 100141c0 f   atlsd:atlbase.obj
 0001:000131e0       ?AddResourceInstance@CAtlBaseModule@ATL@@QAE_NPAUHINSTANCE__@@@Z 100141e0 f   atlsd:atlbase.obj
 0001:00013290       ?RemoveResourceInstance@CAtlBaseModule@ATL@@QAE_NPAUHINSTANCE__@@@Z 10014290 f   atlsd:atlbase.obj
 0001:00013390       ?GetHInstanceAt@CAtlBaseModule@ATL@@QAEPAUHINSTANCE__@@H@Z 10014390 f   atlsd:atlbase.obj
 0001:00013490       ??0_ATL_BASE_MODULE70@ATL@@QAE@XZ 10014490 f i atlsd:atlbase.obj
 0001:000134c0       ??1_ATL_BASE_MODULE70@ATL@@QAE@XZ 100144c0 f i atlsd:atlbase.obj
 0001:000134f0       ??0?$CSimpleArray@PAUHINSTANCE__@@V?$CSimpleArrayEqualHelper@PAUHINSTANCE__@@@ATL@@@ATL@@QAE@XZ 100144f0 f i atlsd:atlbase.obj
 0001:00013520       ?GetSize@?$CSimpleArray@PAUHINSTANCE__@@V?$CSimpleArrayEqualHelper@PAUHINSTANCE__@@@ATL@@@ATL@@QBEHXZ 10014520 f i atlsd:atlbase.obj
 0001:00013540       ?Add@?$CSimpleArray@PAUHINSTANCE__@@V?$CSimpleArrayEqualHelper@PAUHINSTANCE__@@@ATL@@@ATL@@QAEHABQAUHINSTANCE__@@@Z 10014540 f i atlsd:atlbase.obj
 0001:000135f0       ?RemoveAt@?$CSimpleArray@PAUHINSTANCE__@@V?$CSimpleArrayEqualHelper@PAUHINSTANCE__@@@ATL@@@ATL@@QAEHH@Z 100145f0 f i atlsd:atlbase.obj
 0001:000136b0       ??A?$CSimpleArray@PAUHINSTANCE__@@V?$CSimpleArrayEqualHelper@PAUHINSTANCE__@@@ATL@@@ATL@@QAEAAPAUHINSTANCE__@@H@Z 100146b0 f i atlsd:atlbase.obj
 0001:00013720       ?InternalSetAtIndex@?$CSimpleArray@PAUHINSTANCE__@@V?$CSimpleArrayEqualHelper@PAUHINSTANCE__@@@ATL@@@ATL@@QAEXHABQAUHINSTANCE__@@@Z 10014720 f i atlsd:atlbase.obj
 0001:00013770       ??0Wrapper@?$CSimpleArray@PAUHINSTANCE__@@V?$CSimpleArrayEqualHelper@PAUHINSTANCE__@@@ATL@@@ATL@@QAE@ABQAUHINSTANCE__@@@Z 10014770 f i atlsd:atlbase.obj
 0001:00013790       ??1?$CSimpleArray@PAUHINSTANCE__@@V?$CSimpleArrayEqualHelper@PAUHINSTANCE__@@@ATL@@@ATL@@QAE@XZ 10014790 f i atlsd:atlbase.obj
 0001:000137b0       ??$?2PAUHINSTANCE__@@@Wrapper@?$CSimpleArray@PAUHINSTANCE__@@V?$CSimpleArrayEqualHelper@PAUHINSTANCE__@@@ATL@@@ATL@@SAPAXIPAPAUHINSTANCE__@@@Z 100147b0 f i atlsd:atlbase.obj
 0001:000137c0       ?RemoveAll@?$CSimpleArray@PAUHINSTANCE__@@V?$CSimpleArrayEqualHelper@PAUHINSTANCE__@@@ATL@@@ATL@@QAEXXZ 100147c0 f i atlsd:atlbase.obj
 0001:00013820       ?memmove_s@Checked@ATL@@YAXPAXIPBXI@Z 10014820 f i atlsd:atlbase.obj
 0001:00013850       ??0CAtlWinModule@ATL@@QAE@XZ 10014850 f i atlsd:atlbase.obj
 0001:000138c0       ??0_ATL_WIN_MODULE70@ATL@@QAE@XZ 100148c0 f i atlsd:atlbase.obj
 0001:000138f0       ??0?$CSimpleArray@GV?$CSimpleArrayEqualHelper@G@ATL@@@ATL@@QAE@XZ 100148f0 f i atlsd:atlbase.obj
 0001:00013920       ??1CAtlWinModule@ATL@@QAE@XZ 10014920 f i atlsd:atlbase.obj
 0001:00013940       ??1_ATL_WIN_MODULE70@ATL@@QAE@XZ 10014940 f i atlsd:atlbase.obj
 0001:00013970       ??1?$CSimpleArray@GV?$CSimpleArrayEqualHelper@G@ATL@@@ATL@@QAE@XZ 10014970 f i atlsd:atlbase.obj
 0001:00013990       ??0CAtlComModule@ATL@@QAE@XZ 10014990 f i atlsd:atlcommodule.obj
 0001:00013a50       ??0_ATL_COM_MODULE70@ATL@@QAE@XZ 10014a50 f i atlsd:atlcommodule.obj
 0001:00013a70       ??1CAtlComModule@ATL@@QAE@XZ 10014a70 f i atlsd:atlcommodule.obj
 0001:00013a90       ?Term@CAtlComModule@ATL@@QAEXXZ 10014a90 f i atlsd:atlcommodule.obj
 0001:00013b20       ??1_ATL_COM_MODULE70@ATL@@QAE@XZ 10014b20 f i atlsd:atlcommodule.obj
 0001:00013b40       ?AtlAdvise@ATL@@YGJPAUIUnknown@@0ABU_GUID@@PAK@Z 10014b40 f   atlsd:atlfuncs.obj
 0001:00013c00       ?AtlUnadvise@ATL@@YGJPAUIUnknown@@ABU_GUID@@K@Z 10014c00 f   atlsd:atlfuncs.obj
 0001:00013cc0       ?AtlFreeMarshalStream@ATL@@YGJPAUIStream@@@Z 10014cc0 f   atlsd:atlfuncs.obj
 0001:00013d20       ?AtlMarshalPtrInProc@ATL@@YGJPAUIUnknown@@ABU_GUID@@PAPAUIStream@@@Z 10014d20 f   atlsd:atlfuncs.obj
 0001:00013dc0       ?AtlUnmarshalPtr@ATL@@YGJPAUIStream@@ABU_GUID@@PAPAUIUnknown@@@Z 10014dc0 f   atlsd:atlfuncs.obj
 0001:00013e60       ?AtlComModuleGetClassObject@ATL@@YGJPAU_ATL_COM_MODULE70@1@ABU_GUID@@1PAPAX@Z 10014e60 f   atlsd:atlfuncs.obj
 0001:00014030       ?AtlComModuleRegisterClassObjects@ATL@@YGJPAU_ATL_COM_MODULE70@1@KK@Z 10015030 f   atlsd:atlfuncs.obj
 0001:000140c0       ?AtlComModuleRevokeClassObjects@ATL@@YGJPAU_ATL_COM_MODULE70@1@@Z 100150c0 f   atlsd:atlfuncs.obj
 0001:00014150       ?AtlWaitWithMessageLoop@ATL@@YGHPAX@Z 10015150 f   atlsd:atlfuncs.obj
 0001:00014240       ?AtlInternalQueryInterface@ATL@@YGJPAXPBU_ATL_INTMAP_ENTRY@1@ABU_GUID@@PAPAX@Z 10015240 f   atlsd:atlfuncs.obj
 0001:00014410       ?AtlGetVersion@ATL@@YGKPAX@Z 10015410 f   atlsd:atlfuncs.obj
 0001:00014420       ?AtlWinModuleAddCreateWndData@ATL@@YGXPAU_ATL_WIN_MODULE70@1@PAU_AtlCreateWndData@1@PAX@Z 10015420 f   atlsd:atlfuncs.obj
 0001:00014530       ?AtlWinModuleExtractCreateWndData@ATL@@YGPAXPAU_ATL_WIN_MODULE70@1@@Z 10015530 f   atlsd:atlfuncs.obj
 0001:00014650       ?AtlWinModuleInit@ATL@@YGJPAU_ATL_WIN_MODULE70@1@@Z 10015650 f   atlsd:atlfuncs.obj
 0001:000146f0       ?AtlModuleAddTermFunc@ATL@@YGJPAU_ATL_MODULE70@1@P6GXK@ZK@Z 100156f0 f   atlsd:atlfuncs.obj
 0001:00014800       ?AtlCallTermFunc@ATL@@YGXPAU_ATL_MODULE70@1@@Z 10015800 f   atlsd:atlfuncs.obj
 0001:00014870       _CComStdCallThunkHelper@0  10015870 f   atlsd:atlfuncs.obj
 0001:00014880       ??1?$CComPtr@UIConnectionPointContainer@@@ATL@@QAE@XZ 10015880 f i atlsd:atlfuncs.obj
 0001:000148a0       ??1?$CComPtr@UIConnectionPoint@@@ATL@@QAE@XZ 100158a0 f i atlsd:atlfuncs.obj
 0001:000148c0       ??0?$CComPtr@UIConnectionPointContainer@@@ATL@@QAE@XZ 100158c0 f i atlsd:atlfuncs.obj
 0001:000148e0       ??1?$CComPtrBase@UIConnectionPointContainer@@@ATL@@QAE@XZ 100158e0 f i atlsd:atlfuncs.obj
 0001:00014910       ??I?$CComPtrBase@UIConnectionPointContainer@@@ATL@@QAEPAPAUIConnectionPointContainer@@XZ 10015910 f i atlsd:atlfuncs.obj
 0001:00014950       ??C?$CComPtrBase@UIConnectionPointContainer@@@ATL@@QBEPAV?$_NoAddRefReleaseOnCComPtr@UIConnectionPointContainer@@@1@XZ 10015950 f i atlsd:atlfuncs.obj
 0001:00014990       ??0?$CComPtr@UIConnectionPoint@@@ATL@@QAE@XZ 10015990 f i atlsd:atlfuncs.obj
 0001:000149b0       ??1?$CComPtrBase@UIConnectionPoint@@@ATL@@QAE@XZ 100159b0 f i atlsd:atlfuncs.obj
 0001:000149e0       ??I?$CComPtrBase@UIConnectionPoint@@@ATL@@QAEPAPAUIConnectionPoint@@XZ 100159e0 f i atlsd:atlfuncs.obj
 0001:00014a20       ??C?$CComPtrBase@UIConnectionPoint@@@ATL@@QBEPAV?$_NoAddRefReleaseOnCComPtr@UIConnectionPoint@@@1@XZ 10015a20 f i atlsd:atlfuncs.obj
 0001:00014a60       ??0?$CComPtrBase@UIConnectionPointContainer@@@ATL@@IAE@XZ 10015a60 f i atlsd:atlfuncs.obj
 0001:00014a80       ??0?$CComPtrBase@UIConnectionPoint@@@ATL@@IAE@XZ 10015a80 f i atlsd:atlfuncs.obj
 0001:00014aa0       ?RevokeClassObject@_ATL_OBJMAP_ENTRY30@ATL@@QAGJXZ 10015aa0 f i atlsd:atlfuncs.obj
 0001:00014ad0       ?RegisterClassObject@_ATL_OBJMAP_ENTRY30@ATL@@QAGJKK@Z 10015ad0 f i atlsd:atlfuncs.obj
 0001:00014b50       ?Init@CAtlAllocator@@QAE_NPBDK@Z 10015b50 f   atlsd:Allocate.obj
 0001:00014e90       ?Open@CAtlAllocator@@QAE_NPBD@Z 10015e90 f   atlsd:Allocate.obj
 0001:00014fd0       ?Close@CAtlAllocator@@QAEX_N@Z 10015fd0 f   atlsd:Allocate.obj
 0001:00015040       ?GetModule@CAtlAllocator@@QBEPAVCAtlTraceModule@@H@Z 10016040 f   atlsd:Allocate.obj
 0001:000150c0       ?GetCategory@CAtlAllocator@@QBEPAVCAtlTraceCategory@@H@Z 100160c0 f   atlsd:Allocate.obj
 0001:00015160       ?GetCategoryCount@CAtlAllocator@@QBEHH@Z 10016160 f   atlsd:Allocate.obj
 0001:000151d0       ?GetCategoryCount@CAtlAllocator@@QBEHABVCAtlTraceModule@@@Z 100161d0 f   atlsd:Allocate.obj
 0001:00015230       ?GetModuleCount@CAtlAllocator@@QBEHXZ 10016230 f   atlsd:Allocate.obj
 0001:00015270       ?FindModule@CAtlAllocator@@QBE_NPB_WPAI@Z 10016270 f   atlsd:Allocate.obj
 0001:000152e0       ?AddModule@CAtlAllocator@@QAEHPAUHINSTANCE__@@@Z 100162e0 f   atlsd:Allocate.obj
 0001:000154a0       ?AddCategory@CAtlAllocator@@QAEHHPB_W@Z 100164a0 f   atlsd:Allocate.obj
 0001:000156c0       ?RemoveModule@CAtlAllocator@@QAE_NH@Z 100166c0 f   atlsd:Allocate.obj
 0001:00015760       ?CleanUp@CAtlAllocator@@QAEXXZ 10016760 f   atlsd:Allocate.obj
 0001:00015780       ?TakeSnapshot@CAtlAllocator@@QAEXXZ 10016780 f   atlsd:Allocate.obj
 0001:00015940       ?ReleaseSnapshot@CAtlAllocator@@QAEXXZ 10016940 f   atlsd:Allocate.obj
 0001:00015a10       ?IncRef@CAtlTraceProcess@@QAEIXZ 10016a10 f i atlsd:Allocate.obj
 0001:00015a40       ?Base@CAtlTraceProcess@@QBEPAXXZ 10016a40 f i atlsd:Allocate.obj
 0001:00015a60       ?DecRef@CAtlTraceProcess@@QAEIXZ 10016a60 f i atlsd:Allocate.obj
 0001:00015a90       ?ModuleCount@CAtlTraceProcess@@QBEHXZ 10016a90 f i atlsd:Allocate.obj
 0001:00015ab0       ?MaxSize@CAtlTraceProcess@@QBEKXZ 10016ab0 f i atlsd:Allocate.obj
 0001:00015ad0       ?CategoryCount@CAtlTraceProcess@@QBEHXZ 10016ad0 f i atlsd:Allocate.obj
 0001:00015af0       ?TryAllocate@CAtlTraceSettings@@QAE_NXZ 10016af0 f i atlsd:Allocate.obj
 0001:00015b30       ?MarkValid@CAtlTraceSettings@@QAEXJ@Z 10016b30 f i atlsd:Allocate.obj
 0001:00015b70       ?IncModuleCount@CAtlTraceProcess@@QAEXI@Z 10016b70 f i atlsd:Allocate.obj
 0001:00015ba0       ?TryAddRef@CAtlTraceSettings@@QAE_NXZ 10016ba0 f i atlsd:Allocate.obj
 0001:00015be0       ?Release@CAtlTraceSettings@@QAEXXZ 10016be0 f i atlsd:Allocate.obj
 0001:00015c10       ?IncCategoryCount@CAtlTraceProcess@@QAEXI@Z 10016c10 f i atlsd:Allocate.obj
 0001:00015c40       ?Add@?$CSimpleArray@UCModuleInfo@CTraceSnapshot@@V?$CSimpleArrayEqualHelper@UCModuleInfo@CTraceSnapshot@@@ATL@@@ATL@@QAEHABUCModuleInfo@CTraceSnapshot@@@Z 10016c40 f i atlsd:Allocate.obj
 0001:00015cf0       ?GetSize@?$CSimpleArray@KV?$CSimpleArrayEqualHelper@K@ATL@@@ATL@@QBEHXZ 10016cf0 f i atlsd:Allocate.obj
 0001:00015d10       ?Add@?$CSimpleArray@KV?$CSimpleArrayEqualHelper@K@ATL@@@ATL@@QAEHABK@Z 10016d10 f i atlsd:Allocate.obj
 0001:00015dc0       ?RemoveAt@?$CSimpleArray@KV?$CSimpleArrayEqualHelper@K@ATL@@@ATL@@QAEHH@Z 10016dc0 f i atlsd:Allocate.obj
 0001:00015e80       ??A?$CSimpleArray@KV?$CSimpleArrayEqualHelper@K@ATL@@@ATL@@QAEAAKH@Z 10016e80 f i atlsd:Allocate.obj
 0001:00015ef0       ?InternalSetAtIndex@?$CSimpleArray@UCModuleInfo@CTraceSnapshot@@V?$CSimpleArrayEqualHelper@UCModuleInfo@CTraceSnapshot@@@ATL@@@ATL@@QAEXHABUCModuleInfo@CTraceSnapshot@@@Z 10016ef0 f i atlsd:Allocate.obj
 0001:00015f40       ?InternalSetAtIndex@?$CSimpleArray@KV?$CSimpleArrayEqualHelper@K@ATL@@@ATL@@QAEXHABK@Z 10016f40 f i atlsd:Allocate.obj
 0001:00015f90       ??0Wrapper@?$CSimpleArray@UCModuleInfo@CTraceSnapshot@@V?$CSimpleArrayEqualHelper@UCModuleInfo@CTraceSnapshot@@@ATL@@@ATL@@QAE@ABUCModuleInfo@CTraceSnapshot@@@Z 10016f90 f i atlsd:Allocate.obj
 0001:00015fc0       ??0Wrapper@?$CSimpleArray@KV?$CSimpleArrayEqualHelper@K@ATL@@@ATL@@QAE@ABK@Z 10016fc0 f i atlsd:Allocate.obj
 0001:00015fe0       ??$?2UCModuleInfo@CTraceSnapshot@@@Wrapper@?$CSimpleArray@UCModuleInfo@CTraceSnapshot@@V?$CSimpleArrayEqualHelper@UCModuleInfo@CTraceSnapshot@@@ATL@@@ATL@@SAPAXIPAUCModuleInfo@CTraceSnapshot@@@Z 10016fe0 f i atlsd:Allocate.obj
 0001:00015ff0       ??$?2K@Wrapper@?$CSimpleArray@KV?$CSimpleArrayEqualHelper@K@ATL@@@ATL@@SAPAXIPAK@Z 10016ff0 f i atlsd:Allocate.obj
 0001:00016000       ??2@YAPAXIPAX@Z            10017000 f i atlsd:Allocate.obj
 0001:00016010       ??0CAtlTraceModuleInfo@@QAE@XZ 10017010 f   atlsd:AtlTraceModuleManager.obj
 0001:00016060       ?Reset@CAtlTraceModuleInfo@@QAEXPAUHINSTANCE__@@@Z 10017060 f   atlsd:AtlTraceModuleManager.obj
 0001:000162d0       ??0CAtlTraceCategory@@QAE@XZ 100172d0 f   atlsd:AtlTraceModuleManager.obj
 0001:00016300       ?Reset@CAtlTraceCategory@@QAEXPB_WJ@Z 10017300 f   atlsd:AtlTraceModuleManager.obj
 0001:00016350       ??0CAtlTraceModule@@QAE@XZ 10017350 f   atlsd:AtlTraceModuleManager.obj
 0001:00016390       ?CrtDbgReport@CAtlTraceModule@@QAEXP6AHHPBDH00ZZ@Z 10017390 f   atlsd:AtlTraceModuleManager.obj
 0001:000163c0       ??0CAtlTraceProcess@@QAE@K@Z 100173c0 f   atlsd:AtlTraceModuleManager.obj
 0001:00016490       ?GetNextCookie@CAtlTraceProcess@@QAEJXZ 10017490 f   atlsd:AtlTraceModuleManager.obj
 0001:000164b0       ??0CAtlTraceSettings@@QAE@XZ 100174b0 f i atlsd:AtlTraceModuleManager.obj
 0001:000164f0       ??3@YAXPAX@Z               100174f0 f   LIBCMTD:dbgdel.obj
 0001:000165e0       __RTC_CheckEsp             100175e0 f   LIBCMTD:stack.obj
 0001:00016610       @_RTC_CheckStackVars@8     10017610 f   LIBCMTD:stack.obj
 0001:00016670       @_RTC_AllocaHelper@12      10017670 f   LIBCMTD:stack.obj
 0001:000166a0       @_RTC_CheckStackVars2@12   100176a0 f   LIBCMTD:stack.obj
 0001:00016780       __RTC_InitBase             10017780 f   LIBCMTD:init.obj
 0001:000167b0       __RTC_Shutdown             100177b0 f   LIBCMTD:init.obj
 0001:000167d0       ??2@YAPAXI@Z               100177d0 f   LIBCMTD:new.obj
 0001:00016850       ??0bad_alloc@std@@QAE@XZ   10017850 f i LIBCMTD:new.obj
 0001:00016880       ??1bad_alloc@std@@UAE@XZ   10017880 f i LIBCMTD:new.obj
 0001:000168a0       ??_Ebad_alloc@std@@UAEPAXI@Z 100178a0 f i LIBCMTD:new.obj
 0001:000168a0       ??_Gbad_alloc@std@@UAEPAXI@Z 100178a0 f i LIBCMTD:new.obj
 0001:000168d0       ??0bad_alloc@std@@QAE@ABV01@@Z 100178d0 f i LIBCMTD:new.obj
 0001:00016900       __CrtSetReportHookW2       10017900 f   LIBCMTD:dbgrptw.obj
 0001:00016c20       __CrtDbgReportW            10017c20 f   LIBCMTD:dbgrptw.obj
 0001:00016c60       __CrtDbgReportWV           10017c60 f i LIBCMTD:dbgrptw.obj
 0001:00016fa0       __invoke_watson_if_error   10017fa0 f i LIBCMTD:dbgrptw.obj
 0001:00016fd0       __invoke_watson_if_oneof   10017fd0 f i LIBCMTD:dbgrptw.obj
 0001:00017010       ___crtMessageWindowW       10018010 f   LIBCMTD:dbgrptw.obj
 0001:00017410       ?_CrtDbgReportW@@YAHHPBGH00ZZ 10018410 f   LIBCMTD:dbgrptw.obj
 0001:00017450       ?_JumpToContinuation@@YGXPAXPAUEHRegistrationNode@@@Z 10018450 f   LIBCMTD:trnsctrl.obj
 0001:00017490       ?_CallMemberFunction0@@YGXPAX0@Z 10018490 f   LIBCMTD:trnsctrl.obj
 0001:000174a0       ?_CallMemberFunction1@@YGXPAX00@Z 100184a0 f   LIBCMTD:trnsctrl.obj
 0001:000174b0       ?_CallMemberFunction2@@YGXPAX00H@Z 100184b0 f   LIBCMTD:trnsctrl.obj
 0001:000174c0       ?_UnwindNestedFrames@@YGXPAUEHRegistrationNode@@PAUEHExceptionRecord@@@Z 100184c0 f   LIBCMTD:trnsctrl.obj
 0001:00017520       ___CxxFrameHandler         10018520 f   LIBCMTD:trnsctrl.obj
 0001:00017560       ___CxxFrameHandler3        10018560 f   LIBCMTD:trnsctrl.obj
 0001:000175a0       ___CxxFrameHandler2        100185a0 f   LIBCMTD:trnsctrl.obj
 0001:000175e0       ___CxxLongjmpUnwind@4      100185e0 f   LIBCMTD:trnsctrl.obj
 0001:00017610       ?_CallCatchBlock2@@YAPAXPAUEHRegistrationNode@@PBU_s_FuncInfo@@PAXHK@Z 10018610 f   LIBCMTD:trnsctrl.obj
 0001:000176d0       ?_CallSETranslator@@YAHPAUEHExceptionRecord@@PAUEHRegistrationNode@@PAX2PBU_s_FuncInfo@@H1@Z 100186d0 f   LIBCMTD:trnsctrl.obj
 0001:00017870       ?_GetRangeOfTrysToCheck@@YAPBU_s_TryBlockMapEntry@@PBU_s_FuncInfo@@HHPAI1@Z 10018870 f   LIBCMTD:trnsctrl.obj
 0001:00017900       __CreateFrameInfo          10018900 f   LIBCMTD:trnsctrl.obj
 0001:00017930       __IsExceptionObjectToBeDestroyed 10018930 f   LIBCMTD:trnsctrl.obj
 0001:00017960       __FindAndUnlinkFrame       10018960 f   LIBCMTD:trnsctrl.obj
 0001:000179c0       @__security_check_cookie@4 100189c0 f   LIBCMTD:secchk.obj
 0001:000179d0       ?name@type_info@@QBEPBDPAU__type_info_node@@@Z 100189d0 f   LIBCMTD:typinfo.obj
 0001:000179f0       ??1type_info@@UAE@XZ       100189f0 f   LIBCMTD:typinfo.obj
 0001:00017a10       ??_Gtype_info@@UAEPAXI@Z   10018a10 f i LIBCMTD:typinfo.obj
 0001:00017a10       ??_Etype_info@@UAEPAXI@Z   10018a10 f i LIBCMTD:typinfo.obj
 0001:00017a40       ?_name_internal_method@type_info@@QBEPBDPAU__type_info_node@@@Z 10018a40 f   LIBCMTD:typinfo.obj
 0001:00017a60       ?_type_info_dtor_internal_method@type_info@@QAEXXZ 10018a60 f   LIBCMTD:typinfo.obj
 0001:00017a80       ??8type_info@@QBE_NABV0@@Z 10018a80 f   LIBCMTD:typinfo.obj
 0001:00017ab0       ??9type_info@@QBE_NABV0@@Z 10018ab0 f   LIBCMTD:typinfo.obj
 0001:00017ae0       ?before@type_info@@QBEHABV1@@Z 10018ae0 f   LIBCMTD:typinfo.obj
 0001:00017b10       ?raw_name@type_info@@QBEPBDXZ 10018b10 f   LIBCMTD:typinfo.obj
 0001:00017b30       ??0type_info@@AAE@ABV0@@Z  10018b30 f   LIBCMTD:typinfo.obj
 0001:00017b50       ??4type_info@@AAEAAV0@ABV0@@Z 10018b50 f   LIBCMTD:typinfo.obj
 0001:00017b60       __purecall                 10018b60 f   LIBCMTD:purevirt.obj
 0001:00017ba0       __set_purecall_handler     10018ba0 f   LIBCMTD:purevirt.obj
 0001:00017be0       __get_purecall_handler     10018be0 f   LIBCMTD:purevirt.obj
 0001:00017c00       __alloca_probe_16          10018c00 f   LIBCMTD:alloca16.obj
 0001:00017c16       __alloca_probe_8           10018c16     LIBCMTD:alloca16.obj
 0001:00017c30       ??_U@YAPAXI@Z              10018c30 f   LIBCMTD:new2.obj
 0001:00017c50       ??_V@YAXPAX@Z              10018c50 f   LIBCMTD:delete2.obj
 0001:00017c70       __resetstkoflw             10018c70 f   LIBCMTD:resetstk.obj
 0001:00017e20       __except_handler4          10018e20 f   LIBCMTD:chandler4.obj
 0001:00018040       __CxxThrowException@8      10019040 f   LIBCMTD:throw.obj
 0001:000180a0       _memset                    100190a0 f   LIBCMTD:memset.obj
 0001:00018120       __allmul                   10019120 f   LIBCMTD:llmul.obj
 0001:00018160       _memcpy_s                  10019160 f   LIBCMTD:memcpy_s.obj
 0001:000182f0       __alloca_probe             100192f0     LIBCMTD:chkstk.obj
 0001:000182f0       __chkstk                   100192f0 f   LIBCMTD:chkstk.obj
 0001:00018320       __mbsnbcpy_s               10019320 f   LIBCMTD:mbsnbcpy_s.obj
 0001:00018340       _memcmp                    10019340 f   LIBCMTD:memcmp.obj
 0001:00018db0       _strcpy_s                  10019db0 f   LIBCMTD:strcpy_s.obj
 0001:00019090       _strcat_s                  1001a090 f   LIBCMTD:strcat_s.obj
 0001:00019470       ??_M@YGXPAXIHP6EX0@Z@Z     1001a470 f   LIBCMTD:ehvecdtr.obj
 0001:00019520       ?__ArrayUnwind@@YGXPAXIHP6EX0@Z@Z 1001a520 f   LIBCMTD:ehvecdtr.obj
 0001:000195e0       ??_L@YGXPAXIHP6EX0@Z1@Z    1001a5e0 f   LIBCMTD:ehvecctr.obj
 0001:00019690       _malloc                    1001a690 f   LIBCMTD:dbgheap.obj
 0001:000196c0       __malloc_dbg               1001a6c0 f   LIBCMTD:dbgheap.obj
 0001:000196f0       __nh_malloc                1001a6f0 f   LIBCMTD:dbgheap.obj
 0001:00019710       __nh_malloc_dbg            1001a710 f   LIBCMTD:dbgheap.obj
 0001:00019780       __heap_alloc               1001a780 f   LIBCMTD:dbgheap.obj
 0001:000197a0       __heap_alloc_dbg           1001a7a0 f   LIBCMTD:dbgheap.obj
 0001:00019b40       _calloc                    1001ab40 f   LIBCMTD:dbgheap.obj
 0001:00019b70       __calloc_dbg               1001ab70 f   LIBCMTD:dbgheap.obj
 0001:00019c30       _realloc                   1001ac30 f   LIBCMTD:dbgheap.obj
 0001:00019c60       __recalloc                 1001ac60 f   LIBCMTD:dbgheap.obj
 0001:00019d00       __realloc_dbg              1001ad00 f   LIBCMTD:dbgheap.obj
 0001:0001a2d0       __recalloc_dbg             1001b2d0 f   LIBCMTD:dbgheap.obj
 0001:0001a380       __expand                   1001b380 f   LIBCMTD:dbgheap.obj
 0001:0001a3b0       __expand_dbg               1001b3b0 f   LIBCMTD:dbgheap.obj
 0001:0001a4c0       _free                      1001b4c0 f   LIBCMTD:dbgheap.obj
 0001:0001a4e0       __free_nolock              1001b4e0 f   LIBCMTD:dbgheap.obj
 0001:0001a500       __free_dbg                 1001b500 f   LIBCMTD:dbgheap.obj
 0001:0001a580       __free_dbg_nolock          1001b580 f   LIBCMTD:dbgheap.obj
 0001:0001a9b0       __msize                    1001b9b0 f   LIBCMTD:dbgheap.obj
 0001:0001a9d0       __msize_dbg                1001b9d0 f   LIBCMTD:dbgheap.obj
 0001:0001abc0       __CrtSetBreakAlloc         1001bbc0 f   LIBCMTD:dbgheap.obj
 0001:0001abe0       __CrtSetDbgBlockType       1001bbe0 f   LIBCMTD:dbgheap.obj
 0001:0001acd0       __CrtSetAllocHook          1001bcd0 f   LIBCMTD:dbgheap.obj
 0001:0001acf0       __CrtGetAllocHook          1001bcf0 f   LIBCMTD:dbgheap.obj
 0001:0001ad50       __CrtCheckMemory           1001bd50 f   LIBCMTD:dbgheap.obj
 0001:0001b0d0       __CrtSetDbgFlag            1001c0d0 f   LIBCMTD:dbgheap.obj
 0001:0001b220       __CrtDoForAllClientObjects 1001c220 f   LIBCMTD:dbgheap.obj
 0001:0001b340       __CrtIsValidPointer        1001c340 f   LIBCMTD:dbgheap.obj
 0001:0001b350       __CrtIsValidHeapPointer    1001c350 f   LIBCMTD:dbgheap.obj
 0001:0001b440       __CrtIsMemoryBlock         1001c440 f   LIBCMTD:dbgheap.obj
 0001:0001b5b0       __CrtReportBlockType       1001c5b0 f   LIBCMTD:dbgheap.obj
 0001:0001b5e0       __CrtSetDumpClient         1001c5e0 f   LIBCMTD:dbgheap.obj
 0001:0001b600       __CrtGetDumpClient         1001c600 f   LIBCMTD:dbgheap.obj
 0001:0001b610       __CrtMemCheckpoint         1001c610 f   LIBCMTD:dbgheap.obj
 0001:0001b7f0       __CrtMemDifference         1001c7f0 f   LIBCMTD:dbgheap.obj
 0001:0001ba10       __CrtMemDumpAllObjectsSince 1001ca10 f   LIBCMTD:dbgheap.obj
 0001:0001ba50       ??0_LocaleUpdate@@QAE@PAUlocaleinfo_struct@@@Z 1001ca50 f i LIBCMTD:dbgheap.obj
 0001:0001bb30       ??1_LocaleUpdate@@QAE@XZ   1001cb30 f i LIBCMTD:dbgheap.obj
 0001:0001bb60       ?GetLocaleT@_LocaleUpdate@@QAEPAUlocaleinfo_struct@@XZ 1001cb60 f i LIBCMTD:dbgheap.obj
 0001:0001c020       __CrtDumpMemoryLeaks       1001d020 f   LIBCMTD:dbgheap.obj
 0001:0001c090       __CrtMemDumpStatistics     1001d090 f   LIBCMTD:dbgheap.obj
 0001:0001c1a0       __aligned_malloc           1001d1a0 f   LIBCMTD:dbgheap.obj
 0001:0001c1c0       __aligned_malloc_dbg       1001d1c0 f   LIBCMTD:dbgheap.obj
 0001:0001c1e0       __aligned_realloc          1001d1e0 f   LIBCMTD:dbgheap.obj
 0001:0001c200       __aligned_recalloc         1001d200 f   LIBCMTD:dbgheap.obj
 0001:0001c230       __aligned_realloc_dbg      1001d230 f   LIBCMTD:dbgheap.obj
 0001:0001c260       __aligned_recalloc_dbg     1001d260 f   LIBCMTD:dbgheap.obj
 0001:0001c290       __aligned_offset_malloc    1001d290 f   LIBCMTD:dbgheap.obj
 0001:0001c2b0       __aligned_offset_malloc_dbg 1001d2b0 f   LIBCMTD:dbgheap.obj
 0001:0001c450       __aligned_offset_realloc   1001d450 f   LIBCMTD:dbgheap.obj
 0001:0001c480       __aligned_offset_recalloc  1001d480 f   LIBCMTD:dbgheap.obj
 0001:0001c4b0       __aligned_offset_realloc_dbg 1001d4b0 f   LIBCMTD:dbgheap.obj
 0001:0001c780       __aligned_offset_recalloc_dbg 1001d780 f   LIBCMTD:dbgheap.obj
 0001:0001c830       __aligned_free             1001d830 f   LIBCMTD:dbgheap.obj
 0001:0001c850       __aligned_free_dbg         1001d850 f   LIBCMTD:dbgheap.obj
 0001:0001c900       __CrtSetDebugFillThreshold 1001d900 f   LIBCMTD:dbgheap.obj
 0001:0001c920       __CrtSetCheckCount         1001d920 f   LIBCMTD:dbgheap.obj
 0001:0001c940       __CrtGetCheckCount         1001d940 f   LIBCMTD:dbgheap.obj
 0001:0001c950       _wcsncpy_s                 1001d950 f   LIBCMTD:wcsncpy_s.obj
 0001:0001cd50       __onexit                   1001dd50 f   LIBCMTD:onexit.obj
 0001:0001cf20       _atexit                    1001df20 f   LIBCMTD:onexit.obj
 0001:0001cf40       ___onexitinit              1001df40 f   LIBCMTD:onexit.obj
 0001:0001cfa0       __CRT_INIT@12              1001dfa0 f   LIBCMTD:dllcrt0.obj
 0001:0001d280       __set_osplatform           1001e280 f i LIBCMTD:dllcrt0.obj
 0001:0001d290       __set_osver                1001e290 f i LIBCMTD:dllcrt0.obj
 0001:0001d2a0       __set_winver               1001e2a0 f i LIBCMTD:dllcrt0.obj
 0001:0001d2b0       __set_winmajor             1001e2b0 f i LIBCMTD:dllcrt0.obj
 0001:0001d2c0       __set_winminor             1001e2c0 f i LIBCMTD:dllcrt0.obj
 0001:0001d2d0       __DllMainCRTStartup@12     1001e2d0 f   LIBCMTD:dllcrt0.obj
 0001:0001d4b0       _sprintf                   1001e4b0 f   LIBCMTD:sprintf.obj
 0001:0001d630       __sprintf_l                1001e630 f   LIBCMTD:sprintf.obj
 0001:0001d660       _sprintf_s                 1001e660 f   LIBCMTD:sprintf.obj
 0001:0001d690       __sprintf_s_l              1001e690 f   LIBCMTD:sprintf.obj
 0001:0001d6c0       __snprintf_s               1001e6c0 f   LIBCMTD:sprintf.obj
 0001:0001d6f0       __snprintf_s_l             1001e6f0 f   LIBCMTD:sprintf.obj
 0001:0001d720       __sprintf_p                1001e720 f   LIBCMTD:sprintf.obj
 0001:0001d750       __sprintf_p_l              1001e750 f   LIBCMTD:sprintf.obj
 0001:0001d780       __scprintf                 1001e780 f   LIBCMTD:sprintf.obj
 0001:0001d7a0       __scprintf_p               1001e7a0 f   LIBCMTD:sprintf.obj
 0001:0001d7c0       __scprintf_l               1001e7c0 f   LIBCMTD:sprintf.obj
 0001:0001d7f0       __scprintf_p_l             1001e7f0 f   LIBCMTD:sprintf.obj
 0001:0001d820       __dosmaperr                1001e820 f   LIBCMTD:dosmap.obj
 0001:0001d850       __get_errno_from_oserr     1001e850 f   LIBCMTD:dosmap.obj
 0001:0001d8d0       __set_errno                1001e8d0 f   LIBCMTD:dosmap.obj
 0001:0001d900       __get_errno                1001e900 f   LIBCMTD:dosmap.obj
 0001:0001d980       __set_doserrno             1001e980 f   LIBCMTD:dosmap.obj
 0001:0001d9b0       __get_doserrno             1001e9b0 f   LIBCMTD:dosmap.obj
 0001:0001da30       __errno                    1001ea30 f   LIBCMTD:dosmap.obj
 0001:0001da60       ___doserrno                1001ea60 f   LIBCMTD:dosmap.obj
 0001:0001da90       __CrtSetReportHook2        1001ea90 f   LIBCMTD:dbgrpt.obj
 0001:0001ddb0       __CrtDbgReport             1001edb0 f   LIBCMTD:dbgrpt.obj
 0001:0001ddf0       __CrtDbgReportV            1001edf0 f i LIBCMTD:dbgrpt.obj
 0001:0001de20       ___crtMessageWindowA       1001ee20 f   LIBCMTD:dbgrpt.obj
 0001:0001e220       _strcpy                    1001f220 f   LIBCMTD:strcat.obj
 0001:0001e230       _strcat                    1001f230 f   LIBCMTD:strcat.obj
 0001:0001e320       _wcscat                    1001f320 f   LIBCMTD:wcscat.obj
 0001:0001e370       _wcscpy                    1001f370 f   LIBCMTD:wcscat.obj
 0001:0001e3b0       __vsnprintf_helper         1001f3b0 f   LIBCMTD:vsnprnc.obj
 0001:0001e580       __vsnprintf_c              1001f580 f   LIBCMTD:vsnprnc.obj
 0001:0001e5d0       __vsnprintf_c_l            1001f5d0 f   LIBCMTD:vsnprnc.obj
 0001:0001e620       __vsprintf_s_l             1001f620 f   LIBCMTD:vsnprnc.obj
 0001:0001e880       _vsprintf_s                1001f880 f   LIBCMTD:vsnprnc.obj
 0001:0001e8a0       __vsnprintf_s_l            1001f8a0 f   LIBCMTD:vsnprnc.obj
 0001:0001ec40       __vsnprintf_s              1001fc40 f   LIBCMTD:vsnprnc.obj
 0001:0001ec70       __vsprintf_p               1001fc70 f   LIBCMTD:vsnprnc.obj
 0001:0001ecc0       __vsprintf_p_l             1001fcc0 f   LIBCMTD:vsnprnc.obj
 0001:0001ed10       __vswprintf_helper         1001fd10 f   LIBCMTD:vswprnc.obj
 0001:0001ef40       __vswprintf_c              1001ff40 f   LIBCMTD:vswprnc.obj
 0001:0001ef90       __vswprintf_c_l            1001ff90 f   LIBCMTD:vswprnc.obj
 0001:0001efe0       __vswprintf_s_l            1001ffe0 f   LIBCMTD:vswprnc.obj
 0001:0001f250       _vswprintf_s               10020250 f   LIBCMTD:vswprnc.obj
 0001:0001f270       __vsnwprintf_s_l           10020270 f   LIBCMTD:vswprnc.obj
 0001:0001f620       __vsnwprintf_s             10020620 f   LIBCMTD:vswprnc.obj
 0001:0001f650       __vswprintf_p              10020650 f   LIBCMTD:vswprnc.obj
 0001:0001f6a0       __vswprintf_p_l            100206a0 f   LIBCMTD:vswprnc.obj
 0001:0001f6f0       __swprintf                 100206f0 f   LIBCMTD:swprintf.obj
 0001:0001f8b0       ___swprintf_l              100208b0 f   LIBCMTD:swprintf.obj
 0001:0001f8e0       _swprintf_s                100208e0 f   LIBCMTD:swprintf.obj
 0001:0001f910       __snwprintf_s              10020910 f   LIBCMTD:swprintf.obj
 0001:0001f940       __swprintf_p               10020940 f   LIBCMTD:swprintf.obj
 0001:0001f970       __swprintf_s_l             10020970 f   LIBCMTD:swprintf.obj
 0001:0001f9a0       __snwprintf_s_l            100209a0 f   LIBCMTD:swprintf.obj
 0001:0001f9d0       __swprintf_p_l             100209d0 f   LIBCMTD:swprintf.obj
 0001:0001fa00       __scwprintf                10020a00 f   LIBCMTD:swprintf.obj
 0001:0001fa20       __scwprintf_p              10020a20 f   LIBCMTD:swprintf.obj
 0001:0001fa40       __scwprintf_l              10020a40 f   LIBCMTD:swprintf.obj
 0001:0001fa70       __scwprintf_p_l            10020a70 f   LIBCMTD:swprintf.obj
 0001:0001faa0       _wcscpy_s                  10020aa0 f   LIBCMTD:wcscpy_s.obj
 0001:0001fd80       _memmove_s                 10020d80 f   LIBCMTD:memmove_s.obj
 0001:0001fee0       __wcsicmp_l                10020ee0 f   LIBCMTD:wcsicmp.obj
 0001:00020110       __wcsicmp                  10021110 f   LIBCMTD:wcsicmp.obj
 0001:000202b0       _wcslen                    100212b0 f   LIBCMTD:wcslen.obj
 0001:000202e0       __mtinitlocks              100212e0 f   LIBCMTD:mlock.obj
 0001:00020370       __mtdeletelocks            10021370 f   LIBCMTD:mlock.obj
 0001:00020430       __mtinitlocknum            10021430 f   LIBCMTD:mlock.obj
 0001:00020580       __lock                     10021580 f   LIBCMTD:mlock.obj
 0001:000205c0       __unlock                   100215c0 f   LIBCMTD:mlock.obj
 0001:000205e0       __lockerr_exit             100215e0 f   LIBCMTD:mlock.obj
 0001:00020600       _DebuggerKnownHandle       10021600 f   LIBCMTD:error.obj
 0001:000206a0       ?_RTC_Failure@@YAXPAXH@Z   100216a0 f   LIBCMTD:error.obj
 0001:000209d0       ?_RTC_StackFailure@@YAXPAXPBD@Z 100219d0 f   LIBCMTD:error.obj
 0001:00020af0       ?_RTC_AllocaFailure@@YAXPAXPAU_RTC_ALLOCA_NODE@@H@Z 10021af0 f   LIBCMTD:error.obj
 0001:00020cb0       __RTC_UninitUse            10021cb0 f   LIBCMTD:error.obj
 0001:00020dc0       __RTC_NumErrors            10021dc0 f   LIBCMTD:userapi.obj
 0001:00020dd0       __RTC_GetErrDesc           10021dd0 f   LIBCMTD:userapi.obj
 0001:00020df0       __RTC_SetErrorType         10021df0 f   LIBCMTD:userapi.obj
 0001:00020e20       __RTC_SetErrorFunc         10021e20 f   LIBCMTD:userapi.obj
 0001:00020e40       __RTC_SetErrorFuncW        10021e40 f   LIBCMTD:userapi.obj
 0001:00020e60       ?_RTC_GetErrorFunc@@YAP6AHHPBDH00ZZPBX@Z 10021e60 f   LIBCMTD:userapi.obj
 0001:00020e70       ?_RTC_GetErrorFuncW@@YAP6AHHPB_WH00ZZPBX@Z 10021e70 f   LIBCMTD:userapi.obj
 0001:00020e80       __chkesp                   10021e80 f   LIBCMTD:chkesp.obj
 0001:00020ec0       __CRT_RTC_INIT             10021ec0 f   LIBCMTD:chkesp.obj
 0001:00020ed0       __CRT_RTC_INITW            10021ed0 f   LIBCMTD:chkesp.obj
 0001:00020ee0       __initp_heap_handler       10021ee0 f   LIBCMTD:handler.obj
 0001:00020ef0       ?_set_new_handler@@YAP6AHI@ZP6AHI@Z@Z 10021ef0 f   LIBCMTD:handler.obj
 0001:00020f40       ?_set_new_handler@@YAP6AHI@ZH@Z 10021f40 f   LIBCMTD:handler.obj
 0001:00020f80       ?_query_new_handler@@YAP6AHI@ZXZ 10021f80 f   LIBCMTD:handler.obj
 0001:00020fa0       __callnewh                 10021fa0 f   LIBCMTD:handler.obj
 0001:00020fe0       ??0exception@std@@QAE@XZ   10021fe0 f   LIBCMTD:stdexcpt.obj
 0001:00021010       ??_Eexception@std@@UAEPAXI@Z 10022010 f i LIBCMTD:stdexcpt.obj
 0001:00021010       ??_Gexception@std@@UAEPAXI@Z 10022010 f i LIBCMTD:stdexcpt.obj
 0001:00021040       ??0exception@std@@QAE@ABQBD@Z 10022040 f   LIBCMTD:stdexcpt.obj
 0001:000210d0       ??0exception@std@@QAE@ABQBDH@Z 100220d0 f   LIBCMTD:stdexcpt.obj
 0001:00021100       ??0exception@std@@QAE@ABV01@@Z 10022100 f   LIBCMTD:stdexcpt.obj
 0001:000211a0       ??4exception@std@@QAEAAV01@ABV01@@Z 100221a0 f   LIBCMTD:stdexcpt.obj
 0001:00021240       ??1exception@std@@UAE@XZ   10022240 f   LIBCMTD:stdexcpt.obj
 0001:00021270       ?what@exception@std@@UBEPBDXZ 10022270 f   LIBCMTD:stdexcpt.obj
 0001:000212a0       ??0bad_cast@std@@QAE@PBD@Z 100222a0 f   LIBCMTD:stdexcpt.obj
 0001:000212d0       ??_Ebad_cast@std@@UAEPAXI@Z 100222d0 f i LIBCMTD:stdexcpt.obj
 0001:000212d0       ??_Gbad_cast@std@@UAEPAXI@Z 100222d0 f i LIBCMTD:stdexcpt.obj
 0001:00021300       ??0bad_cast@std@@QAE@ABV01@@Z 10022300 f   LIBCMTD:stdexcpt.obj
 0001:00021330       ??1bad_cast@std@@UAE@XZ    10022330 f   LIBCMTD:stdexcpt.obj
 0001:00021350       ??0bad_typeid@std@@QAE@PBD@Z 10022350 f   LIBCMTD:stdexcpt.obj
 0001:00021380       ??_Gbad_typeid@std@@UAEPAXI@Z 10022380 f i LIBCMTD:stdexcpt.obj
 0001:00021380       ??_Ebad_typeid@std@@UAEPAXI@Z 10022380 f i LIBCMTD:stdexcpt.obj
 0001:000213b0       ??0bad_typeid@std@@QAE@ABV01@@Z 100223b0 f   LIBCMTD:stdexcpt.obj
 0001:000213e0       ??1bad_typeid@std@@UAE@XZ  100223e0 f   LIBCMTD:stdexcpt.obj
 0001:00021400       ??0__non_rtti_object@std@@QAE@PBD@Z 10022400 f   LIBCMTD:stdexcpt.obj
 0001:00021430       ??_G__non_rtti_object@std@@UAEPAXI@Z 10022430 f i LIBCMTD:stdexcpt.obj
 0001:00021430       ??_E__non_rtti_object@std@@UAEPAXI@Z 10022430 f i LIBCMTD:stdexcpt.obj
 0001:00021460       ??0__non_rtti_object@std@@QAE@ABV01@@Z 10022460 f   LIBCMTD:stdexcpt.obj
 0001:00021490       ??1__non_rtti_object@std@@UAE@XZ 10022490 f   LIBCMTD:stdexcpt.obj
 0001:000214b0       __CrtDbgBreak              100224b0 f   LIBCMTD:dbgrptt.obj
 0001:000214c0       __CrtSetReportMode         100224c0 f   LIBCMTD:dbgrptt.obj
 0001:00021600       __CrtSetReportFile         10022600 f   LIBCMTD:dbgrptt.obj
 0001:000216f0       __CrtSetReportHook         100226f0 f   LIBCMTD:dbgrptt.obj
 0001:00021710       __CrtGetReportHook         10022710 f   LIBCMTD:dbgrptt.obj
 0001:00021720       __VCrtDbgReportA           10022720 f   LIBCMTD:dbgrptt.obj
 0001:00021f30       __VCrtDbgReportW           10022f30 f   LIBCMTD:dbgrptt.obj
 0001:00022840       __initp_misc_invarg        10023840 f   LIBCMTD:invarg.obj
 0001:00022850       __invalid_parameter        10023850 f   LIBCMTD:invarg.obj
 0001:000228c0       __invoke_watson            100238c0 f   LIBCMTD:invarg.obj
 0001:00022a00       __set_invalid_parameter_handler 10023a00 f   LIBCMTD:invarg.obj
 0001:00022a40       __get_invalid_parameter_handler 10023a40 f   LIBCMTD:invarg.obj
 0001:00022a70       ?_invalid_parameter@@YAXPBG00II@Z 10023a70 f   LIBCMTD:invarg.obj
 0001:00022aa0       ?_invoke_watson@@YAXPBG00II@Z 10023aa0 f   LIBCMTD:invarg.obj
 0001:00022ad0       __wcstombs_l_helper        10023ad0 f   LIBCMTD:wcstombs.obj
 0001:00023020       __wcstombs_l               10024020 f   LIBCMTD:wcstombs.obj
 0001:00023040       _wcstombs                  10024040 f   LIBCMTD:wcstombs.obj
 0001:00023060       __wcstombs_s_l             10024060 f   LIBCMTD:wcstombs.obj
 0001:00023320       _wcstombs_s                10024320 f   LIBCMTD:wcstombs.obj
 0001:00023350       __cinit                    10024350 f   LIBCMTD:crt0dat.obj
 0001:000233f0       _exit                      100243f0 f   LIBCMTD:crt0dat.obj
 0001:00023410       __exit                     10024410 f   LIBCMTD:crt0dat.obj
 0001:00023430       __cexit                    10024430 f   LIBCMTD:crt0dat.obj
 0001:00023450       __c_exit                   10024450 f   LIBCMTD:crt0dat.obj
 0001:00023470       __amsg_exit                10024470 f   LIBCMTD:crt0dat.obj
 0001:000234b0       ___freeCrtMemory           100244b0 f   LIBCMTD:crt0dat.obj
 0001:00023750       ___crtCorExitProcess       10024750 f   LIBCMTD:crt0dat.obj
 0001:00023790       ___crtExitProcess          10024790 f   LIBCMTD:crt0dat.obj
 0001:000237b0       __lockexit                 100247b0 f   LIBCMTD:crt0dat.obj
 0001:000237c0       __unlockexit               100247c0 f   LIBCMTD:crt0dat.obj
 0001:000237d0       __init_pointers            100247d0 f   LIBCMTD:crt0dat.obj
 0001:00023890       __initterm_e               10024890 f   LIBCMTD:crt0dat.obj
 0001:000238d0       __get_osplatform           100248d0 f   LIBCMTD:crt0dat.obj
 0001:000239c0       __get_osver                100249c0 f   LIBCMTD:crt0dat.obj
 0001:00023ab0       __get_winver               10024ab0 f   LIBCMTD:crt0dat.obj
 0001:00023ba0       __get_winmajor             10024ba0 f   LIBCMTD:crt0dat.obj
 0001:00023c90       __get_winminor             10024c90 f   LIBCMTD:crt0dat.obj
 0001:00023d80       __get_wpgmptr              10024d80 f   LIBCMTD:crt0dat.obj
 0001:00023e70       __get_pgmptr               10024e70 f   LIBCMTD:crt0dat.obj
 0001:00023f60       __initp_misc_winsig        10024f60 f   LIBCMTD:winsig.obj
 0001:00023f90       _signal                    10024f90 f   LIBCMTD:winsig.obj
 0001:00024430       _raise                     10025430 f   LIBCMTD:winsig.obj
 0001:000247a0       ___get_sigabrt             100257a0 f   LIBCMTD:winsig.obj
 0001:000247c0       ___fpecode                 100257c0 f   LIBCMTD:winsig.obj
 0001:000247d0       ___pxcptinfoptrs           100257d0 f   LIBCMTD:winsig.obj
 0001:000247e0       ___crtMessageBoxW          100257e0 f   LIBCMTD:crtmboxw.obj
 0001:00024a40       ___InternalCxxFrameHandler 10025a40 f   LIBCMTD:frame.obj
 0001:00025030       ??0bad_exception@std@@QAE@PBD@Z 10026030 f i LIBCMTD:frame.obj
 0001:00025060       ??1bad_exception@std@@UAE@XZ 10026060 f i LIBCMTD:frame.obj
 0001:00025080       ??_Gbad_exception@std@@UAEPAXI@Z 10026080 f i LIBCMTD:frame.obj
 0001:00025080       ??_Ebad_exception@std@@UAEPAXI@Z 10026080 f i LIBCMTD:frame.obj
 0001:000250b0       ??0bad_exception@std@@QAE@ABV01@@Z 100260b0 f i LIBCMTD:frame.obj
 0001:00025260       ___TypeMatch               10026260 f   LIBCMTD:frame.obj
 0001:00025310       ___FrameUnwindFilter       10026310 f   LIBCMTD:frame.obj
 0001:00025380       ___FrameUnwindToState      10026380 f   LIBCMTD:frame.obj
 0001:000258c0       ___BuildCatchObjectHelper  100268c0 f   LIBCMTD:frame.obj
 0001:00025b30       ___BuildCatchObject        10026b30 f   LIBCMTD:frame.obj
 0001:00025c40       ___DestructExceptionObject 10026c40 f   LIBCMTD:frame.obj
 0001:00025cf0       ___AdjustPointer           10026cf0 f   LIBCMTD:frame.obj
 0001:00025d40       ?__uncaught_exception@@YA_NXZ 10026d40 f   LIBCMTD:frame.obj
 0001:00025d60       ___CxxExceptionFilter      10026d60 f   LIBCMTD:frame.obj
 0001:00025f50       ___CxxRegisterExceptionObject 10026f50 f   LIBCMTD:frame.obj
 0001:00026080       ___CxxDetectRethrow        10027080 f   LIBCMTD:frame.obj
 0001:00026100       ___CxxUnregisterExceptionObject 10027100 f   LIBCMTD:frame.obj
 0001:00026280       ___CxxQueryExceptionSize   10027280 f   LIBCMTD:frame.obj
 0001:00026290       ___CxxCallUnwindDtor       10027290 f   LIBCMTD:frame.obj
 0001:00026310       ___CxxCallUnwindDelDtor    10027310 f   LIBCMTD:frame.obj
 0001:00026390       ___CxxCallUnwindStdDelDtor 10027390 f   LIBCMTD:frame.obj
 0001:00026410       ___CxxCallUnwindVecDtor    10027410 f   LIBCMTD:frame.obj
 0001:00026630       ?_is_exception_typeof@@YAHABVtype_info@@PAU_EXCEPTION_POINTERS@@@Z 10027630 f   LIBCMTD:frame.obj
 0001:00026710       __CallSettingFrame@12      10027710 f   LIBCMTD:lowhelpr.obj
 0001:00026737       __NLG_Return               10027737     LIBCMTD:lowhelpr.obj
 0001:00026760       __encode_pointer           10027760 f   LIBCMTD:tidtable.obj
 0001:000267f0       __encoded_null             100277f0 f   LIBCMTD:tidtable.obj
 0001:00026800       __decode_pointer           10027800 f   LIBCMTD:tidtable.obj
 0001:00026890       ___crtTlsAlloc@4           10027890 f   LIBCMTD:tidtable.obj
 0001:000268a0       ___fls_getvalue@4          100278a0 f   LIBCMTD:tidtable.obj
 0001:000268c0       ___get_flsindex            100278c0 f   LIBCMTD:tidtable.obj
 0001:000268d0       ___set_flsgetvalue         100278d0 f   LIBCMTD:tidtable.obj
 0001:00026910       ___fls_setvalue@8          10027910 f   LIBCMTD:tidtable.obj
 0001:00026930       __mtinit                   10027930 f   LIBCMTD:tidtable.obj
 0001:00026b40       __mtterm                   10027b40 f   LIBCMTD:tidtable.obj
 0001:00026ba0       __initptd                  10027ba0 f   LIBCMTD:tidtable.obj
 0001:00026cd0       __getptd_noexit            10027cd0 f   LIBCMTD:tidtable.obj
 0001:00026d90       __getptd                   10027d90 f   LIBCMTD:tidtable.obj
 0001:00026dc0       __freefls@4                10027dc0 f   LIBCMTD:tidtable.obj
 0001:00026fb0       __freeptd                  10027fb0 f   LIBCMTD:tidtable.obj
 0001:00027030       ___threadid                10028030 f   LIBCMTD:tidtable.obj
 0001:00027040       ___threadhandle            10028040 f   LIBCMTD:tidtable.obj
 0001:00027050       __initp_eh_hooks           10028050 f   LIBCMTD:hooks.obj
 0001:00027070       ?terminate@@YAXXZ          10028070 f   LIBCMTD:hooks.obj
 0001:000270f0       ?unexpected@@YAXXZ         100280f0 f   LIBCMTD:hooks.obj
 0001:00027120       ?_inconsistency@@YAXXZ     10028120 f   LIBCMTD:hooks.obj
 0001:000271b0       ___report_gsfailure        100281b0 f   LIBCMTD:gs_report.obj
 0001:000272c0       ?_Type_info_dtor@type_info@@CAXPAV1@@Z 100282c0 f   LIBCMTD:typname.obj
 0001:000273d0       ?_Name_base@type_info@@CAPBDPBV1@PAU__type_info_node@@@Z 100283d0 f   LIBCMTD:typname.obj
 0001:00027570       ?_Type_info_dtor_internal@type_info@@CAXPAV1@@Z 10028570 f   LIBCMTD:typname.obj
 0001:00027680       ___unDNameHelper           10028680 f   LIBCMTD:typname.obj
 0001:000276c0       ?_Name_base_internal@type_info@@CAPBDPBV1@PAU__type_info_node@@@Z 100286c0 f   LIBCMTD:typname.obj
 0001:00027860       ___clean_type_info_names_internal 10028860 f   LIBCMTD:typname.obj
 0001:00027910       _strcmp                    10028910 f   LIBCMTD:strcmp.obj
 0001:000279a0       _abort                     100289a0 f   LIBCMTD:abort.obj
 0001:00027ae0       __set_abort_behavior       10028ae0 f   LIBCMTD:abort.obj
 0001:00027b10       __FF_MSGBANNER             10028b10 f   LIBCMTD:crt0msg.obj
 0001:00027b60       __NMSG_WRITE               10028b60 f   LIBCMTD:crt0msg.obj
 0001:00027df0       __GET_RTERRMSG             10028df0 f   LIBCMTD:crt0msg.obj
 0001:00027e30       ___getlocaleinfo           10028e30 f   LIBCMTD:inithelp.obj
 0001:000280d0       __initp_misc_purevirt      100290d0 f   LIBCMTD:inithelp.obj
 0001:000280e0       __local_unwind4            100290e0 f   LIBCMTD:exsup4.obj
 0001:000281b6       __seh_longjmp_unwind4@4    100291b6 f   LIBCMTD:exsup4.obj
 0001:000281d2       @_EH4_CallFilterFunc@8     100291d2 f   LIBCMTD:exsup4.obj
 0001:000281e9       @_EH4_TransferToHandler@8  100291e9 f   LIBCMTD:exsup4.obj
 0001:00028202       @_EH4_GlobalUnwind@4       10029202 f   LIBCMTD:exsup4.obj
 0001:0002821c       @_EH4_LocalUnwind@16       1002921c f   LIBCMTD:exsup4.obj
 0001:00028240       __ValidateImageBase        10029240 f   LIBCMTD:pesect.obj
 0001:000282a0       __FindPESection            100292a0 f   LIBCMTD:pesect.obj
 0001:00028320       __IsNonwritableInCurrentImage 10029320 f   LIBCMTD:pesect.obj
 0001:00028430       ?__CxxUnhandledExceptionFilter@@YGJPAU_EXCEPTION_POINTERS@@@Z 10029430 f   LIBCMTD:unhandld.obj
 0001:000284e0       ?__CxxSetUnhandledExceptionFilter@@YAHXZ 100294e0 f   LIBCMTD:unhandld.obj
 0001:00028510       ?__CxxRestoreUnhandledExceptionFilter@@YAXXZ 10029510 f   LIBCMTD:unhandld.obj
 0001:00028550       __VEC_memzero              10029550 f   LIBCMTD:p4_memset.obj
 0001:00028640       __sse2_mathfcns_init       10029640 f   LIBCMTD:mathfcns.obj
 0001:00028660       __set_SSE2_enable          10029660 f   LIBCMTD:mathfcns.obj
 0001:00028680       _memcpy                    10029680 f   LIBCMTD:memcpy.obj
 0001:000289f0       __mbsnbcpy_s_l             100299f0 f   LIBCMTD:mbsnbcpy_s_l.obj
 0001:00029070       _V6_HeapAlloc              1002a070 f   LIBCMTD:malloc.obj
 0001:00029100       __malloc_base              1002a100 f   LIBCMTD:malloc.obj
 0001:00029190       __heap_alloc_base          1002a190 f i LIBCMTD:malloc.obj
 0001:00029250       __CrtDefaultAllocHook      1002a250 f   LIBCMTD:dbghook.obj
 0001:00029260       __crt_debugger_hook        1002a260 f   LIBCMTD:dbghook.obj
 0001:00029270       __expand_base              1002a270 f   LIBCMTD:expand.obj
 0001:00029440       __realloc_base             1002a440 f   LIBCMTD:realloc.obj
 0001:000297e0       __recalloc_base            1002a7e0 f   LIBCMTD:realloc.obj
 0001:00029880       __free_base                1002a880 f   LIBCMTD:free.obj
 0001:000299a0       __heapchk                  1002a9a0 f   LIBCMTD:heapchk.obj
 0001:00029a70       __heapset                  1002aa70 f   LIBCMTD:heapchk.obj
 0001:00029a80       ___heap_select             1002aa80 f   LIBCMTD:heapinit.obj
 0001:00029b10       __heap_init                1002ab10 f   LIBCMTD:heapinit.obj
 0001:00029b90       __heap_term                1002ab90 f   LIBCMTD:heapinit.obj
 0001:00029c30       __get_heap_handle          1002ac30 f   LIBCMTD:heapinit.obj
 0001:00029c70       __get_sbh_threshold        1002ac70 f   LIBCMTD:sbheap.obj
 0001:00029cc0       __set_sbh_threshold        1002acc0 f   LIBCMTD:sbheap.obj
 0001:00029e50       __set_amblksiz             1002ae50 f   LIBCMTD:sbheap.obj
 0001:00029f50       __get_amblksiz             1002af50 f   LIBCMTD:sbheap.obj
 0001:0002a040       ___sbh_heap_init           1002b040 f   LIBCMTD:sbheap.obj
 0001:0002a0b0       ___sbh_find_block          1002b0b0 f   LIBCMTD:sbheap.obj
 0001:0002a110       ___sbh_verify_block        1002b110 f   LIBCMTD:sbheap.obj
 0001:0002a170       ___sbh_free_block          1002b170 f   LIBCMTD:sbheap.obj
 0001:0002a730       ___sbh_alloc_block         1002b730 f   LIBCMTD:sbheap.obj
 0001:0002ac50       ___sbh_alloc_new_region    1002bc50 f   LIBCMTD:sbheap.obj
 0001:0002ad60       ___sbh_alloc_new_group     1002bd60 f   LIBCMTD:sbheap.obj
 0001:0002af50       ___sbh_resize_block        1002bf50 f   LIBCMTD:sbheap.obj
 0001:0002b520       ___sbh_heapmin             1002c520 f   LIBCMTD:sbheap.obj
 0001:0002b650       ___sbh_heap_check          1002c650 f   LIBCMTD:sbheap.obj
 0001:0002bb40       ___updatetmbcinfo          1002cb40 f   LIBCMTD:mbctype.obj
 0001:0002bc50       __setmbcp                  1002cc50 f   LIBCMTD:mbctype.obj
 0001:0002bff0       __setmbcp_nolock           1002cff0 f   LIBCMTD:mbctype.obj
 0001:0002c7b0       __getmbcp                  1002d7b0 f   LIBCMTD:mbctype.obj
 0001:0002c820       ___initmbctable            1002d820 f   LIBCMTD:mbctype.obj
 0001:0002c850       ____setlc_active_func      1002d850 f   LIBCMTD:setlocal.obj
 0001:0002c860       ____unguarded_readlc_active_add_func 1002d860 f   LIBCMTD:setlocal.obj
 0001:0002c870       ___freetlocinfo            1002d870 f   LIBCMTD:setlocal.obj
 0001:0002cb50       ___addlocaleref            1002db50 f   LIBCMTD:setlocal.obj
 0001:0002cc70       ___removelocaleref         1002dc70 f   LIBCMTD:setlocal.obj
 0001:0002cda0       ___updatetlocinfo          1002dda0 f   LIBCMTD:setlocal.obj
 0001:0002cef0       __configthreadlocale       1002def0 f   LIBCMTD:setlocal.obj
 0001:0002d000       __locterm                  1002e000 f   LIBCMTD:setlocal.obj
 0001:0002d090       __free_locale              1002e090 f   LIBCMTD:setlocal.obj
 0001:0002d1a0       ___free_locale             1002e1a0 f   LIBCMTD:setlocal.obj
 0001:0002d1c0       __create_locale            1002e1c0 f   LIBCMTD:setlocal.obj
 0001:0002d3e0       ___create_locale           1002e3e0 f   LIBCMTD:setlocal.obj
 0001:0002d400       __get_current_locale       1002e400 f   LIBCMTD:setlocal.obj
 0001:0002d4f0       ___get_current_locale      1002e4f0 f   LIBCMTD:setlocal.obj
 0001:0002d500       _setlocale                 1002e500 f   LIBCMTD:setlocal.obj
 0001:0002e410       __expandlocale             1002f410 f   LIBCMTD:setlocal.obj
 0001:0002e6c0       ___init_dummy              1002f6c0 f   LIBCMTD:setlocal.obj
 0001:0002e6d0       __strcats                  1002f6d0 f   LIBCMTD:setlocal.obj
 0001:0002e750       ___lc_strtolc              1002f750 f   LIBCMTD:setlocal.obj
 0001:0002e950       ___lc_lctostr              1002f950 f   LIBCMTD:setlocal.obj
 0001:0002e9e0       __chvalidator              1002f9e0 f   LIBCMTD:isctype.obj
 0001:0002ea30       __chvalidator_l            1002fa30 f   LIBCMTD:isctype.obj
 0001:0002eae0       __isctype_l                1002fae0 f   LIBCMTD:isctype.obj
 0001:0002ebf0       __isctype                  1002fbf0 f   LIBCMTD:isctype.obj
 0001:0002ec30       __ioinit                   1002fc30 f   LIBCMTD:ioinit.obj
 0001:0002f0b0       __ioterm                   100300b0 f   LIBCMTD:ioinit.obj
 0001:0002f150       __setenvp                  10030150 f   LIBCMTD:stdenvp.obj
 0001:0002f2f0       __setargv                  100302f0 f   LIBCMTD:stdargv.obj
 0001:0002f410       __set_pgmptr               10030410 f i LIBCMTD:stdargv.obj
 0001:0002f780       ___crtGetEnvironmentStringsA 10030780 f   LIBCMTD:a_env.obj
 0001:0002f9a0       __RTC_Initialize           100309a0 f   LIBCMTD:initsect.obj
 0001:0002f9d0       __RTC_Terminate            100309d0 f   LIBCMTD:initsect.obj
 0001:0002fa00       ___security_init_cookie    10030a00 f   LIBCMTD:gs_support.obj
 0001:0002fb20       __initp_misc_winxfltr      10030b20 f   LIBCMTD:winxfltr.obj
 0001:0002fb30       ___CppXcptFilter           10030b30 f   LIBCMTD:winxfltr.obj
 0001:0002fb60       __XcptFilter               10030b60 f   LIBCMTD:winxfltr.obj
 0001:0002fda0       __flsbuf                   10030da0 f   LIBCMTD:_flsbuf.obj
 0001:00030060       __output_l                 10031060 f   LIBCMTD:output.obj
 0001:000314d0       _get_int_arg               100324d0 f i LIBCMTD:output.obj
 0001:000314f0       _get_int64_arg             100324f0 f i LIBCMTD:output.obj
 0001:00031510       _get_short_arg             10032510 f i LIBCMTD:output.obj
 0001:00031530       __vsprintf_l               10032530 f   LIBCMTD:vsprintf.obj
 0001:000316a0       _vsprintf                  100326a0 f   LIBCMTD:vsprintf.obj
 0001:000316c0       __vscprintf_helper         100326c0 f   LIBCMTD:vsprintf.obj
 0001:00031780       __vscprintf                10032780 f   LIBCMTD:vsprintf.obj
 0001:000317a0       __vscprintf_l              100327a0 f   LIBCMTD:vsprintf.obj
 0001:000317c0       __vscprintf_p              100327c0 f   LIBCMTD:vsprintf.obj
 0001:000317e0       __vscprintf_p_l            100327e0 f   LIBCMTD:vsprintf.obj
 0001:00031800       ___crtMessageBoxA          10032800 f   LIBCMTD:crtmbox.obj
 0001:00031a60       _strlen                    10032a60 f   LIBCMTD:strlen.obj
 0001:00031af0       __output_s_l               10032af0 f   LIBCMTD:outputs.obj
 0001:000330a0       __validate_param_reuseA    100340a0 f   LIBCMTD:outputp.obj
 0001:00033310       __output_p_l               10034310 f   LIBCMTD:outputp.obj
 0001:00036ef0       _get_crtdouble_arg         10037ef0 f i LIBCMTD:outputp.obj
 0001:00036f10       __woutput_l                10037f10 f   LIBCMTD:woutput.obj
 0001:000380e0       __woutput_s_l              100390e0 f   LIBCMTD:woutputs.obj
 0001:000393e0       __validate_param_reuseW    1003a3e0 f   LIBCMTD:woutputp.obj
 0001:00039650       __woutput_p_l              1003a650 f   LIBCMTD:woutputp.obj
 0001:0003cd80       __vswprintf_l              1003dd80 f   LIBCMTD:vswprint.obj
 0001:0003cf50       __vswprintf                1003df50 f   LIBCMTD:vswprint.obj
 0001:0003cf70       ___vswprintf_l             1003df70 f   LIBCMTD:vswprint.obj
 0001:0003cf90       __vscwprintf_helper        1003df90 f   LIBCMTD:vswprint.obj
 0001:0003d050       __vscwprintf               1003e050 f   LIBCMTD:vswprint.obj
 0001:0003d070       __vscwprintf_l             1003e070 f   LIBCMTD:vswprint.obj
 0001:0003d090       __vscwprintf_p             1003e090 f   LIBCMTD:vswprint.obj
 0001:0003d0b0       __vscwprintf_p_l           1003e0b0 f   LIBCMTD:vswprint.obj
 0001:0003d0d0       _memmove                   1003e0d0 f   LIBCMTD:memmove.obj
 0001:0003d440       __towlower_l               1003e440 f   LIBCMTD:towlower.obj
 0001:0003d5a0       _towlower                  1003e5a0 f   LIBCMTD:towlower.obj
 0001:0003d5c0       __initp_misc_initcrit      1003e5c0 f   LIBCMTD:initcrit.obj
 0001:0003d5d0       ___crtInitCritSecAndSpinCount 1003e5d0 f   LIBCMTD:initcrit.obj
 0001:0003d740       ?_RTC_GetSrcLine@@YAHPAEPA_WKPAH1K@Z 1003e740 f   LIBCMTD:pdblkup.obj
 0001:0003dbd0       __mbstowcs_l_helper        1003ebd0 f   LIBCMTD:mbstowcs.obj
 0001:0003df80       __mbstowcs_l               1003ef80 f   LIBCMTD:mbstowcs.obj
 0001:0003dfa0       _mbstowcs                  1003efa0 f   LIBCMTD:mbstowcs.obj
 0001:0003dff0       __mbstowcs_s_l             1003eff0 f   LIBCMTD:mbstowcs.obj
 0001:0003e2f0       _mbstowcs_s                1003f2f0 f   LIBCMTD:mbstowcs.obj
 0001:0003e320       __itoa_s                   1003f320 f   LIBCMTD:xtoas.obj
 0001:0003e6e0       __ltoa_s                   1003f6e0 f   LIBCMTD:xtoas.obj
 0001:0003e720       __ultoa_s                  1003f720 f   LIBCMTD:xtoas.obj
 0001:0003e740       __i64toa_s                 1003f740 f   LIBCMTD:xtoas.obj
 0001:0003eb40       __ui64toa_s                1003fb40 f   LIBCMTD:xtoas.obj
 0001:0003eb60       _wcscat_s                  1003fb60 f   LIBCMTD:wcscat_s.obj
 0001:0003ef50       __itow_s                   1003ff50 f   LIBCMTD:xtows.obj
 0001:0003f330       __ltow_s                   10040330 f   LIBCMTD:xtows.obj
 0001:0003f370       __ultow_s                  10040370 f   LIBCMTD:xtows.obj
 0001:0003f390       __i64tow_s                 10040390 f   LIBCMTD:xtows.obj
 0001:0003f7a0       __ui64tow_s                100407a0 f   LIBCMTD:xtows.obj
 0001:0003f7c0       __initp_misc_cfltcvt_tab   100407c0 f   LIBCMTD:cmiscdat.obj
 0001:0003f800       __initp_misc_rand_s        10040800 f   LIBCMTD:rand_s.obj
 0001:0003f810       _rand_s                    10040810 f   LIBCMTD:rand_s.obj
 0001:0003fa30       ?_ValidateRead@@YAHPBXI@Z  10040a30 f   LIBCMTD:validate.obj
 0001:0003fa50       ?_ValidateWrite@@YAHPAXI@Z 10040a50 f   LIBCMTD:validate.obj
 0001:0003fa70       ?_ValidateExecute@@YAHP6GHXZ@Z 10040a70 f   LIBCMTD:validate.obj
 0001:0003fa90       __global_unwind2           10040a90 f   LIBCMTD:exsup.obj
 0001:0003faf5       __local_unwind2            10040af5 f   LIBCMTD:exsup.obj
 0001:0003fb79       __abnormal_termination     10040b79 f   LIBCMTD:exsup.obj
 0001:0003fb9c       __NLG_Notify1              10040b9c f   LIBCMTD:exsup.obj
 0001:0003fba5       __NLG_Notify               10040ba5 f   LIBCMTD:exsup.obj
 0001:0003fbbc       __NLG_Dispatch             10040bbc     LIBCMTD:exsup.obj
 0001:0003fbbc       __NLG_Dispatch2            10040bbc     LIBCMTD:exsup.obj
 0001:0003fbc4       __NLG_Call                 10040bc4 f   LIBCMTD:exsup.obj
 0001:0003fbc6       __NLG_Return2              10040bc6     LIBCMTD:exsup.obj
 0001:0003fbd0       ___unDName                 10040bd0 f   LIBCMTD:undname.obj
 0001:0003fcb0       ?Constructor@HeapManager@@QAEXP6APAXI@ZP6AXPAX@Z@Z 10040cb0 f i LIBCMTD:undname.obj
 0001:0003fcf0       ?Destructor@HeapManager@@QAEXXZ 10040cf0 f i LIBCMTD:undname.obj
 0001:0003fd40       ___unDNameEx               10040d40 f   LIBCMTD:undname.obj
 0001:0003fe20       ??0UnDecorator@@QAE@PADPBDHP6APADJ@ZK@Z 10040e20 f i LIBCMTD:undname.obj
 0001:0003fec0       ??BUnDecorator@@QAEPADXZ   10040ec0 f i LIBCMTD:undname.obj
 0001:000400f0       ?dbGetString@DName@@QBEPADXZ 100410f0 f   LIBCMTD:undname.obj
 0001:00040110       ?getDecoratedName@UnDecorator@@CA?AVDName@@XZ 10041110 f   LIBCMTD:undname.obj
 0001:00040420       ?getSymbolName@UnDecorator@@CA?AVDName@@XZ 10041420 f i LIBCMTD:undname.obj
 0001:00040490       ?getZName@UnDecorator@@CA?AVDName@@_N@Z 10041490 f   LIBCMTD:undname.obj
 0001:00040700       ?getOperatorName@UnDecorator@@CA?AVDName@@_NPA_N@Z 10041700 f i LIBCMTD:undname.obj
 0001:00041010       ?getStringEncoding@UnDecorator@@CA?AVDName@@PADH@Z 10042010 f   LIBCMTD:undname.obj
 0001:00041110       ?getScope@UnDecorator@@CA?AVDName@@XZ 10042110 f   LIBCMTD:undname.obj
 0001:000414f0       ?getSignedDimension@UnDecorator@@CA?AVDName@@XZ 100424f0 f   LIBCMTD:undname.obj
 0001:00041570       ?getDimension@UnDecorator@@CA?AVDName@@_N@Z 10042570 f   LIBCMTD:undname.obj
 0001:00041820       ?getNumberOfDimensions@UnDecorator@@CAHXZ 10042820 f   LIBCMTD:undname.obj
 0001:00041920       ?getTemplateName@UnDecorator@@CA?AVDName@@_N@Z 10042920 f   LIBCMTD:undname.obj
 0001:00041b00       ?getTemplateArgumentList@UnDecorator@@CA?AVDName@@XZ 10042b00 f   LIBCMTD:undname.obj
 0001:00041d80       ?getTemplateConstant@UnDecorator@@CA?AVDName@@XZ 10042d80 f   LIBCMTD:undname.obj
 0001:00042210       ?composeDeclaration@UnDecorator@@CA?AVDName@@ABV2@@Z 10043210 f i LIBCMTD:undname.obj
 0001:00043810       ?getTypeEncoding@UnDecorator@@CAHXZ 10044810 f i LIBCMTD:undname.obj
 0001:000441a0       ?getBasedType@UnDecorator@@CA?AVDName@@XZ 100451a0 f   LIBCMTD:undname.obj
 0001:00044260       ?getScopedName@UnDecorator@@CA?AVDName@@XZ 10045260 f   LIBCMTD:undname.obj
 0001:00044380       ?getCallingConvention@UnDecorator@@CA?AVDName@@XZ 10045380 f   LIBCMTD:undname.obj
 0001:000444e0       ?getReturnType@UnDecorator@@CA?AVDName@@PAV2@@Z 100454e0 f   LIBCMTD:undname.obj
 0001:00044530       ?getDataType@UnDecorator@@CA?AVDName@@PAV2@@Z 10045530 f   LIBCMTD:undname.obj
 0001:00044640       ?getPrimaryDataType@UnDecorator@@CA?AVDName@@ABV2@@Z 10045640 f   LIBCMTD:undname.obj
 0001:000448e0       ?getArgumentTypes@UnDecorator@@CA?AVDName@@XZ 100458e0 f   LIBCMTD:undname.obj
 0001:00044a40       ?getArgumentList@UnDecorator@@CA?AVDName@@XZ 10045a40 f   LIBCMTD:undname.obj
 0001:00044b70       ?getThrowTypes@UnDecorator@@CA?AVDName@@XZ 10045b70 f   LIBCMTD:undname.obj
 0001:00044c20       ?getBasicDataType@UnDecorator@@CA?AVDName@@ABV2@@Z 10045c20 f   LIBCMTD:undname.obj
 0001:00045170       ?getECSUDataType@UnDecorator@@CA?AVDName@@XZ 10046170 f   LIBCMTD:undname.obj
 0001:00045340       ?getECSUName@UnDecorator@@CA?AVDName@@XZ 10046340 f i LIBCMTD:undname.obj
 0001:00045360       ?getEnumType@UnDecorator@@CA?AVDName@@XZ 10046360 f i LIBCMTD:undname.obj
 0001:000454b0       ?getFunctionIndirectType@UnDecorator@@CA?AVDName@@ABV2@@Z 100464b0 f   LIBCMTD:undname.obj
 0001:000458f0       ?getPtrRefType@UnDecorator@@CA?AVDName@@ABV2@0D@Z 100468f0 f   LIBCMTD:undname.obj
 0001:00045a50       ?getExtendedDataIndirectType@UnDecorator@@CA?AVDName@@AADAA_NH@Z 10046a50 f   LIBCMTD:undname.obj
 0001:00045be0       ?getDataIndirectType@UnDecorator@@CA?AVDName@@ABV2@D0H@Z 10046be0 f   LIBCMTD:undname.obj
 0001:000462d0       ?getPtrRefDataType@UnDecorator@@CA?AVDName@@ABV2@H@Z 100472d0 f i LIBCMTD:undname.obj
 0001:00046410       ?getArrayType@UnDecorator@@CA?AVDName@@ABV2@@Z 10047410 f i LIBCMTD:undname.obj
 0001:00046630       ?getLexicalFrame@UnDecorator@@CA?AVDName@@XZ 10047630 f i LIBCMTD:undname.obj
 0001:00046670       ?getThisType@UnDecorator@@CA?AVDName@@XZ 10047670 f i LIBCMTD:undname.obj
 0001:000466a0       ?getPointerType@UnDecorator@@CA?AVDName@@ABV2@0@Z 100476a0 f i LIBCMTD:undname.obj
 0001:000466c0       ?getPointerTypeArray@UnDecorator@@CA?AVDName@@ABV2@0@Z 100476c0 f i LIBCMTD:undname.obj
 0001:000466e0       ?getReferenceType@UnDecorator@@CA?AVDName@@ABV2@0@Z 100476e0 f i LIBCMTD:undname.obj
 0001:00046700       ?getDisplacement@UnDecorator@@CA?AVDName@@XZ 10047700 f i LIBCMTD:undname.obj
 0001:00046720       ?getCallIndex@UnDecorator@@CA?AVDName@@XZ 10047720 f i LIBCMTD:undname.obj
 0001:00046740       ?getGuardNumber@UnDecorator@@CA?AVDName@@XZ 10047740 f i LIBCMTD:undname.obj
 0001:00046760       ?getVbTableType@UnDecorator@@CA?AVDName@@ABV2@@Z 10047760 f i LIBCMTD:undname.obj
 0001:00046780       ?getVCallThunkType@UnDecorator@@CA?AVDName@@XZ 10047780 f i LIBCMTD:undname.obj
 0001:000467e0       ?getVfTableType@UnDecorator@@CA?AVDName@@ABV2@@Z 100477e0 f i LIBCMTD:undname.obj
 0001:000469a0       ?getStorageConvention@UnDecorator@@CA?AVDName@@XZ 100479a0 f i LIBCMTD:undname.obj
 0001:000469c0       ?getDataIndirectType@UnDecorator@@CA?AVDName@@XZ 100479c0 f i LIBCMTD:undname.obj
 0001:000469f0       ?getVdispMapType@UnDecorator@@CA?AVDName@@ABV2@@Z 100479f0 f i LIBCMTD:undname.obj
 0001:00046a60       ?getExternalDataType@UnDecorator@@CA?AVDName@@ABV2@@Z 10047a60 f i LIBCMTD:undname.obj
 0001:00046af0       ?doMSKeywords@UnDecorator@@SAHXZ 10047af0 f i LIBCMTD:undname.obj
 0001:00046b10       ?doPtr64@UnDecorator@@SAHXZ 10047b10 f i LIBCMTD:undname.obj
 0001:00046b30       ?doFunctionReturns@UnDecorator@@SAHXZ 10047b30 f i LIBCMTD:undname.obj
 0001:00046b50       ?doAllocationModel@UnDecorator@@SAHXZ 10047b50 f i LIBCMTD:undname.obj
 0001:00046b70       ?doAllocationLanguage@UnDecorator@@SAHXZ 10047b70 f i LIBCMTD:undname.obj
 0001:00046b90       ?doThisTypes@UnDecorator@@SAHXZ 10047b90 f i LIBCMTD:undname.obj
 0001:00046bb0       ?doAccessSpecifiers@UnDecorator@@SAHXZ 10047bb0 f i LIBCMTD:undname.obj
 0001:00046bd0       ?doThrowTypes@UnDecorator@@SAHXZ 10047bd0 f i LIBCMTD:undname.obj
 0001:00046bf0       ?doMemberTypes@UnDecorator@@SAHXZ 10047bf0 f i LIBCMTD:undname.obj
 0001:00046c10       ?doNameOnly@UnDecorator@@SAHXZ 10047c10 f i LIBCMTD:undname.obj
 0001:00046c20       ?doTypeOnly@UnDecorator@@SAHXZ 10047c20 f i LIBCMTD:undname.obj
 0001:00046c30       ?haveTemplateParameters@UnDecorator@@SAHXZ 10047c30 f i LIBCMTD:undname.obj
 0001:00046c40       ?doEcsu@UnDecorator@@SAHXZ 10047c40 f i LIBCMTD:undname.obj
 0001:00046c60       ?doEllipsis@UnDecorator@@SAHXZ 10047c60 f i LIBCMTD:undname.obj
 0001:00046c80       ?UScore@UnDecorator@@SAPBDW4Tokens@@@Z 10047c80 f   LIBCMTD:undname.obj
 0001:00046cb0       ?doUnderScore@UnDecorator@@SAHXZ 10047cb0 f i LIBCMTD:undname.obj
 0001:00046cd0       ??2@YAPAXIAAVHeapManager@@H@Z 10047cd0 f i LIBCMTD:undname.obj
 0001:00046cf0       ?getMemory@HeapManager@@QAEPAXIH@Z 10047cf0 f   LIBCMTD:undname.obj
 0001:00046e00       ??0Block@HeapManager@@QAE@XZ 10047e00 f i LIBCMTD:undname.obj
 0001:00046e20       ??H@YA?AVDName@@DABV0@@Z   10047e20 f i LIBCMTD:undname.obj
 0001:00046e50       ??H@YA?AVDName@@W4DNameStatus@@ABV0@@Z 10047e50 f i LIBCMTD:undname.obj
 0001:00046e80       ??H@YA?AVDName@@PBDABV0@@Z 10047e80 f i LIBCMTD:undname.obj
 0001:00046eb0       ??0DName@@QAE@XZ           10047eb0 f i LIBCMTD:undname.obj
 0001:00046f60       ??0DName@@QAE@D@Z          10047f60 f   LIBCMTD:undname.obj
 0001:00047030       ??0DName@@QAE@ABV0@@Z      10048030 f i LIBCMTD:undname.obj
 0001:00047190       ??0DName@@QAE@PAV0@@Z      10048190 f   LIBCMTD:undname.obj
 0001:000472b0       ??0DName@@QAE@PBD@Z        100482b0 f   LIBCMTD:undname.obj
 0001:00047380       ??0DName@@QAE@AAPBDD@Z     10048380 f   LIBCMTD:undname.obj
 0001:00047630       ?doNoIdentCharCheck@UnDecorator@@SAHXZ 10048630 f i LIBCMTD:undname.obj
 0001:00047640       ??0DName@@QAE@_K@Z         10048640 f   LIBCMTD:undname.obj
 0001:00047770       ??0DName@@QAE@_J@Z         10048770 f   LIBCMTD:undname.obj
 0001:000478e0       ??0DName@@QAE@W4DNameStatus@@@Z 100488e0 f   LIBCMTD:undname.obj
 0001:00047a00       ?isValid@DName@@QBEHXZ     10048a00 f   LIBCMTD:undname.obj
 0001:00047a40       ?isEmpty@DName@@QBEHXZ     10048a40 f   LIBCMTD:undname.obj
 0001:00047a80       ?status@DName@@QBE?AW4DNameStatus@@XZ 10048a80 f i LIBCMTD:undname.obj
 0001:00047aa0       ?clearStatus@DName@@QAEXXZ 10048aa0 f i LIBCMTD:undname.obj
 0001:00047ac0       ?setPtrRef@DName@@QAEAAV1@XZ 10048ac0 f i LIBCMTD:undname.obj
 0001:00047ae0       ?isPtrRef@DName@@QBEHXZ    10048ae0 f i LIBCMTD:undname.obj
 0001:00047b00       ?isUDC@DName@@QBEHXZ       10048b00 f i LIBCMTD:undname.obj
 0001:00047b40       ?setIsUDC@DName@@QAEXXZ    10048b40 f i LIBCMTD:undname.obj
 0001:00047b70       ?isUDTThunk@DName@@QBEHXZ  10048b70 f i LIBCMTD:undname.obj
 0001:00047bb0       ?setIsArray@DName@@QAEXXZ  10048bb0 f i LIBCMTD:undname.obj
 0001:00047bd0       ?isArray@DName@@QBEHXZ     10048bd0 f i LIBCMTD:undname.obj
 0001:00047bf0       ?isNoTE@DName@@QBEHXZ      10048bf0 f i LIBCMTD:undname.obj
 0001:00047c10       ?setIsNoTE@DName@@QAEXXZ   10048c10 f i LIBCMTD:undname.obj
 0001:00047c30       ?isPinPtr@DName@@QBEHXZ    10048c30 f i LIBCMTD:undname.obj
 0001:00047c50       ?setIsPinPtr@DName@@QAEXXZ 10048c50 f i LIBCMTD:undname.obj
 0001:00047c70       ?isComArray@DName@@QBEHXZ  10048c70 f i LIBCMTD:undname.obj
 0001:00047c90       ?setIsComArray@DName@@QAEXXZ 10048c90 f i LIBCMTD:undname.obj
 0001:00047cb0       ?isVCallThunk@DName@@QBEHXZ 10048cb0 f i LIBCMTD:undname.obj
 0001:00047cd0       ?setIsVCallThunk@DName@@QAEXXZ 10048cd0 f i LIBCMTD:undname.obj
 0001:00047cf0       ?length@DName@@QBEHXZ      10048cf0 f   LIBCMTD:undname.obj
 0001:00047d50       ?getLastChar@DName@@QBEDXZ 10048d50 f   LIBCMTD:undname.obj
 0001:00047dd0       ?getString@DName@@QBEPADPADH@Z 10048dd0 f   LIBCMTD:undname.obj
 0001:00047ed0       ??HDName@@QBE?AV0@D@Z      10048ed0 f   LIBCMTD:undname.obj
 0001:00047f20       ??HDName@@QBE?AV0@PBD@Z    10048f20 f   LIBCMTD:undname.obj
 0001:00047f70       ??HDName@@QBE?AV0@ABV0@@Z  10048f70 f   LIBCMTD:undname.obj
 0001:00047fe0       ??HDName@@QBE?AV0@PAV0@@Z  10048fe0 f   LIBCMTD:undname.obj
 0001:00048030       ??HDName@@QBE?AV0@W4DNameStatus@@@Z 10049030 f   LIBCMTD:undname.obj
 0001:00048080       ??YDName@@QAEAAV0@D@Z      10049080 f   LIBCMTD:undname.obj
 0001:00048130       ??YDName@@QAEAAV0@PBD@Z    10049130 f   LIBCMTD:undname.obj
 0001:000481f0       ??YDName@@QAEAAV0@ABV0@@Z  100491f0 f   LIBCMTD:undname.obj
 0001:00048280       ??YDName@@QAEAAV0@PAV0@@Z  10049280 f   LIBCMTD:undname.obj
 0001:00048380       ??YDName@@QAEAAV0@W4DNameStatus@@@Z 10049380 f   LIBCMTD:undname.obj
 0001:00048450       ??_5DName@@QAEAAV0@ABV0@@Z 10049450 f   LIBCMTD:undname.obj
 0001:000484a0       ??4DName@@QAEAAV0@D@Z      100494a0 f   LIBCMTD:undname.obj
 0001:00048510       ??4DName@@QAEAAV0@PBD@Z    10049510 f   LIBCMTD:undname.obj
 0001:00048590       ??4DName@@QAEAAV0@ABV0@@Z  10049590 f   LIBCMTD:undname.obj
 0001:000486a0       ??4DName@@QAEAAV0@PAV0@@Z  100496a0 f   LIBCMTD:undname.obj
 0001:00048790       ??4DName@@QAEAAV0@W4DNameStatus@@@Z 10049790 f   LIBCMTD:undname.obj
 0001:000488a0       ?doPchar@DName@@AAEXPBDH@Z 100498a0 f   LIBCMTD:undname.obj
 0001:000489f0       ?isFull@Replicator@@QBEHXZ 100499f0 f i LIBCMTD:undname.obj
 0001:00048a10       ??0Replicator@@QAE@XZ      10049a10 f i LIBCMTD:undname.obj
 0001:00048a50       ??YReplicator@@QAEAAV0@ABVDName@@@Z 10049a50 f   LIBCMTD:undname.obj
 0001:00048ae0       ??AReplicator@@QBEABVDName@@H@Z 10049ae0 f   LIBCMTD:undname.obj
 0001:00048b30       ??0DNameNode@@IAE@XZ       10049b30 f   LIBCMTD:undname.obj
 0001:00048b60       ?nextNode@DNameNode@@QBEPAV1@XZ 10049b60 f i LIBCMTD:undname.obj
 0001:00048b80       ?clone@DNameNode@@QAEPAV1@XZ 10049b80 f   LIBCMTD:undname.obj
 0001:00048c00       ??0DName@@QAE@PAVDNameNode@@@Z 10049c00 f i LIBCMTD:undname.obj
 0001:00048cb0       ??YDNameNode@@QAEAAV0@PAV0@@Z 10049cb0 f   LIBCMTD:undname.obj
 0001:00048d10       ??0charNode@@QAE@D@Z       10049d10 f   LIBCMTD:undname.obj
 0001:00048d40       ?length@charNode@@UBEHXZ   10049d40 f i LIBCMTD:undname.obj
 0001:00048d50       ?getLastChar@charNode@@UBEDXZ 10049d50 f i LIBCMTD:undname.obj
 0001:00048d70       ?getString@charNode@@UBEPADPADH@Z 10049d70 f   LIBCMTD:undname.obj
 0001:00048da0       ??0pcharNode@@QAE@PBDH@Z   10049da0 f   LIBCMTD:undname.obj
 0001:00048e50       ?length@pcharNode@@UBEHXZ  10049e50 f i LIBCMTD:undname.obj
 0001:00048e70       ?getLastChar@pcharNode@@UBEDXZ 10049e70 f i LIBCMTD:undname.obj
 0001:00048eb0       ?getString@pcharNode@@UBEPADPADH@Z 10049eb0 f   LIBCMTD:undname.obj
 0001:00048f20       ??0pDNameNode@@QAE@PAVDName@@@Z 10049f20 f   LIBCMTD:undname.obj
 0001:00048f80       ?length@pDNameNode@@UBEHXZ 10049f80 f i LIBCMTD:undname.obj
 0001:00048fb0       ?getLastChar@pDNameNode@@UBEDXZ 10049fb0 f i LIBCMTD:undname.obj
 0001:00048fe0       ?getString@pDNameNode@@UBEPADPADH@Z 10049fe0 f   LIBCMTD:undname.obj
 0001:00049030       ??0DNameStatusNode@@QAE@W4DNameStatus@@@Z 1004a030 f   LIBCMTD:undname.obj
 0001:00049080       ?length@DNameStatusNode@@UBEHXZ 1004a080 f i LIBCMTD:undname.obj
 0001:000490a0       ?getLastChar@DNameStatusNode@@UBEDXZ 1004a0a0 f i LIBCMTD:undname.obj
 0001:000490c0       ?getString@DNameStatusNode@@UBEPADPADH@Z 1004a0c0 f   LIBCMTD:undname.obj
 0001:00049210       __set_error_mode           1004a210 f   LIBCMTD:errmode.obj
 0001:000492d0       ___set_app_type            1004a2d0 f   LIBCMTD:errmode.obj
 0001:000492e0       ___get_app_type            1004a2e0 f   LIBCMTD:errmode.obj
 0001:000492f0       _strncpy_s                 1004a2f0 f   LIBCMTD:strncpy_s.obj
 0001:000496e0       __isalpha_l                1004a6e0 f i LIBCMTD:_ctype.obj
 0001:00049770       _isalpha                   1004a770 f i LIBCMTD:_ctype.obj
 0001:000497b0       __isupper_l                1004a7b0 f i LIBCMTD:_ctype.obj
 0001:00049830       _isupper                   1004a830 f i LIBCMTD:_ctype.obj
 0001:00049860       __islower_l                1004a860 f i LIBCMTD:_ctype.obj
 0001:000498e0       _islower                   1004a8e0 f i LIBCMTD:_ctype.obj
 0001:00049910       __isdigit_l                1004a910 f i LIBCMTD:_ctype.obj
 0001:00049990       _isdigit                   1004a990 f i LIBCMTD:_ctype.obj
 0001:000499c0       __isxdigit_l               1004a9c0 f i LIBCMTD:_ctype.obj
 0001:00049a50       _isxdigit                  1004aa50 f i LIBCMTD:_ctype.obj
 0001:00049a90       __isspace_l                1004aa90 f i LIBCMTD:_ctype.obj
 0001:00049b10       _isspace                   1004ab10 f i LIBCMTD:_ctype.obj
 0001:00049b40       __ispunct_l                1004ab40 f i LIBCMTD:_ctype.obj
 0001:00049bc0       _ispunct                   1004abc0 f i LIBCMTD:_ctype.obj
 0001:00049bf0       __isalnum_l                1004abf0 f i LIBCMTD:_ctype.obj
 0001:00049c80       _isalnum                   1004ac80 f i LIBCMTD:_ctype.obj
 0001:00049cc0       __isprint_l                1004acc0 f i LIBCMTD:_ctype.obj
 0001:00049d50       _isprint                   1004ad50 f i LIBCMTD:_ctype.obj
 0001:00049d90       __isgraph_l                1004ad90 f i LIBCMTD:_ctype.obj
 0001:00049e20       _isgraph                   1004ae20 f i LIBCMTD:_ctype.obj
 0001:00049e60       __iscntrl_l                1004ae60 f i LIBCMTD:_ctype.obj
 0001:00049ee0       _iscntrl                   1004aee0 f i LIBCMTD:_ctype.obj
 0001:00049f10       ___isascii                 1004af10 f i LIBCMTD:_ctype.obj
 0001:00049f20       ___toascii                 1004af20 f i LIBCMTD:_ctype.obj
 0001:00049f30       __iscsymf_l                1004af30 f i LIBCMTD:_ctype.obj
 0001:00049f70       ___iscsymf                 1004af70 f i LIBCMTD:_ctype.obj
 0001:00049fb0       __iscsym_l                 1004afb0 f i LIBCMTD:_ctype.obj
 0001:00049ff0       ___iscsym                  1004aff0 f i LIBCMTD:_ctype.obj
 0001:0004a030       ___crtGetLocaleInfoW       1004b030 f   LIBCMTD:w_loc.obj
 0001:0004a200       __MarkAllocaS              1004b200 f i LIBCMTD:w_loc.obj
 0001:0004a220       __freea                    1004b220 f i LIBCMTD:w_loc.obj
 0001:0004a290       ___crtGetLocaleInfoA       1004b290 f   LIBCMTD:a_loc.obj
 0001:0004a470       __get_sse2_info            1004b470 f   LIBCMTD:cpu_disp.obj
 0001:0004a590       ___sse2_available_init     1004b590 f   LIBCMTD:cpu_disp.obj
 0001:0004a5b0       __VEC_memcpy               1004b5b0 f   LIBCMTD:p4_memcpy.obj
 0001:0004a730       __ismbbkalnum_l            1004b730 f   LIBCMTD:ismbbyte.obj
 0001:0004a750       __ismbbkalnum              1004b750 f   LIBCMTD:ismbbyte.obj
 0001:0004a770       __ismbbkprint_l            1004b770 f   LIBCMTD:ismbbyte.obj
 0001:0004a790       __ismbbkprint              1004b790 f   LIBCMTD:ismbbyte.obj
 0001:0004a7b0       __ismbbkpunct_l            1004b7b0 f   LIBCMTD:ismbbyte.obj
 0001:0004a7d0       __ismbbkpunct              1004b7d0 f   LIBCMTD:ismbbyte.obj
 0001:0004a7f0       __ismbbalnum_l             1004b7f0 f   LIBCMTD:ismbbyte.obj
 0001:0004a810       __ismbbalnum               1004b810 f   LIBCMTD:ismbbyte.obj
 0001:0004a830       __ismbbalpha_l             1004b830 f   LIBCMTD:ismbbyte.obj
 0001:0004a850       __ismbbalpha               1004b850 f   LIBCMTD:ismbbyte.obj
 0001:0004a870       __ismbbgraph_l             1004b870 f   LIBCMTD:ismbbyte.obj
 0001:0004a890       __ismbbgraph               1004b890 f   LIBCMTD:ismbbyte.obj
 0001:0004a8b0       __ismbbprint_l             1004b8b0 f   LIBCMTD:ismbbyte.obj
 0001:0004a8d0       __ismbbprint               1004b8d0 f   LIBCMTD:ismbbyte.obj
 0001:0004a8f0       __ismbbpunct_l             1004b8f0 f   LIBCMTD:ismbbyte.obj
 0001:0004a910       __ismbbpunct               1004b910 f   LIBCMTD:ismbbyte.obj
 0001:0004a930       __ismbblead_l              1004b930 f   LIBCMTD:ismbbyte.obj
 0001:0004a950       __ismbblead                1004b950 f   LIBCMTD:ismbbyte.obj
 0001:0004a970       __ismbbtrail_l             1004b970 f   LIBCMTD:ismbbyte.obj
 0001:0004a990       __ismbbtrail               1004b990 f   LIBCMTD:ismbbyte.obj
 0001:0004a9b0       __ismbbkana_l              1004b9b0 f   LIBCMTD:ismbbyte.obj
 0001:0004aa20       __ismbbkana                1004ba20 f   LIBCMTD:ismbbyte.obj
 0001:0004ab00       ___crtLCMapStringA         1004bb00 f   LIBCMTD:a_map.obj
 0001:0004b0b0       ___crtGetStringTypeA       1004c0b0 f   LIBCMTD:a_str.obj
 0001:0004b340       ___pwctype_func            1004c340 f   LIBCMTD:ctype.obj
 0001:0004b350       ___pctype_func             1004c350 f   LIBCMTD:ctype.obj
 0001:0004b3a0       ___init_time               1004c3a0 f   LIBCMTD:inittime.obj
 0001:0004bac0       ___free_lc_time            1004cac0 f   LIBCMTD:inittime.obj
 0001:0004bdd0       ___init_numeric            1004cdd0 f   LIBCMTD:initnum.obj
 0001:0004c120       ___free_lconv_num          1004d120 f   LIBCMTD:initnum.obj
 0001:0004c190       ___init_monetary           1004d190 f   LIBCMTD:initmon.obj
 0001:0004c690       ___free_lconv_mon          1004d690 f   LIBCMTD:initmon.obj
 0001:0004c780       ___init_ctype              1004d780 f   LIBCMTD:initctyp.obj
 0001:0004cd30       ____mb_cur_max_func        1004dd30 f   LIBCMTD:initctyp.obj
 0001:0004cd80       ____mb_cur_max_l_func      1004dd80 f   LIBCMTD:initctyp.obj
 0001:0004cdb0       ____lc_codepage_func       1004ddb0 f   LIBCMTD:initctyp.obj
 0001:0004ce00       ____lc_collate_cp_func     1004de00 f   LIBCMTD:initctyp.obj
 0001:0004ce50       ____lc_handle_func         1004de50 f   LIBCMTD:initctyp.obj
 0001:0004cea0       ___init_collate            1004dea0 f   LIBCMTD:initcoll.obj
 0001:0004ceb0       __Getdays_l                1004deb0 f   LIBCMTD:strftime.obj
 0001:0004d070       __Getdays                  1004e070 f   LIBCMTD:strftime.obj
 0001:0004d080       __Getmonths_l              1004e080 f   LIBCMTD:strftime.obj
 0001:0004d240       __Getmonths                1004e240 f   LIBCMTD:strftime.obj
 0001:0004d250       __Gettnames_l              1004e250 f   LIBCMTD:strftime.obj
 0001:0004d7c0       __Gettnames                1004e7c0 f   LIBCMTD:strftime.obj
 0001:0004d7d0       __strftime_l               1004e7d0 f   LIBCMTD:strftime.obj
 0001:0004d800       _strftime                  1004e800 f   LIBCMTD:strftime.obj
 0001:0004d830       __Strftime                 1004e830 f   LIBCMTD:strftime.obj
 0001:0004d860       __Strftime_l               1004e860 f   LIBCMTD:strftime.obj
 0001:0004f980       _localeconv                10050980 f   LIBCMTD:lconv.obj
 0001:0004f9d0       _strcspn                   100509d0 f   LIBCMTD:strcspn.obj
 0001:0004fa20       _strncmp                   10050a20 f   LIBCMTD:strncmp.obj
 0001:0004fb90       _strpbrk                   10050b90 f   LIBCMTD:strpbrk.obj
 0001:0004fbd0       ___get_qualified_locale    10050bd0 f   LIBCMTD:getqloc.obj
 0001:00050a40       __isleadbyte_l             10051a40 f i LIBCMTD:_wctype.obj
 0001:00050a90       _isleadbyte                10051a90 f i LIBCMTD:_wctype.obj
 0001:00050ab0       __iswalpha_l               10051ab0 f i LIBCMTD:_wctype.obj
 0001:00050ad0       _iswalpha                  10051ad0 f i LIBCMTD:_wctype.obj
 0001:00050af0       __iswupper_l               10051af0 f i LIBCMTD:_wctype.obj
 0001:00050b10       _iswupper                  10051b10 f i LIBCMTD:_wctype.obj
 0001:00050b30       __iswlower_l               10051b30 f i LIBCMTD:_wctype.obj
 0001:00050b50       _iswlower                  10051b50 f i LIBCMTD:_wctype.obj
 0001:00050b70       __iswdigit_l               10051b70 f i LIBCMTD:_wctype.obj
 0001:00050b90       _iswdigit                  10051b90 f i LIBCMTD:_wctype.obj
 0001:00050bb0       __iswxdigit_l              10051bb0 f i LIBCMTD:_wctype.obj
 0001:00050bd0       _iswxdigit                 10051bd0 f i LIBCMTD:_wctype.obj
 0001:00050bf0       __iswspace_l               10051bf0 f i LIBCMTD:_wctype.obj
 0001:00050c10       _iswspace                  10051c10 f i LIBCMTD:_wctype.obj
 0001:00050c30       __iswpunct_l               10051c30 f i LIBCMTD:_wctype.obj
 0001:00050c50       _iswpunct                  10051c50 f i LIBCMTD:_wctype.obj
 0001:00050c70       __iswalnum_l               10051c70 f i LIBCMTD:_wctype.obj
 0001:00050c90       _iswalnum                  10051c90 f i LIBCMTD:_wctype.obj
 0001:00050cb0       __iswprint_l               10051cb0 f i LIBCMTD:_wctype.obj
 0001:00050cd0       _iswprint                  10051cd0 f i LIBCMTD:_wctype.obj
 0001:00050cf0       __iswgraph_l               10051cf0 f i LIBCMTD:_wctype.obj
 0001:00050d10       _iswgraph                  10051d10 f i LIBCMTD:_wctype.obj
 0001:00050d30       __iswcntrl_l               10051d30 f i LIBCMTD:_wctype.obj
 0001:00050d50       _iswcntrl                  10051d50 f i LIBCMTD:_wctype.obj
 0001:00050d70       _iswascii                  10051d70 f i LIBCMTD:_wctype.obj
 0001:00050d90       __iswcsym_l                10051d90 f i LIBCMTD:_wctype.obj
 0001:00050dd0       ___iswcsym                 10051dd0 f i LIBCMTD:_wctype.obj
 0001:00050e10       __iswcsymf_l               10051e10 f i LIBCMTD:_wctype.obj
 0001:00050e50       ___iswcsymf                10051e50 f i LIBCMTD:_wctype.obj
 0001:00050e90       __lseeki64                 10051e90 f   LIBCMTD:lseeki64.obj
 0001:000510e0       __lseeki64_nolock          100520e0 f   LIBCMTD:lseeki64.obj
 0001:000511d0       __write                    100521d0 f   LIBCMTD:write.obj
 0001:000513f0       __write_nolock             100523f0 f   LIBCMTD:write.obj
 0001:00051e10       __getbuf                   10052e10 f   LIBCMTD:_getbuf.obj
 0001:00051ed0       __isatty                   10052ed0 f   LIBCMTD:isatty.obj
 0001:00051fb0       ___iob_func                10052fb0 f   LIBCMTD:_file.obj
 0001:00051fc0       ___initstdio               10052fc0 f   LIBCMTD:_file.obj
 0001:00052110       ___endstdio                10053110 f   LIBCMTD:_file.obj
 0001:00052140       __lock_file                10053140 f   LIBCMTD:_file.obj
 0001:00052180       __lock_file2               10053180 f   LIBCMTD:_file.obj
 0001:000521b0       __unlock_file              100531b0 f   LIBCMTD:_file.obj
 0001:000521f0       __unlock_file2             100531f0 f   LIBCMTD:_file.obj
 0001:00052220       __fileno                   10053220 f   LIBCMTD:fileno.obj
 0001:00052290       _printf                    10053290 f   LIBCMTD:printf.obj
 0001:000523d0       __printf_l                 100533d0 f   LIBCMTD:printf.obj
 0001:00052400       __printf_s_l               10053400 f   LIBCMTD:printf.obj
 0001:00052430       _printf_s                  10053430 f   LIBCMTD:printf.obj
 0001:00052450       __printf_p_l               10053450 f   LIBCMTD:printf.obj
 0001:00052480       __printf_p                 10053480 f   LIBCMTD:printf.obj
 0001:000524a0       __set_printf_count_output  100534a0 f   LIBCMTD:printf.obj
 0001:000524f0       __get_printf_count_output  100534f0 f   LIBCMTD:printf.obj
 0001:00052510       __wctomb_s_l               10053510 f   LIBCMTD:wctomb.obj
 0001:00052810       _wctomb_s                  10053810 f   LIBCMTD:wctomb.obj
 0001:00052830       __wctomb_l                 10053830 f   LIBCMTD:wctomb.obj
 0001:000528b0       _wctomb                    100538b0 f   LIBCMTD:wctomb.obj
 0001:00052900       __aulldiv                  10053900 f   LIBCMTD:ulldiv.obj
 0001:00052970       __aullrem                  10053970 f   LIBCMTD:ullrem.obj
 0001:000529f0       _strtol                    100539f0 f   LIBCMTD:strtol.obj
 0001:00052f20       __strtol_l                 10053f20 f   LIBCMTD:strtol.obj
 0001:00052f40       _strtoul                   10053f40 f   LIBCMTD:strtol.obj
 0001:00052f90       __strtoul_l                10053f90 f   LIBCMTD:strtol.obj
 0001:00052fb0       __mbtowc_l                 10053fb0 f   LIBCMTD:mbtowc.obj
 0001:000531d0       _mbtowc                    100541d0 f   LIBCMTD:mbtowc.obj
 0001:000531f0       _fputwc                    100541f0 f   LIBCMTD:fputwc.obj
 0001:000532f0       __fputwc_nolock            100542f0 f   LIBCMTD:fputwc.obj
 0001:000536d0       _putwc                     100546d0 f   LIBCMTD:fputwc.obj
 0001:000536f0       _wcstol                    100546f0 f   LIBCMTD:wcstol.obj
 0001:00053b70       __wcstol_l                 10054b70 f   LIBCMTD:wcstol.obj
 0001:00053b90       _wcstoul                   10054b90 f   LIBCMTD:wcstol.obj
 0001:00053be0       __wcstoul_l                10054be0 f   LIBCMTD:wcstol.obj
 0001:00053c00       ___crtLCMapStringW         10054c00 f   LIBCMTD:w_map.obj
 0001:00054000       __iswctype_l               10055000 f   LIBCMTD:iswctype.obj
 0001:000540b0       _iswctype                  100550b0 f   LIBCMTD:iswctype.obj
 0001:00054140       _is_wctype                 10055140 f   LIBCMTD:iswctype.obj
 0001:00054160       __fptrap                   10055160 f   LIBCMTD:crt0fp.obj
 0001:00054170       _atol                      10055170 f   LIBCMTD:atox.obj
 0001:00054190       __atol_l                   10055190 f   LIBCMTD:atox.obj
 0001:000541b0       _atoi                      100551b0 f   LIBCMTD:atox.obj
 0001:000541d0       __atoi_l                   100551d0 f   LIBCMTD:atox.obj
 0001:000541f0       __atoi64                   100551f0 f   LIBCMTD:atox.obj
 0001:00054210       __atoi64_l                 10055210 f   LIBCMTD:atox.obj
 0001:00054230       __allshl                   10055230 f   LIBCMTD:llshl.obj
 0001:00054250       ___ansicp                  10055250 f   LIBCMTD:convrtcp.obj
 0001:000542b0       ___convertcp               100552b0 f   LIBCMTD:convrtcp.obj
 0001:000544f0       __get_daylight             100554f0 f   LIBCMTD:timeset.obj
 0001:00054570       __get_dstbias              10055570 f   LIBCMTD:timeset.obj
 0001:000545f0       __get_timezone             100555f0 f   LIBCMTD:timeset.obj
 0001:00054670       __get_tzname               10055670 f   LIBCMTD:timeset.obj
 0001:00054840       ___daylight                10055840 f   LIBCMTD:timeset.obj
 0001:00054850       ___dstbias                 10055850 f   LIBCMTD:timeset.obj
 0001:00054860       ___timezone                10055860 f   LIBCMTD:timeset.obj
 0001:00054870       ___tzname                  10055870 f   LIBCMTD:timeset.obj
 0001:00054880       ___tzset                   10055880 f   LIBCMTD:tzset.obj
 0001:00054910       __tzset                    10055910 f   LIBCMTD:tzset.obj
 0001:00054ec0       __set_daylight             10055ec0 f i LIBCMTD:tzset.obj
 0001:00054ed0       __set_dstbias              10055ed0 f i LIBCMTD:tzset.obj
 0001:00054ee0       __set_timezone             10055ee0 f i LIBCMTD:tzset.obj
 0001:00054ef0       __isindst                  10055ef0 f   LIBCMTD:tzset.obj
 0001:00055550       __stricmp_l                10056550 f   LIBCMTD:stricmp.obj
 0001:00055700       ___ascii_stricmp           10056700 f   LIBCMTD:stricmp.obj
 0001:00055770       __stricmp                  10056770 f   LIBCMTD:stricmp.obj
 0001:00055880       __strnicmp_l               10056880 f   LIBCMTD:strnicmp.obj
 0001:00055ac0       __strnicmp                 10056ac0 f   LIBCMTD:strnicmp.obj
 0001:00055c50       __alloc_osfhnd             10056c50 f   LIBCMTD:osfinfo.obj
 0001:00055f00       __set_osfhnd               10056f00 f   LIBCMTD:osfinfo.obj
 0001:00055fd0       __free_osfhnd              10056fd0 f   LIBCMTD:osfinfo.obj
 0001:000560c0       __get_osfhandle            100570c0 f   LIBCMTD:osfinfo.obj
 0001:00056220       __open_osfhandle           10057220 f   LIBCMTD:osfinfo.obj
 0001:00056450       ___lock_fhandle            10057450 f   LIBCMTD:osfinfo.obj
 0001:00056550       __unlock_fhandle           10057550 f   LIBCMTD:osfinfo.obj
 0001:00056580       __putwch                   10057580 f   LIBCMTD:putwch.obj
 0001:00056610       __putwch_nolock            10057610 f   LIBCMTD:putwch.obj
 0001:00056710       __cputws                   10057710 f   LIBCMTD:putwch.obj
 0001:00056850       __fcloseall                10057850 f   LIBCMTD:closeall.obj
 0001:00056980       _fflush                    10057980 f   LIBCMTD:fflush.obj
 0001:00056a20       __fflush_nolock            10057a20 f   LIBCMTD:fflush.obj
 0001:00056a80       __flush                    10057a80 f   LIBCMTD:fflush.obj
 0001:00056b40       __flushall                 10057b40 f   LIBCMTD:fflush.obj
 0001:00056cf0       __stbuf                    10057cf0 f   LIBCMTD:_sftbuf.obj
 0001:00056e50       __ftbuf                    10057e50 f   LIBCMTD:_sftbuf.obj
 0001:00056ee0       _vprintf_helper            10057ee0 f   LIBCMTD:vprintf.obj
 0001:00057000       __vprintf_l                10058000 f   LIBCMTD:vprintf.obj
 0001:00057020       __vprintf_s_l              10058020 f   LIBCMTD:vprintf.obj
 0001:00057040       __vprintf_p_l              10058040 f   LIBCMTD:vprintf.obj
 0001:00057060       _vprintf                   10058060 f   LIBCMTD:vprintf.obj
 0001:00057080       _vprintf_s                 10058080 f   LIBCMTD:vprintf.obj
 0001:000570a0       __vprintf_p                100580a0 f   LIBCMTD:vprintf.obj
 0001:000570c0       __flswbuf                  100580c0 f   LIBCMTD:_flswbuf.obj
 0001:000573a0       __wchartodigit             100583a0 f   LIBCMTD:wchtodig.obj
 0001:000576c0       ___crtGetStringTypeW       100586c0 f   LIBCMTD:w_str.obj
 0001:000579c0       __strtoi64                 100589c0 f   LIBCMTD:strtoq.obj
 0001:00057f30       __strtoi64_l               10058f30 f   LIBCMTD:strtoq.obj
 0001:00057f50       __strtoui64                10058f50 f   LIBCMTD:strtoq.obj
 0001:00057fa0       __strtoui64_l              10058fa0 f   LIBCMTD:strtoq.obj
 0001:00057fc0       _getenv                    10058fc0 f   LIBCMTD:getenv.obj
 0001:00058110       __getenv_helper_nolock     10059110 f   LIBCMTD:getenv.obj
 0001:00058230       _getenv_s                  10059230 f   LIBCMTD:getenv.obj
 0001:00058460       __dupenv_s                 10059460 f   LIBCMTD:getenv.obj
 0001:00058480       __dupenv_s_dbg             10059480 f   LIBCMTD:getenv.obj
 0001:000586d0       __tolower                  100596d0 f   LIBCMTD:tolower.obj
 0001:000586e0       __tolower_l                100596e0 f   LIBCMTD:tolower.obj
 0001:000588c0       _tolower                   100598c0 f   LIBCMTD:tolower.obj
 0001:00058910       ___ascii_strnicmp          10059910 f   LIBCMTD:_strnicm.obj
 0001:00058980       ___initconin               10059980 f   LIBCMTD:initcon.obj
 0001:000589b0       ___initconout              100599b0 f   LIBCMTD:initcon.obj
 0001:000589e0       ___termcon                 100599e0 f   LIBCMTD:initcon.obj
 0001:00058a30       _fclose                    10059a30 f   LIBCMTD:fclose.obj
 0001:00058b40       __fclose_nolock            10059b40 f   LIBCMTD:fclose.obj
 0001:00058c40       __commit                   10059c40 f   LIBCMTD:commit.obj
 0001:00058e60       _strnlen                   10059e60 f   LIBCMTD:strlen_s.obj
 0001:00058ea0       __mbsnbicoll_l             10059ea0 f   LIBCMTD:mbsnbico.obj
 0001:000590e0       __mbsnbicoll               1005a0e0 f   LIBCMTD:mbsnbico.obj
 0001:00059100       ___wtomb_environ           1005a100 f   LIBCMTD:wtombenv.obj
 0001:000591f0       __close                    1005a1f0 f   LIBCMTD:close.obj
 0001:00059400       __close_nolock             1005a400 f   LIBCMTD:close.obj
 0001:000594d0       __freebuf                  1005a4d0 f   LIBCMTD:_freebuf.obj
 0001:00059560       ___crtCompareStringA       1005a560 f   LIBCMTD:a_cmp.obj
 0001:00059b20       __strnicoll_l              1005ab20 f   LIBCMTD:strnicol.obj
 0001:00059d70       __strnicoll                1005ad70 f   LIBCMTD:strnicol.obj
 0001:00059db0       ___crtsetenv               1005adb0 f   LIBCMTD:setenv.obj
 0001:0005a420       __mbschr_l                 1005b420 f   LIBCMTD:mbschr.obj
 0001:0005a5b0       __mbschr                   1005b5b0 f   LIBCMTD:mbschr.obj
 0001:0005a5e0       _strchr                    1005b5e0 f   LIBCMTD:strchr.obj
 0001:0005a5e6       ___from_strstr_to_strchr   1005b5e6     LIBCMTD:strchr.obj
 0001:0005a69e       _GetVersionExA@4           1005b69e f   kernel32:KERNEL32.dll
 0001:0005a6a4       _InterlockedExchange@8     1005b6a4 f   kernel32:KERNEL32.dll
 0001:0005a6aa       _GetACP@0                  1005b6aa f   kernel32:KERNEL32.dll
 0001:0005a6b0       _GetLocaleInfoA@16         1005b6b0 f   kernel32:KERNEL32.dll
 0001:0005a6b6       _GetThreadLocale@0         1005b6b6 f   kernel32:KERNEL32.dll
 0001:0005a6bc       _GetCurrentProcessId@0     1005b6bc f   kernel32:KERNEL32.dll
 0001:0005a6c2       _CloseHandle@4             1005b6c2 f   kernel32:KERNEL32.dll
 0001:0005a6c8       _SetEvent@4                1005b6c8 f   kernel32:KERNEL32.dll
 0001:0005a6ce       _OpenEventA@12             1005b6ce f   kernel32:KERNEL32.dll
 0001:0005a6d4       _OutputDebugStringA@4      1005b6d4 f   kernel32:KERNEL32.dll
 0001:0005a6da       _OutputDebugStringW@4      1005b6da f   kernel32:KERNEL32.dll
 0001:0005a6e0       _WaitForSingleObject@8     1005b6e0 f   kernel32:KERNEL32.dll
 0001:0005a6e6       _GetCurrentThreadId@0      1005b6e6 f   kernel32:KERNEL32.dll
 0001:0005a6ec       _VirtualAlloc@16           1005b6ec f   kernel32:KERNEL32.dll
 0001:0005a6f2       _UnmapViewOfFile@4         1005b6f2 f   kernel32:KERNEL32.dll
 0001:0005a6f8       _GetSystemInfo@4           1005b6f8 f   kernel32:KERNEL32.dll
 0001:0005a6fe       _MapViewOfFile@20          1005b6fe f   kernel32:KERNEL32.dll
 0001:0005a704       _CreateFileMappingA@24     1005b704 f   kernel32:KERNEL32.dll
 0001:0005a70a       _GetCurrentThread@0        1005b70a f   kernel32:KERNEL32.dll
 0001:0005a710       _GetVersion@0              1005b710 f   kernel32:KERNEL32.dll
 0001:0005a716       _OpenFileMappingA@12       1005b716 f   kernel32:KERNEL32.dll
 0001:0005a71c       _GetModuleFileNameW@12     1005b71c f   kernel32:KERNEL32.dll
 0001:0005a722       _RtlUnwind@16              1005b722 f   kernel32:KERNEL32.dll
 0001:0005a728       _VirtualProtect@16         1005b728 f   kernel32:KERNEL32.dll
 0001:0005a72e       _GetProcAddress@8          1005b72e f   kernel32:KERNEL32.dll
 0001:0005a734       _VirtualQuery@12           1005b734 f   kernel32:KERNEL32.dll
 0001:0005a73a       _HeapValidate@12           1005b73a f   kernel32:KERNEL32.dll
 0001:0005a740       _IsBadReadPtr@8            1005b740 f   kernel32:KERNEL32.dll
 0001:0005a746       _GetCommandLineA@0         1005b746 f   kernel32:KERNEL32.dll
 0001:0005a74c       _HeapFree@12               1005b74c f   kernel32:KERNEL32.dll
 0001:0005a752       _HeapAlloc@12              1005b752 f   kernel32:KERNEL32.dll
 0001:0005a758       _GetProcessHeap@0          1005b758 f   kernel32:KERNEL32.dll
 0001:0005a75e       _FatalAppExitA@8           1005b75e f   kernel32:KERNEL32.dll
 0001:0005a764       _DebugBreak@0              1005b764 f   kernel32:KERNEL32.dll
 0001:0005a76a       _IsDebuggerPresent@0       1005b76a f   kernel32:KERNEL32.dll
 0001:0005a770       _LoadLibraryA@4            1005b770 f   kernel32:KERNEL32.dll
 0001:0005a776       _GetStdHandle@4            1005b776 f   kernel32:KERNEL32.dll
 0001:0005a77c       _WriteFile@20              1005b77c f   kernel32:KERNEL32.dll
 0001:0005a782       _WriteConsoleW@20          1005b782 f   kernel32:KERNEL32.dll
 0001:0005a788       _GetFileType@4             1005b788 f   kernel32:KERNEL32.dll
 0001:0005a78e       _TerminateProcess@8        1005b78e f   kernel32:KERNEL32.dll
 0001:0005a794       _GetCurrentProcess@0       1005b794 f   kernel32:KERNEL32.dll
 0001:0005a79a       _UnhandledExceptionFilter@4 1005b79a f   kernel32:KERNEL32.dll
 0001:0005a7a0       _SetUnhandledExceptionFilter@4 1005b7a0 f   kernel32:KERNEL32.dll
 0001:0005a7a6       _ExitProcess@4             1005b7a6 f   kernel32:KERNEL32.dll
 0001:0005a7ac       _SetConsoleCtrlHandler@8   1005b7ac f   kernel32:KERNEL32.dll
 0001:0005a7b2       _LoadLibraryW@4            1005b7b2 f   kernel32:KERNEL32.dll
 0001:0005a7b8       _TlsGetValue@4             1005b7b8 f   kernel32:KERNEL32.dll
 0001:0005a7be       _TlsAlloc@0                1005b7be f   kernel32:KERNEL32.dll
 0001:0005a7c4       _TlsSetValue@8             1005b7c4 f   kernel32:KERNEL32.dll
 0001:0005a7ca       _TlsFree@4                 1005b7ca f   kernel32:KERNEL32.dll
 0001:0005a7d0       _SetLastError@4            1005b7d0 f   kernel32:KERNEL32.dll
 0001:0005a7d6       _HeapReAlloc@16            1005b7d6 f   kernel32:KERNEL32.dll
 0001:0005a7dc       _HeapDestroy@4             1005b7dc f   kernel32:KERNEL32.dll
 0001:0005a7e2       _HeapCreate@12             1005b7e2 f   kernel32:KERNEL32.dll
 0001:0005a7e8       _VirtualFree@12            1005b7e8 f   kernel32:KERNEL32.dll
 0001:0005a7ee       _GetOEMCP@0                1005b7ee f   kernel32:KERNEL32.dll
 0001:0005a7f4       _GetCPInfo@8               1005b7f4 f   kernel32:KERNEL32.dll
 0001:0005a7fa       _SetHandleCount@4          1005b7fa f   kernel32:KERNEL32.dll
 0001:0005a800       _GetStartupInfoA@4         1005b800 f   kernel32:KERNEL32.dll
 0001:0005a806       _FreeEnvironmentStringsA@4 1005b806 f   kernel32:KERNEL32.dll
 0001:0005a80c       _GetEnvironmentStrings@0   1005b80c f   kernel32:KERNEL32.dll
 0001:0005a812       _FreeEnvironmentStringsW@4 1005b812 f   kernel32:KERNEL32.dll
 0001:0005a818       _GetEnvironmentStringsW@0  1005b818 f   kernel32:KERNEL32.dll
 0001:0005a81e       _QueryPerformanceCounter@4 1005b81e f   kernel32:KERNEL32.dll
 0001:0005a824       _GetTickCount@0            1005b824 f   kernel32:KERNEL32.dll
 0001:0005a82a       _GetSystemTimeAsFileTime@4 1005b82a f   kernel32:KERNEL32.dll
 0001:0005a830       _GetLocaleInfoW@16         1005b830 f   kernel32:KERNEL32.dll
 0001:0005a836       _LCMapStringA@24           1005b836 f   kernel32:KERNEL32.dll
 0001:0005a83c       _LCMapStringW@24           1005b83c f   kernel32:KERNEL32.dll
 0001:0005a842       _GetStringTypeA@20         1005b842 f   kernel32:KERNEL32.dll
 0001:0005a848       _GetStringTypeW@16         1005b848 f   kernel32:KERNEL32.dll
 0001:0005a84e       _GetTimeFormatA@24         1005b84e f   kernel32:KERNEL32.dll
 0001:0005a854       _GetDateFormatA@24         1005b854 f   kernel32:KERNEL32.dll
 0001:0005a85a       _IsValidLocale@8           1005b85a f   kernel32:KERNEL32.dll
 0001:0005a860       _IsValidCodePage@4         1005b860 f   kernel32:KERNEL32.dll
 0001:0005a866       _EnumSystemLocalesA@8      1005b866 f   kernel32:KERNEL32.dll
 0001:0005a86c       _GetUserDefaultLCID@0      1005b86c f   kernel32:KERNEL32.dll
 0001:0005a872       _SetFilePointer@16         1005b872 f   kernel32:KERNEL32.dll
 0001:0005a878       _GetConsoleCP@0            1005b878 f   kernel32:KERNEL32.dll
 0001:0005a87e       _GetConsoleMode@8          1005b87e f   kernel32:KERNEL32.dll
 0001:0005a884       _GetTimeZoneInformation@4  1005b884 f   kernel32:KERNEL32.dll
 0001:0005a88a       _SetStdHandle@8            1005b88a f   kernel32:KERNEL32.dll
 0001:0005a890       _WriteConsoleA@20          1005b890 f   kernel32:KERNEL32.dll
 0001:0005a896       _GetConsoleOutputCP@0      1005b896 f   kernel32:KERNEL32.dll
 0001:0005a89c       _CreateFileA@28            1005b89c f   kernel32:KERNEL32.dll
 0001:0005a8a2       _FlushFileBuffers@4        1005b8a2 f   kernel32:KERNEL32.dll
 0001:0005a8a8       _CompareStringA@24         1005b8a8 f   kernel32:KERNEL32.dll
 0001:0005a8ae       _CompareStringW@24         1005b8ae f   kernel32:KERNEL32.dll
 0001:0005a8b4       _SetEnvironmentVariableA@8 1005b8b4 f   kernel32:KERNEL32.dll
 0001:0005a8ba       _DispatchMessageA@4        1005b8ba f   user32:USER32.dll
 0001:0005a8c0       _DispatchMessageW@4        1005b8c0 f   user32:USER32.dll
 0001:0005a8c6       _TranslateMessage@4        1005b8c6 f   user32:USER32.dll
 0001:0005a8cc       _GetMessageA@16            1005b8cc f   user32:USER32.dll
 0001:0005a8d2       _GetMessageW@16            1005b8d2 f   user32:USER32.dll
 0001:0005a8d8       _IsWindowUnicode@4         1005b8d8 f   user32:USER32.dll
 0001:0005a8de       _PeekMessageA@20           1005b8de f   user32:USER32.dll
 0001:0005a8e4       _MsgWaitForMultipleObjects@20 1005b8e4 f   user32:USER32.dll
 0001:0005a8ea       _SetThreadToken@8          1005b8ea f   advapi32:ADVAPI32.dll
 0001:0005a8f0       _RevertToSelf@0            1005b8f0 f   advapi32:ADVAPI32.dll
 0001:0005a8f6       _OpenThreadToken@16        1005b8f6 f   advapi32:ADVAPI32.dll
 0001:0005a8fc       _CoReleaseMarshalData@4    1005b8fc f   ole32:ole32.dll
 0001:0005a902       _CoMarshalInterface@24     1005b902 f   ole32:ole32.dll
 0001:0005a908       _CreateStreamOnHGlobal@12  1005b908 f   ole32:ole32.dll
 0001:0005a90e       _CoUnmarshalInterface@12   1005b90e f   ole32:ole32.dll
 0001:0005a914       _CoRevokeClassObject@4     1005b914 f   ole32:ole32.dll
 0001:0005a91a       _CoRegisterClassObject@20  1005b91a f   ole32:ole32.dll
 0002:00000000       __imp__RegSetValueExA@24   1005d000     advapi32:ADVAPI32.dll
 0002:00000004       __imp__RegEnumKeyExA@32    1005d004     advapi32:ADVAPI32.dll
 0002:00000008       __imp__RegOpenKeyExA@20    1005d008     advapi32:ADVAPI32.dll
 0002:0000000c       __imp__RegCreateKeyExA@36  1005d00c     advapi32:ADVAPI32.dll
 0002:00000010       __imp__RegCloseKey@4       1005d010     advapi32:ADVAPI32.dll
 0002:00000014       __imp__RegDeleteValueA@8   1005d014     advapi32:ADVAPI32.dll
 0002:00000018       __imp__RegDeleteKeyA@8     1005d018     advapi32:ADVAPI32.dll
 0002:0000001c       __imp__SetThreadToken@8    1005d01c     advapi32:ADVAPI32.dll
 0002:00000020       __imp__RevertToSelf@0      1005d020     advapi32:ADVAPI32.dll
 0002:00000024       __imp__OpenThreadToken@16  1005d024     advapi32:ADVAPI32.dll
 0002:00000028       __imp__RegQueryInfoKeyA@48 1005d028     advapi32:ADVAPI32.dll
 0002:0000002c       \177ADVAPI32_NULL_THUNK_DATA 1005d02c     advapi32:ADVAPI32.dll
 0002:00000030       __imp__SizeofResource@8    1005d030     kernel32:KERNEL32.dll
 0002:00000034       __imp__LoadResource@8      1005d034     kernel32:KERNEL32.dll
 0002:00000038       __imp__FindResourceA@12    1005d038     kernel32:KERNEL32.dll
 0002:0000003c       __imp__LoadLibraryExA@12   1005d03c     kernel32:KERNEL32.dll
 0002:00000040       __imp__lstrcmpiA@8         1005d040     kernel32:KERNEL32.dll
 0002:00000044       __imp__FreeLibrary@4       1005d044     kernel32:KERNEL32.dll
 0002:00000048       __imp__DeleteCriticalSection@4 1005d048     kernel32:KERNEL32.dll
 0002:0000004c       __imp__RaiseException@16   1005d04c     kernel32:KERNEL32.dll
 0002:00000050       __imp__LeaveCriticalSection@4 1005d050     kernel32:KERNEL32.dll
 0002:00000054       __imp__EnterCriticalSection@4 1005d054     kernel32:KERNEL32.dll
 0002:00000058       __imp__WideCharToMultiByte@32 1005d058     kernel32:KERNEL32.dll
 0002:0000005c       __imp__GetLastError@0      1005d05c     kernel32:KERNEL32.dll
 0002:00000060       __imp__lstrlenW@4          1005d060     kernel32:KERNEL32.dll
 0002:00000064       __imp__MultiByteToWideChar@24 1005d064     kernel32:KERNEL32.dll
 0002:00000068       __imp__GetModuleFileNameA@12 1005d068     kernel32:KERNEL32.dll
 0002:0000006c       __imp__lstrlenA@4          1005d06c     kernel32:KERNEL32.dll
 0002:00000070       __imp__GetModuleHandleA@4  1005d070     kernel32:KERNEL32.dll
 0002:00000074       __imp__InterlockedDecrement@4 1005d074     kernel32:KERNEL32.dll
 0002:00000078       __imp__InterlockedIncrement@4 1005d078     kernel32:KERNEL32.dll
 0002:0000007c       __imp__InitializeCriticalSection@4 1005d07c     kernel32:KERNEL32.dll
 0002:00000080       __imp__IsDBCSLeadByte@4    1005d080     kernel32:KERNEL32.dll
 0002:00000084       __imp__DisableThreadLibraryCalls@4 1005d084     kernel32:KERNEL32.dll
 0002:00000088       __imp__SetEnvironmentVariableA@8 1005d088     kernel32:KERNEL32.dll
 0002:0000008c       __imp__CompareStringW@24   1005d08c     kernel32:KERNEL32.dll
 0002:00000090       __imp__CompareStringA@24   1005d090     kernel32:KERNEL32.dll
 0002:00000094       __imp__FlushFileBuffers@4  1005d094     kernel32:KERNEL32.dll
 0002:00000098       __imp__CreateFileA@28      1005d098     kernel32:KERNEL32.dll
 0002:0000009c       __imp__GetConsoleOutputCP@0 1005d09c     kernel32:KERNEL32.dll
 0002:000000a0       __imp__WriteConsoleA@20    1005d0a0     kernel32:KERNEL32.dll
 0002:000000a4       __imp__SetStdHandle@8      1005d0a4     kernel32:KERNEL32.dll
 0002:000000a8       __imp__GetTimeZoneInformation@4 1005d0a8     kernel32:KERNEL32.dll
 0002:000000ac       __imp__GetConsoleMode@8    1005d0ac     kernel32:KERNEL32.dll
 0002:000000b0       __imp__GetConsoleCP@0      1005d0b0     kernel32:KERNEL32.dll
 0002:000000b4       __imp__SetFilePointer@16   1005d0b4     kernel32:KERNEL32.dll
 0002:000000b8       __imp__GetUserDefaultLCID@0 1005d0b8     kernel32:KERNEL32.dll
 0002:000000bc       __imp__EnumSystemLocalesA@8 1005d0bc     kernel32:KERNEL32.dll
 0002:000000c0       __imp__IsValidCodePage@4   1005d0c0     kernel32:KERNEL32.dll
 0002:000000c4       __imp__IsValidLocale@8     1005d0c4     kernel32:KERNEL32.dll
 0002:000000c8       __imp__GetDateFormatA@24   1005d0c8     kernel32:KERNEL32.dll
 0002:000000cc       __imp__GetVersionExA@4     1005d0cc     kernel32:KERNEL32.dll
 0002:000000d0       __imp__InterlockedExchange@8 1005d0d0     kernel32:KERNEL32.dll
 0002:000000d4       __imp__GetACP@0            1005d0d4     kernel32:KERNEL32.dll
 0002:000000d8       __imp__GetLocaleInfoA@16   1005d0d8     kernel32:KERNEL32.dll
 0002:000000dc       __imp__GetThreadLocale@0   1005d0dc     kernel32:KERNEL32.dll
 0002:000000e0       __imp__GetCurrentProcessId@0 1005d0e0     kernel32:KERNEL32.dll
 0002:000000e4       __imp__CloseHandle@4       1005d0e4     kernel32:KERNEL32.dll
 0002:000000e8       __imp__SetEvent@4          1005d0e8     kernel32:KERNEL32.dll
 0002:000000ec       __imp__OpenEventA@12       1005d0ec     kernel32:KERNEL32.dll
 0002:000000f0       __imp__OutputDebugStringA@4 1005d0f0     kernel32:KERNEL32.dll
 0002:000000f4       __imp__OutputDebugStringW@4 1005d0f4     kernel32:KERNEL32.dll
 0002:000000f8       __imp__WaitForSingleObject@8 1005d0f8     kernel32:KERNEL32.dll
 0002:000000fc       __imp__GetCurrentThreadId@0 1005d0fc     kernel32:KERNEL32.dll
 0002:00000100       __imp__VirtualAlloc@16     1005d100     kernel32:KERNEL32.dll
 0002:00000104       __imp__UnmapViewOfFile@4   1005d104     kernel32:KERNEL32.dll
 0002:00000108       __imp__GetSystemInfo@4     1005d108     kernel32:KERNEL32.dll
 0002:0000010c       __imp__MapViewOfFile@20    1005d10c     kernel32:KERNEL32.dll
 0002:00000110       __imp__CreateFileMappingA@24 1005d110     kernel32:KERNEL32.dll
 0002:00000114       __imp__GetCurrentThread@0  1005d114     kernel32:KERNEL32.dll
 0002:00000118       __imp__GetVersion@0        1005d118     kernel32:KERNEL32.dll
 0002:0000011c       __imp__OpenFileMappingA@12 1005d11c     kernel32:KERNEL32.dll
 0002:00000120       __imp__GetModuleFileNameW@12 1005d120     kernel32:KERNEL32.dll
 0002:00000124       __imp__RtlUnwind@16        1005d124     kernel32:KERNEL32.dll
 0002:00000128       __imp__VirtualProtect@16   1005d128     kernel32:KERNEL32.dll
 0002:0000012c       __imp__GetProcAddress@8    1005d12c     kernel32:KERNEL32.dll
 0002:00000130       __imp__VirtualQuery@12     1005d130     kernel32:KERNEL32.dll
 0002:00000134       __imp__HeapValidate@12     1005d134     kernel32:KERNEL32.dll
 0002:00000138       __imp__IsBadReadPtr@8      1005d138     kernel32:KERNEL32.dll
 0002:0000013c       __imp__GetCommandLineA@0   1005d13c     kernel32:KERNEL32.dll
 0002:00000140       __imp__HeapFree@12         1005d140     kernel32:KERNEL32.dll
 0002:00000144       __imp__HeapAlloc@12        1005d144     kernel32:KERNEL32.dll
 0002:00000148       __imp__GetProcessHeap@0    1005d148     kernel32:KERNEL32.dll
 0002:0000014c       __imp__FatalAppExitA@8     1005d14c     kernel32:KERNEL32.dll
 0002:00000150       __imp__DebugBreak@0        1005d150     kernel32:KERNEL32.dll
 0002:00000154       __imp__IsDebuggerPresent@0 1005d154     kernel32:KERNEL32.dll
 0002:00000158       __imp__LoadLibraryA@4      1005d158     kernel32:KERNEL32.dll
 0002:0000015c       __imp__GetStdHandle@4      1005d15c     kernel32:KERNEL32.dll
 0002:00000160       __imp__WriteFile@20        1005d160     kernel32:KERNEL32.dll
 0002:00000164       __imp__WriteConsoleW@20    1005d164     kernel32:KERNEL32.dll
 0002:00000168       __imp__GetFileType@4       1005d168     kernel32:KERNEL32.dll
 0002:0000016c       __imp__TerminateProcess@8  1005d16c     kernel32:KERNEL32.dll
 0002:00000170       __imp__GetCurrentProcess@0 1005d170     kernel32:KERNEL32.dll
 0002:00000174       __imp__UnhandledExceptionFilter@4 1005d174     kernel32:KERNEL32.dll
 0002:00000178       __imp__SetUnhandledExceptionFilter@4 1005d178     kernel32:KERNEL32.dll
 0002:0000017c       __imp__ExitProcess@4       1005d17c     kernel32:KERNEL32.dll
 0002:00000180       __imp__SetConsoleCtrlHandler@8 1005d180     kernel32:KERNEL32.dll
 0002:00000184       __imp__LoadLibraryW@4      1005d184     kernel32:KERNEL32.dll
 0002:00000188       __imp__TlsGetValue@4       1005d188     kernel32:KERNEL32.dll
 0002:0000018c       __imp__TlsAlloc@0          1005d18c     kernel32:KERNEL32.dll
 0002:00000190       __imp__TlsSetValue@8       1005d190     kernel32:KERNEL32.dll
 0002:00000194       __imp__TlsFree@4           1005d194     kernel32:KERNEL32.dll
 0002:00000198       __imp__SetLastError@4      1005d198     kernel32:KERNEL32.dll
 0002:0000019c       __imp__HeapReAlloc@16      1005d19c     kernel32:KERNEL32.dll
 0002:000001a0       __imp__HeapDestroy@4       1005d1a0     kernel32:KERNEL32.dll
 0002:000001a4       __imp__HeapCreate@12       1005d1a4     kernel32:KERNEL32.dll
 0002:000001a8       __imp__VirtualFree@12      1005d1a8     kernel32:KERNEL32.dll
 0002:000001ac       __imp__GetOEMCP@0          1005d1ac     kernel32:KERNEL32.dll
 0002:000001b0       __imp__GetCPInfo@8         1005d1b0     kernel32:KERNEL32.dll
 0002:000001b4       __imp__SetHandleCount@4    1005d1b4     kernel32:KERNEL32.dll
 0002:000001b8       __imp__GetStartupInfoA@4   1005d1b8     kernel32:KERNEL32.dll
 0002:000001bc       __imp__FreeEnvironmentStringsA@4 1005d1bc     kernel32:KERNEL32.dll
 0002:000001c0       __imp__GetEnvironmentStrings@0 1005d1c0     kernel32:KERNEL32.dll
 0002:000001c4       __imp__FreeEnvironmentStringsW@4 1005d1c4     kernel32:KERNEL32.dll
 0002:000001c8       __imp__GetEnvironmentStringsW@0 1005d1c8     kernel32:KERNEL32.dll
 0002:000001cc       __imp__QueryPerformanceCounter@4 1005d1cc     kernel32:KERNEL32.dll
 0002:000001d0       __imp__GetTickCount@0      1005d1d0     kernel32:KERNEL32.dll
 0002:000001d4       __imp__GetSystemTimeAsFileTime@4 1005d1d4     kernel32:KERNEL32.dll
 0002:000001d8       __imp__GetLocaleInfoW@16   1005d1d8     kernel32:KERNEL32.dll
 0002:000001dc       __imp__LCMapStringA@24     1005d1dc     kernel32:KERNEL32.dll
 0002:000001e0       __imp__LCMapStringW@24     1005d1e0     kernel32:KERNEL32.dll
 0002:000001e4       __imp__GetStringTypeA@20   1005d1e4     kernel32:KERNEL32.dll
 0002:000001e8       __imp__GetStringTypeW@16   1005d1e8     kernel32:KERNEL32.dll
 0002:000001ec       __imp__GetTimeFormatA@24   1005d1ec     kernel32:KERNEL32.dll
 0002:000001f0       \177KERNEL32_NULL_THUNK_DATA 1005d1f0     kernel32:KERNEL32.dll
 0002:000001f4       __imp__VariantInit@4       1005d1f4     oleaut32:OLEAUT32.dll
 0002:000001f8       __imp__VariantClear@4      1005d1f8     oleaut32:OLEAUT32.dll
 0002:000001fc       __imp__UnRegisterTypeLib@20 1005d1fc     oleaut32:OLEAUT32.dll
 0002:00000200       __imp__SysAllocString@4    1005d200     oleaut32:OLEAUT32.dll
 0002:00000204       __imp__RegisterTypeLib@12  1005d204     oleaut32:OLEAUT32.dll
 0002:00000208       __imp__SysStringLen@4      1005d208     oleaut32:OLEAUT32.dll
 0002:0000020c       __imp__LoadTypeLib@8       1005d20c     oleaut32:OLEAUT32.dll
 0002:00000210       __imp__LoadRegTypeLib@20   1005d210     oleaut32:OLEAUT32.dll
 0002:00000214       __imp__SysFreeString@4     1005d214     oleaut32:OLEAUT32.dll
 0002:00000218       __imp__VarUI4FromStr@16    1005d218     oleaut32:OLEAUT32.dll
 0002:0000021c       \177OLEAUT32_NULL_THUNK_DATA 1005d21c     oleaut32:OLEAUT32.dll
 0002:00000220       __imp__CharNextA@4         1005d220     user32:USER32.dll
 0002:00000224       __imp__UnregisterClassA@8  1005d224     user32:USER32.dll
 0002:00000228       __imp__MsgWaitForMultipleObjects@20 1005d228     user32:USER32.dll
 0002:0000022c       __imp__PeekMessageA@20     1005d22c     user32:USER32.dll
 0002:00000230       __imp__IsWindowUnicode@4   1005d230     user32:USER32.dll
 0002:00000234       __imp__DispatchMessageA@4  1005d234     user32:USER32.dll
 0002:00000238       __imp__DispatchMessageW@4  1005d238     user32:USER32.dll
 0002:0000023c       __imp__TranslateMessage@4  1005d23c     user32:USER32.dll
 0002:00000240       __imp__GetMessageA@16      1005d240     user32:USER32.dll
 0002:00000244       __imp__GetMessageW@16      1005d244     user32:USER32.dll
 0002:00000248       \177USER32_NULL_THUNK_DATA 1005d248     user32:USER32.dll
 0002:0000024c       __imp__CoTaskMemFree@4     1005d24c     ole32:ole32.dll
 0002:00000250       __imp__CoTaskMemAlloc@4    1005d250     ole32:ole32.dll
 0002:00000254       __imp__CoTaskMemRealloc@8  1005d254     ole32:ole32.dll
 0002:00000258       __imp__StringFromGUID2@12  1005d258     ole32:ole32.dll
 0002:0000025c       __imp__CoCreateInstance@20 1005d25c     ole32:ole32.dll
 0002:00000260       __imp__CoReleaseMarshalData@4 1005d260     ole32:ole32.dll
 0002:00000264       __imp__CoMarshalInterface@24 1005d264     ole32:ole32.dll
 0002:00000268       __imp__CreateStreamOnHGlobal@12 1005d268     ole32:ole32.dll
 0002:0000026c       __imp__CoUnmarshalInterface@12 1005d26c     ole32:ole32.dll
 0002:00000270       __imp__CoRevokeClassObject@4 1005d270     ole32:ole32.dll
 0002:00000274       __imp__CoRegisterClassObject@20 1005d274     ole32:ole32.dll
 0002:00000278       \177ole32_NULL_THUNK_DATA  1005d278     ole32:ole32.dll
 0002:0000027c       ___xc_a                    1005d27c     LIBCMTD:crt0init.obj
 0002:00000310       ___xc_z                    1005d310     LIBCMTD:crt0init.obj
 0002:00000314       ___xi_a                    1005d314     LIBCMTD:crt0init.obj
 0002:00000330       ___xi_z                    1005d330     LIBCMTD:crt0init.obj
 0002:00000334       ___xp_a                    1005d334     LIBCMTD:crt0init.obj
 0002:00000344       ___xp_z                    1005d344     LIBCMTD:crt0init.obj
 0002:00000348       ___xt_a                    1005d348     LIBCMTD:crt0init.obj
 0002:00000350       ___xt_z                    1005d350     LIBCMTD:crt0init.obj
 0002:00000380       _IID_IEventFiringObject    1005d380     EventFiringObject.obj
 0002:00000390       _LIBID_EVENTFIRINGOBJECTLib 1005d390     EventFiringObject.obj
 0002:000003a0       _DIID__IEventFiringObjectEvents 1005d3a0     EventFiringObject.obj
 0002:000003b0       _CLSID_EventFiringObject   1005d3b0     EventFiringObject.obj
 0002:000007d8       ?rgszNeverDelete@CRegParser@ATL@@1QBQBDB 1005d7d8     EventFiringObject.obj
 0002:00000808       ??_C@_1IM@DPEFOPEE@?$AAD?$AA?3?$AA?2?$AAP?$AAr?$AAo?$AAg?$AAr?$AAa?$AAm?$AA?5?$AAF?$AAi?$AAl?$AAe?$AAs?$AA?2?$AAM?$AAi?$AAc?$AAr?$AAo?$AAs?$AAo?$AAf?$AAt?$AA?5?$AAV?$AAi?$AAs?$AAu?$AAa@ 1005d808     EventFiringObject.obj
 0002:00000894       ??_C@_1BC@MNKGOHDN@?$AAp?$AAp?$AAv?$AA?5?$AA?$CB?$AA?$DN?$AA?5?$AA0?$AA?$AA@ 1005d894     EventFiringObject.obj
 0002:000008ac       ??_7?$CComObjectCached@VCComClassFactory@ATL@@@ATL@@6B@ 1005d8ac     EventFiringObject.obj
 0002:000008c4       ??_7CComClassFactory@ATL@@6B@ 1005d8c4     EventFiringObject.obj
 0002:000008d8       ??_C@_1BO@CFNLNIPO@?$AAm?$AA_?$AAd?$AAw?$AAR?$AAe?$AAf?$AA?5?$AA?$CB?$AA?$DN?$AA?5?$AA?9?$AA1?$AAL?$AA?$AA@ 1005d8d8     EventFiringObject.obj
 0002:000008f8       ??_C@_1IE@KNGMNLO@?$AA0?$AA?5?$AA?$CG?$AA?$CG?$AA?5?$AA?$CC?$AAR?$AAe?$AAl?$AAe?$AAa?$AAs?$AAe?$AA?5?$AAc?$AAa?$AAl?$AAl?$AAe?$AAd?$AA?5?$AAo?$AAn?$AA?5?$AAa?$AA?5?$AAp?$AAo?$AAi?$AAn?$AAt?$AAe@ 1005d8f8     EventFiringObject.obj
 0002:00000980       ??_7?$CComObject@VCEventFiringObject@@@ATL@@6B?$CProxy_IEventFiringObjectEvents@VCEventFiringObject@@@@@ 1005d980     EventFiringObject.obj
 0002:000009a4       ??_7?$CComObject@VCEventFiringObject@@@ATL@@6B?$IDispatchImpl@UIEventFiringObject@@$1?IID_IEventFiringObject@@3U_GUID@@B$1?LIBID_EVENTFIRINGOBJECTLib@@3U3@B$00$0A@VCComTypeInfoHolder@ATL@@@1@@ 1005d9a4     EventFiringObject.obj
 0002:000009c8       ??_7?$CComObject@VCEventFiringObject@@@ATL@@6B?$IConnectionPointContainerImpl@VCEventFiringObject@@@1@@ 1005d9c8     EventFiringObject.obj
 0002:000009e0       ??_7?$CComObject@VCEventFiringObject@@@ATL@@6BISupportErrorInfo@@@ 1005d9e0     EventFiringObject.obj
 0002:000009f8       ??_7?$CProxy_IEventFiringObjectEvents@VCEventFiringObject@@@@6B@ 1005d9f8     EventFiringObject.obj
 0002:00000a18       __GUID_b196b285_bab4_101a_b69c_00aa00341d07 1005da18     EventFiringObject.obj
 0002:00000a28       __GUID_b196b286_bab4_101a_b69c_00aa00341d07 1005da28     EventFiringObject.obj
 0002:00000a38       ??_C@_1BO@IINBGKAE@?$AAp?$AAp?$AAv?$AAO?$AAb?$AAj?$AAe?$AAc?$AAt?$AA?5?$AA?$CB?$AA?$DN?$AA?5?$AA0?$AA?$AA@ 1005da38     EventFiringObject.obj
 0002:00000a58       __GUID_b196b284_bab4_101a_b69c_00aa00341d07 1005da58     EventFiringObject.obj
 0002:00000a6c       ??_7?$CComObject@V?$CComEnum@UIEnumConnectionPoints@@$1?_GUID_b196b285_bab4_101a_b69c_00aa00341d07@@3U__s_GUID@@BPAUIConnectionPoint@@V?$_CopyInterface@UIConnectionPoint@@@ATL@@VCComSingleThreadModel@6@@ATL@@@ATL@@6B@ 1005da6c     EventFiringObject.obj
 0002:00000a90       ?_entries@?1??_GetEntries@CEventFiringObject@@SGPBU_ATL_INTMAP_ENTRY@ATL@@XZ@4QBU34@B 1005da90     EventFiringObject.obj
 0002:00000ae4       ??_C@_0BD@NKPCANA@CEventFiringObject?$AA@ 1005dae4     EventFiringObject.obj
 0002:00000af8       __GUID_8e396cc0_a266_481e_b6b4_0cb564daa3bc 1005daf8     EventFiringObject.obj
 0002:00000b08       __GUID_00020400_0000_0000_c000_000000000046 1005db08     EventFiringObject.obj
 0002:00000b18       __GUID_df0b3d60_548f_101b_8e65_08002b2bd119 1005db18     EventFiringObject.obj
 0002:00000b2c       ??_7?$CComAggObject@VCEventFiringObject@@@ATL@@6B@ 1005db2c     EventFiringObject.obj
 0002:00000b3c       ?_entries@?1??_GetEntries@?$CComEnum@UIEnumConnectionPoints@@$1?_GUID_b196b285_bab4_101a_b69c_00aa00341d07@@3U__s_GUID@@BPAUIConnectionPoint@@V?$_CopyInterface@UIConnectionPoint@@@ATL@@VCComSingleThreadModel@6@@ATL@@SGPBU_ATL_INTMAP_ENTRY@3@XZ@4QBU43@B 1005db3c     EventFiringObject.obj
 0002:00000b60       ??_C@_09BEHAHIFA@_CComEnum?$AA@ 1005db60     EventFiringObject.obj
 0002:00000b70       ??_7?$CComContainedObject@VCEventFiringObject@@@ATL@@6B?$CProxy_IEventFiringObjectEvents@VCEventFiringObject@@@@@ 1005db70     EventFiringObject.obj
 0002:00000b94       ??_7?$CComContainedObject@VCEventFiringObject@@@ATL@@6B?$IDispatchImpl@UIEventFiringObject@@$1?IID_IEventFiringObject@@3U_GUID@@B$1?LIBID_EVENTFIRINGOBJECTLib@@3U3@B$00$0A@VCComTypeInfoHolder@ATL@@@1@@ 1005db94     EventFiringObject.obj
 0002:00000bb8       ??_7?$CComContainedObject@VCEventFiringObject@@@ATL@@6B?$IConnectionPointContainerImpl@VCEventFiringObject@@@1@@ 1005dbb8     EventFiringObject.obj
 0002:00000bd0       ??_7?$CComContainedObject@VCEventFiringObject@@@ATL@@6BISupportErrorInfo@@@ 1005dbd0     EventFiringObject.obj
 0002:00000be0       __GUID_b196b287_bab4_101a_b69c_00aa00341d07 1005dbe0     EventFiringObject.obj
 0002:00000bf0       ??_C@_1JA@COCEJDP@?$AAD?$AA?3?$AA?2?$AAP?$AAr?$AAo?$AAg?$AAr?$AAa?$AAm?$AA?5?$AAF?$AAi?$AAl?$AAe?$AAs?$AA?2?$AAM?$AAi?$AAc?$AAr?$AAo?$AAs?$AAo?$AAf?$AAt?$AA?5?$AAV?$AAi?$AAs?$AAu?$AAa@ 1005dbf0     EventFiringObject.obj
 0002:00000c80       ??_C@_13COJANIEC@?$AA0?$AA?$AA@ 1005dc80     EventFiringObject.obj
 0002:00000c88       ??_7?$CComObject@V?$CComEnum@UIEnumConnections@@$1?_GUID_b196b287_bab4_101a_b69c_00aa00341d07@@3U__s_GUID@@BUtagCONNECTDATA@@V?$_Copy@UtagCONNECTDATA@@@ATL@@VCComSingleThreadModel@6@@ATL@@@ATL@@6B@ 1005dc88     EventFiringObject.obj
 0002:00000ca8       ??_C@_1BM@GBBOFEAE@?$AA_?$AA_?$AAa?$AAt?$AAl?$AA_?$AAc?$AAo?$AAn?$AAd?$AAV?$AAa?$AAl?$AA?$AA@ 1005dca8     EventFiringObject.obj
 0002:00000cc4       ?_entries@?1??_GetEntries@?$CComEnum@UIEnumConnections@@$1?_GUID_b196b287_bab4_101a_b69c_00aa00341d07@@3U__s_GUID@@BUtagCONNECTDATA@@V?$_Copy@UtagCONNECTDATA@@@ATL@@VCComSingleThreadModel@6@@ATL@@SGPBU_ATL_INTMAP_ENTRY@3@XZ@4QBU43@B 1005dcc4     EventFiringObject.obj
 0002:00000ce8       ??_C@_0EJ@NCLLFEKG@D?3?2Program?5Files?2Microsoft?5Visua@ 1005dce8     EventFiringObject.obj
 0002:00000d34       ??_C@_0BF@IAAKIJDJ@AtlThrow?3?5hr?5?$DN?50x?$CFx?6?$AA@ 1005dd34     EventFiringObject.obj
 0002:00000d50       ??_C@_1IO@CBGBHIOO@?$AAD?$AA?3?$AA?2?$AAP?$AAr?$AAo?$AAg?$AAr?$AAa?$AAm?$AA?5?$AAF?$AAi?$AAl?$AAe?$AAs?$AA?2?$AAM?$AAi?$AAc?$AAr?$AAo?$AAs?$AAo?$AAf?$AAt?$AA?5?$AAV?$AAi?$AAs?$AAu?$AAa@ 1005dd50     EventFiringObject.obj
 0002:00000de0       ??_C@_1CA@MNJCDMEH@?$AA?$CB?$AAm?$AA_?$AAb?$AAI?$AAn?$AAi?$AAt?$AAi?$AAa?$AAl?$AAi?$AAz?$AAe?$AAd?$AA?$AA@ 1005dde0     EventFiringObject.obj
 0002:00000e00       ??_C@_1BC@KAILKFFG@?$AAR?$AAE?$AAG?$AAI?$AAS?$AAT?$AAR?$AAY?$AA?$AA@ 1005de00     EventFiringObject.obj
 0002:00000e14       ??_C@_1BG@JBACFMF@?$AAM?$AAo?$AAd?$AAu?$AAl?$AAe?$AA_?$AAR?$AAa?$AAw?$AA?$AA@ 1005de14     EventFiringObject.obj
 0002:00000e2c       ??_C@_1O@MNLDABAF@?$AAM?$AAo?$AAd?$AAu?$AAl?$AAe?$AA?$AA@ 1005de2c     EventFiringObject.obj
 0002:00000e40       ??_C@_1IO@LKJNCBLI@?$AAD?$AA?3?$AA?2?$AAP?$AAr?$AAo?$AAg?$AAr?$AAa?$AAm?$AA?5?$AAF?$AAi?$AAl?$AAe?$AAs?$AA?2?$AAM?$AAi?$AAc?$AAr?$AAo?$AAs?$AAo?$AAf?$AAt?$AA?5?$AAV?$AAi?$AAs?$AAu?$AAa@ 1005de40     EventFiringObject.obj
 0002:00000ed0       ??_C@_1DC@HEJCCJC@?$AA0?$AA?5?$AA?$CB?$AA?$DN?$AA?5?$AAp?$AAM?$AAa?$AAp?$AAE?$AAn?$AAt?$AAr?$AAi?$AAe?$AAs?$AA?9?$AA?$DO?$AAs?$AAz?$AAD?$AAa?$AAt?$AAa?$AA?$AA@ 1005ded0     EventFiringObject.obj
 0002:00000f04       ??_C@_1BC@GCPDCDFJ@?$AAl?$AAp?$AAw?$AA?5?$AA?$CB?$AA?$DN?$AA?5?$AA0?$AA?$AA@ 1005df04     EventFiringObject.obj
 0002:00000f18       ??_C@_1IO@OOMHCPEA@?$AAD?$AA?3?$AA?2?$AAP?$AAr?$AAo?$AAg?$AAr?$AAa?$AAm?$AA?5?$AAF?$AAi?$AAl?$AAe?$AAs?$AA?2?$AAM?$AAi?$AAc?$AAr?$AAo?$AAs?$AAo?$AAf?$AAt?$AA?5?$AAV?$AAi?$AAs?$AAu?$AAa@ 1005df18     EventFiringObject.obj
 0002:00000fa8       ??_C@_1BC@PMIDFEID@?$AAl?$AAp?$AAa?$AA?5?$AA?$CB?$AA?$DN?$AA?5?$AA0?$AA?$AA@ 1005dfa8     EventFiringObject.obj
 0002:00000fc0       ??_7CRegObject@ATL@@6B@    1005dfc0     EventFiringObject.obj
 0002:00000fd8       ??_C@_1IO@BELMAAEM@?$AAD?$AA?3?$AA?2?$AAP?$AAr?$AAo?$AAg?$AAr?$AAa?$AAm?$AA?5?$AAF?$AAi?$AAl?$AAe?$AAs?$AA?2?$AAM?$AAi?$AAc?$AAr?$AAo?$AAs?$AAo?$AAf?$AAt?$AA?5?$AAV?$AAi?$AAs?$AAu?$AAa@ 1005dfd8     EventFiringObject.obj
 0002:00001068       ??_C@_1KA@DCHELMLM@?$AA?$CC?$AAs?$AAt?$AAa?$AAt?$AAi?$AAc?$AAa?$AAl?$AAl?$AAy?$AA?5?$AAl?$AAi?$AAn?$AAk?$AAe?$AAd?$AA?5?$AAi?$AAn?$AA?5?$AAC?$AAR?$AAe?$AAg?$AAO?$AAb?$AAj?$AAe?$AAc?$AAt@ 1005e068     EventFiringObject.obj
 0002:00001108       ??_C@_0EO@FOFJGMBM@statically?5linked?5in?5CRegObject?5@ 1005e108     EventFiringObject.obj
 0002:00001158       ??_C@_1DO@EIGOLNAA@?$AAl?$AAp?$AAs?$AAz?$AAK?$AAe?$AAy?$AA?5?$AA?$CB?$AA?$DN?$AA?5?$AA0?$AA?5?$AA?$CG?$AA?$CG?$AA?5?$AAl?$AAp?$AAs?$AAz?$AAV?$AAa?$AAl?$AAu?$AAe?$AA?5?$AA?$CB?$AA?$DN?$AA?5?$AA0?$AA?$AA@ 1005e158     EventFiringObject.obj
 0002:00001198       ??_C@_0BI@LNHJMEOP@Failed?5to?5LoadResource?6?$AA@ 1005e198     EventFiringObject.obj
 0002:000011b0       ??_C@_0CJ@COPMGFKA@Failed?5to?5FindResource?5on?5ID?3?$CFs?5@ 1005e1b0     EventFiringObject.obj
 0002:000011dc       ??_C@_0CJ@KJDBLEOI@Failed?5to?5FindResource?5on?5ID?3?$CFd?5@ 1005e1dc     EventFiringObject.obj
 0002:00001208       ??_C@_0EH@BGNAIFEM@D?3?2Program?5Files?2Microsoft?5Visua@ 1005e208     EventFiringObject.obj
 0002:00001250       ??_C@_0BN@HGJLNPOD@Failed?5to?5LoadLibrary?5on?5?$CFs?6?$AA@ 1005e250     EventFiringObject.obj
 0002:00001270       ??_C@_0CC@MOJNOPNN@Failed?5to?5register?0?5cleaning?5up?$CB@ 1005e270     EventFiringObject.obj
 0002:00001294       ??_C@_0CJ@JJEGIHLG@Syntax?5error?0?5expecting?5a?5?$HL?0?5fou@ 1005e294     EventFiringObject.obj
 0002:000012c0       ??_C@_0BN@HJIJAHEL@HKeyFromString?5failed?5on?5?$CFs?6?$AA@ 1005e2c0     EventFiringObject.obj
 0002:000012e0       ??_C@_03OFAPEBGM@?$CFs?6?$AA@ 1005e2e0     EventFiringObject.obj
 0002:000012e8       ?map@?2??HKeyFromString@CRegParser@ATL@@KAPAUHKEY__@@PAD@Z@4QBUkeymap@?1??123@KAPAU4@0@Z@B 1005e2e8     EventFiringObject.obj
 0002:00001358       ??_C@_04OHBKMIBJ@HKCR?$AA@ 1005e358     EventFiringObject.obj
 0002:00001360       ??_C@_04KIFLFONO@HKCU?$AA@ 1005e360     EventFiringObject.obj
 0002:00001368       ??_C@_04CBBMIBLK@HKLM?$AA@ 1005e368     EventFiringObject.obj
 0002:00001370       ??_C@_03DLBIJLAB@HKU?$AA@  1005e370     EventFiringObject.obj
 0002:00001374       ??_C@_04OFOCGAOH@HKPD?$AA@ 1005e374     EventFiringObject.obj
 0002:0000137c       ??_C@_04POMNGLEL@HKDD?$AA@ 1005e37c     EventFiringObject.obj
 0002:00001384       ??_C@_04LEMDOLAJ@HKCC?$AA@ 1005e384     EventFiringObject.obj
 0002:0000138c       ??_C@_0BC@JBJOLKMF@HKEY_CLASSES_ROOT?$AA@ 1005e38c     EventFiringObject.obj
 0002:000013a0       ??_C@_0BC@GMMMKLBI@HKEY_CURRENT_USER?$AA@ 1005e3a0     EventFiringObject.obj
 0002:000013b4       ??_C@_0BD@GIIFIKDM@HKEY_LOCAL_MACHINE?$AA@ 1005e3b4     EventFiringObject.obj
 0002:000013c8       ??_C@_0L@OEMMANAM@HKEY_USERS?$AA@ 1005e3c8     EventFiringObject.obj
 0002:000013d4       ??_C@_0BG@IDBEHNDO@HKEY_PERFORMANCE_DATA?$AA@ 1005e3d4     EventFiringObject.obj
 0002:000013ec       ??_C@_0O@MJDLIIGK@HKEY_DYN_DATA?$AA@ 1005e3ec     EventFiringObject.obj
 0002:000013fc       ??_C@_0BE@NLNNHLLF@HKEY_CURRENT_CONFIG?$AA@ 1005e3fc     EventFiringObject.obj
 0002:00001410       ??_C@_0CE@HPLFHOFC@NextToken?5?3?5Unexpected?5End?5of?5Fi@ 1005e410     EventFiringObject.obj
 0002:00001434       ??_C@_0BL@HDJEDLOC@Error?5no?5closing?5?$CF?$CF?5found?6?$AA@ 1005e434     EventFiringObject.obj
 0002:00001450       ??_C@_1BK@DGLFCBHI@?$AAp?$AAp?$AAs?$AAz?$AAR?$AAe?$AAg?$AA?5?$AA?$CB?$AA?$DN?$AA?5?$AA0?$AA?$AA@ 1005e450     EventFiringObject.obj
 0002:0000146c       ??_C@_1BK@ODFKMBGC@?$AAl?$AAp?$AAs?$AAz?$AAR?$AAe?$AAg?$AA?5?$AA?$CB?$AA?$DN?$AA?5?$AA0?$AA?$AA@ 1005e46c     EventFiringObject.obj
 0002:00001488       ??_C@_1O@JFMKDNFA@?$AAp?$AA?5?$AA?$CB?$AA?$DN?$AA?5?$AA0?$AA?$AA@ 1005e488     EventFiringObject.obj
 0002:00001498       ??_C@_0BF@KHDDAOIJ@Map?5Entry?5not?5found?6?$AA@ 1005e498     EventFiringObject.obj
 0002:000014b0       ??_C@_0BB@FDAMNOMP@Deleting?5Key?5?$CFs?6?$AA@ 1005e4b0     EventFiringObject.obj
 0002:000014c4       ??_C@_0CH@OEJDLABI@Deleting?5non?9empty?5subkey?5?$CFs?5by?5@ 1005e4c4     EventFiringObject.obj
 0002:000014ec       ??_C@_0BG@OEFMOOAA@Ending?5Recovery?5Mode?6?$AA@ 1005e4ec     EventFiringObject.obj
 0002:00001504       ??_C@_0CM@LEFFDKCG@Ignoring?5Open?5key?5on?5?$CFs?5?3?5In?5Rec@ 1005e504     EventFiringObject.obj
 0002:00001530       ??_C@_0P@IONAJCEO@Opened?5Key?5?$CFs?6?$AA@ 1005e530     EventFiringObject.obj
 0002:00001540       ??_C@_0BB@POOIJOEN@Creating?5key?5?$CFs?6?$AA@ 1005e540     EventFiringObject.obj
 0002:00001554       ??_C@_0N@GKIPNAL@Deleting?5?$CFs?6?$AA@ 1005e554     EventFiringObject.obj
 0002:00001564       ??_C@_0O@EHICPHFJ@Num?5Els?5?$DN?5?$CFd?6?$AA@ 1005e564     EventFiringObject.obj
 0002:00001574       ??_C@_1BI@JPOONHGO@?$AAm?$AA_?$AAh?$AAK?$AAe?$AAy?$AA?5?$AA?$DN?$AA?$DN?$AA?5?$AA0?$AA?$AA@ 1005e574     EventFiringObject.obj
 0002:0000158c       ??_C@_1BI@KCHMLGAI@?$AAm?$AA_?$AAh?$AAK?$AAe?$AAy?$AA?5?$AA?$CB?$AA?$DN?$AA?5?$AA0?$AA?$AA@ 1005e58c     EventFiringObject.obj
 0002:000015a4       ??_C@_1CA@JAHJEEHI@?$AAh?$AAK?$AAe?$AAy?$AAP?$AAa?$AAr?$AAe?$AAn?$AAt?$AA?5?$AA?$CB?$AA?$DN?$AA?5?$AA0?$AA?$AA@ 1005e5a4     EventFiringObject.obj
 0002:000015c4       ??_C@_1BG@OMKLFNDM@?$AAl?$AAR?$AAe?$AAs?$AA?5?$AA?$DN?$AA?$DN?$AA?5?$AA0?$AAL?$AA?$AA@ 1005e5c4     EventFiringObject.obj
 0002:000015e0       ??_C@_0EH@GKGLLCCA@D?3?2Program?5Files?2Microsoft?5Visua@ 1005e5e0     EventFiringObject.obj
 0002:00001628       ??_C@_0DP@JOHDIOJH@CRegKey?3?3RecurseDeleteKey?5?3?5Fail@ 1005e628     EventFiringObject.obj
 0002:00001668       ??_C@_0CN@BAKOHBFP@Binary?5Data?5does?5not?5fall?5on?5BYT@ 1005e668     EventFiringObject.obj
 0002:00001698       ??_C@_0BI@NDCHGJG@Setting?5Value?5?$CFd?5at?5?$CFs?6?$AA@ 1005e698     EventFiringObject.obj
 0002:000016b0       ??_C@_0BI@MFJDFJCO@Setting?5Value?5?$CFs?5at?5?$CFs?6?$AA@ 1005e6b0     EventFiringObject.obj
 0002:000016c8       ??_C@_07DLHCIBDH@default?$AA@ 1005e6c8     EventFiringObject.obj
 0002:000016d0       ??_C@_0BH@IHOFLOMJ@?$CFs?5Type?5not?5supported?6?$AA@ 1005e6d0     EventFiringObject.obj
 0002:000016e8       ??_C@_1EO@OGKOBPLN@?$AA?$CI?$AAd?$AAw?$AAT?$AAy?$AAp?$AAe?$AA?5?$AA?$DN?$AA?$DN?$AA?5?$AA?$CI?$AA?5?$AA1?$AA?5?$AA?$CJ?$AA?$CJ?$AA?5?$AA?$HM?$AA?$HM?$AA?5?$AA?$CI?$AAd?$AAw?$AAT?$AAy?$AAp?$AAe?$AA?5?$AA?$DN?$AA?$DN?$AA?5@ 1005e6e8     EventFiringObject.obj
 0002:00001738       ??_C@_0CL@PILPOMLI@Bogus?5value?5?$CFc?5passed?5as?5binary?5@ 1005e738     EventFiringObject.obj
 0002:00001764       ??_C@_0BG@OFKLEKA@Should?5not?5be?5here?$CB?$CB?6?$AA@ 1005e764     EventFiringObject.obj
 0002:0000177c       __GUID_00000000_0000_0000_c000_000000000046 1005e77c     EventFiringObject.obj
 0002:00001790       ??_C@_0EH@BABLPHCB@ERROR?5?3?5Unable?5to?5lock?5critical?5@ 1005e790     EventFiringObject.obj
 0002:000017d8       ??_C@_0BI@LFOHFLDB@?2Implemented?5Categories?$AA@ 1005e7d8     EventFiringObject.obj
 0002:000017f0       ??_C@_0BF@CCIMKLEB@?2Required?5Categories?$AA@ 1005e7f0     EventFiringObject.obj
 0002:00001808       ??_C@_06JHNIBAJK@CLSID?2?$AA@ 1005e808     EventFiringObject.obj
 0002:00001810       ??_C@_1CG@IDMIONOG@?$AAp?$AAE?$AAn?$AAt?$AAr?$AAy?$AA?9?$AA?$DO?$AAi?$AAT?$AAy?$AAp?$AAe?$AA?5?$AA?$DN?$AA?$DN?$AA?5?$AA2?$AA?$AA@ 1005e810     EventFiringObject.obj
 0002:00001838       __GUID_0002e012_0000_0000_c000_000000000046 1005e838     EventFiringObject.obj
 0002:00001848       ??_C@_1OI@HIMHHOFM@?$AA0?$AA?5?$AA?$CG?$AA?$CG?$AA?5?$AA?$CC?$AAU?$AAs?$AAe?$AA?5?$AAO?$AAB?$AAJ?$AAE?$AAC?$AAT?$AA_?$AAE?$AAN?$AAT?$AAR?$AAY?$AA_?$AAN?$AAO?$AAN?$AA_?$AAC?$AAR?$AAE?$AAA?$AAT@ 1005e848     EventFiringObject.obj
 0002:00001930       ??_C@_1GE@KALDMMBC@?$AAp?$AAE?$AAn?$AAt?$AAr?$AAi?$AAe?$AAs?$AA?9?$AA?$DO?$AAp?$AAF?$AAu?$AAn?$AAc?$AA?5?$AA?$DN?$AA?$DN?$AA?5?$AA?$CI?$AA?$CI?$AAA?$AAT?$AAL?$AA?3?$AA?3?$AA_?$AAA?$AAT?$AAL?$AA_?$AAC@ 1005e930     EventFiringObject.obj
 0002:00001994       ??_C@_1BG@PEGMCOIG@?$AAp?$AAT?$AAh?$AAi?$AAs?$AA?5?$AA?$CB?$AA?$DN?$AA?5?$AA0?$AA?$AA@ 1005e994     EventFiringObject.obj
 0002:000019ac       ??_C@_1BK@MDGGGAPK@?$AAm?$AA_?$AAd?$AAw?$AAR?$AAe?$AAf?$AA?5?$AA?$DN?$AA?$DN?$AA?5?$AA0?$AA?$AA@ 1005e9ac     EventFiringObject.obj
 0002:000019c8       ?_entries@?1??_GetEntries@CComClassFactory@ATL@@SGPBU_ATL_INTMAP_ENTRY@3@XZ@4QBU43@B 1005e9c8     EventFiringObject.obj
 0002:000019ec       ??_C@_0BB@PADCHBLN@CComClassFactory?$AA@ 1005e9ec     EventFiringObject.obj
 0002:00001a00       __GUID_00000001_0000_0000_c000_000000000046 1005ea00     EventFiringObject.obj
 0002:00001a10       ??_C@_0EG@IGLNPMLB@D?3?2Program?5Files?2Microsoft?5Visua@ 1005ea10     EventFiringObject.obj
 0002:00001a58       ??_C@_0FH@OCMNPHBO@CComClassFactory?3?5asked?5for?5non?5@ 1005ea58     EventFiringObject.obj
 0002:00001ab0       ??_C@_1DC@ENLDIEGP@?$AAm?$AA_?$AAp?$AAf?$AAn?$AAC?$AAr?$AAe?$AAa?$AAt?$AAe?$AAI?$AAn?$AAs?$AAt?$AAa?$AAn?$AAc?$AAe?$AA?5?$AA?$CB?$AA?$DN?$AA?5?$AA0?$AA?$AA@ 1005eab0     EventFiringObject.obj
 0002:00001ae4       ??_C@_1BI@MCKDPFMC@?$AAp?$AAp?$AAI?$AAn?$AAf?$AAo?$AA?5?$AA?$CB?$AA?$DN?$AA?5?$AA0?$AA?$AA@ 1005eae4     EventFiringObject.obj
 0002:00001b00       ??_C@_0FB@GGFNIACC@?7IDispatchImpl?0?5CStockPropImpl?0?5@ 1005eb00     EventFiringObject.obj
 0002:00001b54       ??_C@_0DE@PFCDKHBK@?7Verify?5TypelibID?5and?5major?5vers@ 1005eb54     EventFiringObject.obj
 0002:00001b88       ??_C@_0DG@JANIJOBP@ERROR?5?3?5Unable?5to?5load?5Typelibra@ 1005eb88     EventFiringObject.obj
 0002:00001bc0       ??_C@_0DN@OOAEELGE@?7See?5IDispatchImpl?5overview?5help@ 1005ebc0     EventFiringObject.obj
 0002:00001c00       ??_C@_0GE@IPBGNBKO@Warning?5?3?5CComTypeInfoHolder?3?3Ge@ 1005ec00     EventFiringObject.obj
 0002:00001c68       ??_C@_0EG@JLAFHAGH@ERROR?5?3?5Unable?5to?5lock?5critical?5@ 1005ec68     EventFiringObject.obj
 0002:00001cb0       ??_C@_1MI@CNHFLGMP@?$AA?$CB?$AAI?$AAn?$AAl?$AAi?$AAn?$AAe?$AAI?$AAs?$AAE?$AAq?$AAu?$AAa?$AAl?$AAG?$AAU?$AAI?$AAD?$AA?$CI?$AA?$CK?$AAm?$AA_?$AAp?$AAl?$AAi?$AAb?$AAi?$AAd?$AA?0?$AA?5?$AAG?$AAU@ 1005ecb0     EventFiringObject.obj
 0002:00001d78       ??_C@_0DG@CJCBGKEH@Did?5you?5forget?5to?5pass?5the?5LIBID@ 1005ed78     EventFiringObject.obj
 0002:00001db0       ??_C@_1DM@FHENBGPF@?$AAm?$AA_?$AAp?$AAl?$AAi?$AAb?$AAi?$AAd?$AA?5?$AA?$CB?$AA?$DN?$AA?5?$AA0?$AA?5?$AA?$CG?$AA?$CG?$AA?5?$AAm?$AA_?$AAp?$AAg?$AAu?$AAi?$AAd?$AA?5?$AA?$CB?$AA?$DN?$AA?5?$AA0?$AA?$AA@ 1005edb0     EventFiringObject.obj
 0002:00001dec       ??_C@_1BA@CAHHGEAC@?$AAd?$AAw?$AA?5?$AA?$CB?$AA?$DN?$AA?5?$AA0?$AA?$AA@ 1005edec     EventFiringObject.obj
 0002:00001dfc       ??_C@_1CE@GFEBMKPP@?$AAp?$AAp?$AAF?$AAi?$AAn?$AAd?$AA?5?$AA?$CG?$AA?$CG?$AA?5?$AA?$CK?$AAp?$AAp?$AAF?$AAi?$AAn?$AAd?$AA?$AA@ 1005edfc     EventFiringObject.obj
 0002:00001e20       ??_C@_1FI@CDNFCAGD@?$AAd?$AAw?$AAC?$AAo?$AAo?$AAk?$AAi?$AAe?$AA?5?$AA?$CB?$AA?$DN?$AA?5?$AA0?$AA?5?$AA?$CG?$AA?$CG?$AA?5?$AAd?$AAw?$AAC?$AAo?$AAo?$AAk?$AAi?$AAe?$AA?5?$AA?$DM?$AA?$DN?$AA?5?$AA?$CI?$AAD?$AAW@ 1005ee20     EventFiringObject.obj
 0002:00001e78       ??_C@_1EA@JHMKKLFC@?$AAn?$AAI?$AAn?$AAd?$AAe?$AAx?$AA?5?$AA?$DO?$AA?$DN?$AA?5?$AA0?$AA?5?$AA?$CG?$AA?$CG?$AA?5?$AAn?$AAI?$AAn?$AAd?$AAe?$AAx?$AA?5?$AA?$DM?$AA?5?$AAm?$AA_?$AAn?$AAS?$AAi?$AAz?$AAe?$AA?$AA@ 1005ee78     EventFiringObject.obj
 0002:00001eb8       ??_C@_1EO@PKGIEOJK@?$AAi?$AAd?$AAx?$AA?5?$AA?$DM?$AA?5?$AAd?$AAw?$AAC?$AAo?$AAo?$AAk?$AAi?$AAe?$AA?5?$AA?$CG?$AA?$CG?$AA?5?$AAi?$AAd?$AAx?$AA?5?$AA?$DM?$AA?5?$AA?$CI?$AAD?$AAW?$AAO?$AAR?$AAD?$AA?$CJ?$AAm@ 1005eeb8     EventFiringObject.obj
 0002:00001f08       ??_C@_1JG@BCNCDLLN@?$AAD?$AA?3?$AA?2?$AAP?$AAr?$AAo?$AAg?$AAr?$AAa?$AAm?$AA?5?$AAF?$AAi?$AAl?$AAe?$AAs?$AA?2?$AAM?$AAi?$AAc?$AAr?$AAo?$AAs?$AAo?$AAf?$AAt?$AA?5?$AAV?$AAi?$AAs?$AAu?$AAa@ 1005ef08     EventFiringObject.obj
 0002:00001fa0       ??_C@_1EA@JIHAIGJA@?$AAp?$AAC?$AAo?$AAm?$AAM?$AAo?$AAd?$AAu?$AAl?$AAe?$AA?9?$AA?$DO?$AAm?$AA_?$AAh?$AAI?$AAn?$AAs?$AAt?$AAT?$AAy?$AAp?$AAe?$AAL?$AAi?$AAb?$AA?5?$AA?$CB?$AA?$DN?$AA?5?$AA0?$AA?$AA@ 1005efa0     EventFiringObject.obj
 0002:00001fe0       ??_C@_1CA@GAOMIJFK@?$AAp?$AAC?$AAo?$AAm?$AAM?$AAo?$AAd?$AAu?$AAl?$AAe?$AA?5?$AA?$CB?$AA?$DN?$AA?5?$AA0?$AA?$AA@ 1005efe0     EventFiringObject.obj
 0002:00002000       ??_C@_04LFHHJFCN@?4tlb?$AA@ 1005f000     EventFiringObject.obj
 0002:00002008       ??_C@_1CE@MNLFIKHJ@?$AAh?$AAI?$AAn?$AAs?$AAt?$AAT?$AAy?$AAp?$AAe?$AAL?$AAi?$AAb?$AA?5?$AA?$CB?$AA?$DN?$AA?5?$AA0?$AA?$AA@ 1005f008     EventFiringObject.obj
 0002:00002030       ??_C@_1EC@GOCPDDCL@?$AAp?$AAb?$AAs?$AAt?$AAr?$AAP?$AAa?$AAt?$AAh?$AA?5?$AA?$CB?$AA?$DN?$AA?5?$AA0?$AA?5?$AA?$CG?$AA?$CG?$AA?5?$AAp?$AAp?$AAT?$AAy?$AAp?$AAe?$AAL?$AAi?$AAb?$AA?5?$AA?$CB?$AA?$DN?$AA?5?$AA0@ 1005f030     EventFiringObject.obj
 0002:00002074       ??_C@_1BC@EMCLECFJ@?$AAm?$AA_?$AAp?$AA?5?$AA?$DN?$AA?$DN?$AA?5?$AA0?$AA?$AA@ 1005f074     EventFiringObject.obj
 0002:00002088       ??_C@_1JC@BGAHAEII@?$AAD?$AA?3?$AA?2?$AAP?$AAr?$AAo?$AAg?$AAr?$AAa?$AAm?$AA?5?$AAF?$AAi?$AAl?$AAe?$AAs?$AA?2?$AAM?$AAi?$AAc?$AAr?$AAo?$AAs?$AAo?$AAf?$AAt?$AA?5?$AAV?$AAi?$AAs?$AAu?$AAa@ 1005f088     EventFiringObject.obj
 0002:0000211c       ??_C@_19LMDLLIGP@?$AAp?$AA?$DN?$AA?$DN?$AA0?$AA?$AA@ 1005f11c     EventFiringObject.obj
 0002:00002128       ??_C@_19JHCPJMAL@?$AAp?$AA?$CB?$AA?$DN?$AA0?$AA?$AA@ 1005f128     EventFiringObject.obj
 0002:00002134       ??_C@_1BE@NPGJNKLA@?$AAm?$AA_?$AAb?$AAL?$AAo?$AAc?$AAk?$AAe?$AAd?$AA?$AA@ 1005f134     EventFiringObject.obj
 0002:00002148       ??_C@_1BG@OHCCAGNO@?$AA?$CB?$AAm?$AA_?$AAb?$AAL?$AAo?$AAc?$AAk?$AAe?$AAd?$AA?$AA@ 1005f148     EventFiringObject.obj
 0002:00002160       __GUID_00020412_0000_0000_c000_000000000046 1005f160     EventFiringObject.obj
 0002:00002170       __GUID_00020401_0000_0000_c000_000000000046 1005f170     EventFiringObject.obj
 0002:00002180       ??_C@_1BM@NFPICFEL@?$AA_?$AAp?$AAM?$AAo?$AAd?$AAu?$AAl?$AAe?$AA?5?$AA?$DN?$AA?$DN?$AA?5?$AA0?$AA?$AA@ 1005f180     EventFiringObject.obj
 0002:000021a0       ??_7CComModule@ATL@@6B@    1005f1a0     EventFiringObject.obj
 0002:000021c8       ??_C@_1BI@JBLBCKD@?$AAm?$AA_?$AAp?$AAG?$AAI?$AAT?$AA?5?$AA?$CB?$AA?$DN?$AA?5?$AA0?$AA?$AA@ 1005f1c8     EventFiringObject.obj
 0002:000021e0       __GUID_00000146_0000_0000_c000_000000000046 1005f1e0     EventFiringObject.obj
 0002:000021f0       ??_C@_1BG@LENCCAOJ@?$AAp?$AAp?$AAG?$AAI?$AAT?$AA?5?$AA?$CB?$AA?$DN?$AA?5?$AA0?$AA?$AA@ 1005f1f0     EventFiringObject.obj
 0002:00002208       ??_C@_0DN@JALIHHGH@ERROR?5?3?5Unable?5to?5initialize?5cri@ 1005f208     EventFiringObject.obj
 0002:00002248       ??_C@_1CC@DNHFMIHP@?$AA_?$AAp?$AAA?$AAt?$AAl?$AAM?$AAo?$AAd?$AAu?$AAl?$AAe?$AA?5?$AA?$DN?$AA?$DN?$AA?5?$AA0?$AA?$AA@ 1005f248     EventFiringObject.obj
 0002:0000226c       ??_C@_1M@PPPPCDEP@?$AAA?$AAP?$AAP?$AAI?$AAD?$AA?$AA@ 1005f26c     EventFiringObject.obj
 0002:00002278       ??_C@_11LOCGONAA@?$AA?$AA@ 1005f278     EventFiringObject.obj
 0002:00002768       ?_Min@?$AtlLimits@H@ATL@@2HB 1005f768     StdAfx.obj
 0002:0000276c       ?_Max@?$AtlLimits@H@ATL@@2HB 1005f76c     StdAfx.obj
 0002:00002770       ?_Min@?$AtlLimits@I@ATL@@2IB 1005f770     StdAfx.obj
 0002:00002774       ?_Max@?$AtlLimits@I@ATL@@2IB 1005f774     StdAfx.obj
 0002:00002778       ?_Min@?$AtlLimits@J@ATL@@2JB 1005f778     StdAfx.obj
 0002:0000277c       ?_Max@?$AtlLimits@J@ATL@@2JB 1005f77c     StdAfx.obj
 0002:00002780       ?_Min@?$AtlLimits@K@ATL@@2KB 1005f780     StdAfx.obj
 0002:00002784       ?_Max@?$AtlLimits@K@ATL@@2KB 1005f784     StdAfx.obj
 0002:00002788       ?_Min@?$AtlLimits@_J@ATL@@2_JB 1005f788     StdAfx.obj
 0002:00002790       ?_Max@?$AtlLimits@_J@ATL@@2_JB 1005f790     StdAfx.obj
 0002:00002798       ?_Min@?$AtlLimits@_K@ATL@@2_KB 1005f798     StdAfx.obj
 0002:000027a0       ?_Max@?$AtlLimits@_K@ATL@@2_KB 1005f7a0     StdAfx.obj
 0002:000027a8       ?VT@?$CVarTypeInfo@D@ATL@@2GB 1005f7a8     StdAfx.obj
 0002:000027ac       ?pmField@?$CVarTypeInfo@D@ATL@@2QQtagVARIANT@@DQ3@ 1005f7ac     StdAfx.obj
 0002:000027b0       ?VT@?$CVarTypeInfo@E@ATL@@2GB 1005f7b0     StdAfx.obj
 0002:000027b4       ?pmField@?$CVarTypeInfo@E@ATL@@2QQtagVARIANT@@EQ3@ 1005f7b4     StdAfx.obj
 0002:000027b8       ?VT@?$CVarTypeInfo@PAD@ATL@@2GB 1005f7b8     StdAfx.obj
 0002:000027bc       ?pmField@?$CVarTypeInfo@PAD@ATL@@2QQtagVARIANT@@PADQ3@ 1005f7bc     StdAfx.obj
 0002:000027c0       ?VT@?$CVarTypeInfo@PAE@ATL@@2GB 1005f7c0     StdAfx.obj
 0002:000027c4       ?pmField@?$CVarTypeInfo@PAE@ATL@@2QQtagVARIANT@@PAEQ3@ 1005f7c4     StdAfx.obj
 0002:000027c8       ?VT@?$CVarTypeInfo@F@ATL@@2GB 1005f7c8     StdAfx.obj
 0002:000027cc       ?pmField@?$CVarTypeInfo@F@ATL@@2QQtagVARIANT@@FQ3@ 1005f7cc     StdAfx.obj
 0002:000027d0       ?VT@?$CVarTypeInfo@PAF@ATL@@2GB 1005f7d0     StdAfx.obj
 0002:000027d4       ?pmField@?$CVarTypeInfo@PAF@ATL@@2QQtagVARIANT@@PAFQ3@ 1005f7d4     StdAfx.obj
 0002:000027d8       ?VT@?$CVarTypeInfo@G@ATL@@2GB 1005f7d8     StdAfx.obj
 0002:000027dc       ?pmField@?$CVarTypeInfo@G@ATL@@2QQtagVARIANT@@GQ3@ 1005f7dc     StdAfx.obj
 0002:000027e0       ?VT@?$CVarTypeInfo@PAG@ATL@@2GB 1005f7e0     StdAfx.obj
 0002:000027e4       ?pmField@?$CVarTypeInfo@PAG@ATL@@2QQtagVARIANT@@PAGQ3@ 1005f7e4     StdAfx.obj
 0002:000027e8       ?VT@?$CVarTypeInfo@H@ATL@@2GB 1005f7e8     StdAfx.obj
 0002:000027ec       ?pmField@?$CVarTypeInfo@H@ATL@@2QQtagVARIANT@@HQ3@ 1005f7ec     StdAfx.obj
 0002:000027f0       ?VT@?$CVarTypeInfo@PAH@ATL@@2GB 1005f7f0     StdAfx.obj
 0002:000027f4       ?pmField@?$CVarTypeInfo@PAH@ATL@@2QQtagVARIANT@@PAHQ3@ 1005f7f4     StdAfx.obj
 0002:000027f8       ?VT@?$CVarTypeInfo@I@ATL@@2GB 1005f7f8     StdAfx.obj
 0002:000027fc       ?pmField@?$CVarTypeInfo@I@ATL@@2QQtagVARIANT@@IQ3@ 1005f7fc     StdAfx.obj
 0002:00002800       ?VT@?$CVarTypeInfo@PAI@ATL@@2GB 1005f800     StdAfx.obj
 0002:00002804       ?pmField@?$CVarTypeInfo@PAI@ATL@@2QQtagVARIANT@@PAIQ3@ 1005f804     StdAfx.obj
 0002:00002808       ?VT@?$CVarTypeInfo@J@ATL@@2GB 1005f808     StdAfx.obj
 0002:0000280c       ?pmField@?$CVarTypeInfo@J@ATL@@2QQtagVARIANT@@JQ3@ 1005f80c     StdAfx.obj
 0002:00002810       ?VT@?$CVarTypeInfo@PAJ@ATL@@2GB 1005f810     StdAfx.obj
 0002:00002814       ?pmField@?$CVarTypeInfo@PAJ@ATL@@2QQtagVARIANT@@PAJQ3@ 1005f814     StdAfx.obj
 0002:00002818       ?VT@?$CVarTypeInfo@K@ATL@@2GB 1005f818     StdAfx.obj
 0002:0000281c       ?pmField@?$CVarTypeInfo@K@ATL@@2QQtagVARIANT@@KQ3@ 1005f81c     StdAfx.obj
 0002:00002820       ?VT@?$CVarTypeInfo@PAK@ATL@@2GB 1005f820     StdAfx.obj
 0002:00002824       ?pmField@?$CVarTypeInfo@PAK@ATL@@2QQtagVARIANT@@PAKQ3@ 1005f824     StdAfx.obj
 0002:00002828       ?VT@?$CVarTypeInfo@_J@ATL@@2GB 1005f828     StdAfx.obj
 0002:0000282c       ?pmField@?$CVarTypeInfo@_J@ATL@@2QQtagVARIANT@@_JQ3@ 1005f82c     StdAfx.obj
 0002:00002830       ?VT@?$CVarTypeInfo@PA_J@ATL@@2GB 1005f830     StdAfx.obj
 0002:00002834       ?pmField@?$CVarTypeInfo@PA_J@ATL@@2QQtagVARIANT@@PA_JQ3@ 1005f834     StdAfx.obj
 0002:00002838       ?VT@?$CVarTypeInfo@_K@ATL@@2GB 1005f838     StdAfx.obj
 0002:0000283c       ?pmField@?$CVarTypeInfo@_K@ATL@@2QQtagVARIANT@@_KQ3@ 1005f83c     StdAfx.obj
 0002:00002840       ?VT@?$CVarTypeInfo@PA_K@ATL@@2GB 1005f840     StdAfx.obj
 0002:00002844       ?pmField@?$CVarTypeInfo@PA_K@ATL@@2QQtagVARIANT@@PA_KQ3@ 1005f844     StdAfx.obj
 0002:00002848       ?VT@?$CVarTypeInfo@M@ATL@@2GB 1005f848     StdAfx.obj
 0002:0000284c       ?pmField@?$CVarTypeInfo@M@ATL@@2QQtagVARIANT@@MQ3@ 1005f84c     StdAfx.obj
 0002:00002850       ?VT@?$CVarTypeInfo@PAM@ATL@@2GB 1005f850     StdAfx.obj
 0002:00002854       ?pmField@?$CVarTypeInfo@PAM@ATL@@2QQtagVARIANT@@PAMQ3@ 1005f854     StdAfx.obj
 0002:00002858       ?VT@?$CVarTypeInfo@N@ATL@@2GB 1005f858     StdAfx.obj
 0002:0000285c       ?pmField@?$CVarTypeInfo@N@ATL@@2QQtagVARIANT@@NQ3@ 1005f85c     StdAfx.obj
 0002:00002860       ?VT@?$CVarTypeInfo@PAN@ATL@@2GB 1005f860     StdAfx.obj
 0002:00002864       ?pmField@?$CVarTypeInfo@PAN@ATL@@2QQtagVARIANT@@PANQ3@ 1005f864     StdAfx.obj
 0002:00002868       ?VT@?$CVarTypeInfo@UtagVARIANT@@@ATL@@2GB 1005f868     StdAfx.obj
 0002:0000286c       ?VT@?$CVarTypeInfo@PA_W@ATL@@2GB 1005f86c     StdAfx.obj
 0002:00002870       ?pmField@?$CVarTypeInfo@PA_W@ATL@@2QQtagVARIANT@@PA_WQ3@ 1005f870     StdAfx.obj
 0002:00002874       ?VT@?$CVarTypeInfo@PAPA_W@ATL@@2GB 1005f874     StdAfx.obj
 0002:00002878       ?pmField@?$CVarTypeInfo@PAPA_W@ATL@@2QQtagVARIANT@@PAPA_WQ3@ 1005f878     StdAfx.obj
 0002:0000287c       ?VT@?$CVarTypeInfo@PAUIUnknown@@@ATL@@2GB 1005f87c     StdAfx.obj
 0002:00002880       ?pmField@?$CVarTypeInfo@PAUIUnknown@@@ATL@@2QQtagVARIANT@@PAUIUnknown@@Q3@ 1005f880     StdAfx.obj
 0002:00002884       ?VT@?$CVarTypeInfo@PAPAUIUnknown@@@ATL@@2GB 1005f884     StdAfx.obj
 0002:00002888       ?pmField@?$CVarTypeInfo@PAPAUIUnknown@@@ATL@@2QQtagVARIANT@@PAPAUIUnknown@@Q3@ 1005f888     StdAfx.obj
 0002:0000288c       ?VT@?$CVarTypeInfo@PAUIDispatch@@@ATL@@2GB 1005f88c     StdAfx.obj
 0002:00002890       ?pmField@?$CVarTypeInfo@PAUIDispatch@@@ATL@@2QQtagVARIANT@@PAUIDispatch@@Q3@ 1005f890     StdAfx.obj
 0002:00002894       ?VT@?$CVarTypeInfo@PAPAUIDispatch@@@ATL@@2GB 1005f894     StdAfx.obj
 0002:00002898       ?pmField@?$CVarTypeInfo@PAPAUIDispatch@@@ATL@@2QQtagVARIANT@@PAPAUIDispatch@@Q3@ 1005f898     StdAfx.obj
 0002:0000289c       ?VT@?$CVarTypeInfo@TtagCY@@@ATL@@2GB 1005f89c     StdAfx.obj
 0002:000028a0       ?pmField@?$CVarTypeInfo@TtagCY@@@ATL@@2QQtagVARIANT@@TtagCY@@Q3@ 1005f8a0     StdAfx.obj
 0002:000028a4       ?VT@?$CVarTypeInfo@PATtagCY@@@ATL@@2GB 1005f8a4     StdAfx.obj
 0002:000028a8       ?pmField@?$CVarTypeInfo@PATtagCY@@@ATL@@2QQtagVARIANT@@PATtagCY@@Q3@ 1005f8a8     StdAfx.obj
 0002:000028ac       _LIBID_ATLLib              1005f8ac     StdAfx.obj
 0002:000028bc       _CLSID_Registrar           1005f8bc     StdAfx.obj
 0002:000028cc       _IID_IRegistrar            1005f8cc     StdAfx.obj
 0002:000028dc       _IID_IAxWinHostWindow      1005f8dc     StdAfx.obj
 0002:000028ec       _IID_IAxWinAmbientDispatch 1005f8ec     StdAfx.obj
 0002:000028fc       _IID_IInternalConnection   1005f8fc     StdAfx.obj
 0002:0000290c       _IID_IDocHostUIHandlerDispatch 1005f90c     StdAfx.obj
 0002:0000291c       _IID_IAxWinHostWindowLic   1005f91c     StdAfx.obj
 0002:0000292c       _IID_IAxWinAmbientDispatchEx 1005f92c     StdAfx.obj
 0002:0000293c       ?MAX_VALUE@CRegParser@ATL@@1HB 1005f93c     StdAfx.obj
 0002:00002940       ?MAX_TYPE@CRegParser@ATL@@1HB 1005f940     StdAfx.obj
 0002:00002944       ?cbNeverDelete@CRegParser@ATL@@1HB 1005f944     StdAfx.obj
 0002:0000294c       ??_7Thank_you@Define_the_symbol__ATL_MIXED@@6B@ 1005f94c     StdAfx.obj
 0002:00002950       _SID_SVersionHost          1005f950     uuid:ieguids.obj
 0002:00002960       _CGID_InternetExplorer     1005f960     uuid:ieguids.obj
 0002:00002970       _CGID_DownloadHost         1005f970     uuid:ieguids.obj
 0002:00002980       _CLSID_SubscriptionThrottler 1005f980     uuid:ieguids.obj
 0002:00002990       _CLSID_HTMLLoadOptions     1005f990     uuid:ieguids.obj
 0002:000029a0       _CLSID_PersistentZoneIdentifier 1005f9a0     uuid:ieguids.obj
 0002:000029b0       _GUID_CUSTOM_LOCALMACHINEZONEUNLOCKED 1005f9b0     uuid:ieguids.obj
 0002:000029c0       _CLSID_InternetZoneManager 1005f9c0     uuid:ieguids.obj
 0002:000029d0       _CLSID_InternetSecurityManager 1005f9d0     uuid:ieguids.obj
 0002:000029e0       _CLSID_IActiveXSafetyProvider 1005f9e0     uuid:ieguids.obj
 0002:000029f0       _CLSID_SoftDistExt         1005f9f0     uuid:ieguids.obj
 0002:00002a00       _NAMEDTIMER_DRAW           1005fa00     uuid:ieguids.obj
 0002:00002a10       _IID_IIntDitherer          1005fa10     uuid:ieguids.obj
 0002:00002a20       _CLSID_IntDitherer         1005fa20     uuid:ieguids.obj
 0002:00002a30       _BFID_GRAY_16              1005fa30     uuid:ieguids.obj
 0002:00002a40       _BFID_GRAY_8               1005fa40     uuid:ieguids.obj
 0002:00002a50       _BFID_RGBA_32              1005fa50     uuid:ieguids.obj
 0002:00002a60       _BFID_RGB_32               1005fa60     uuid:ieguids.obj
 0002:00002a70       _BFID_RGB_24               1005fa70     uuid:ieguids.obj
 0002:00002a80       _BFID_RGB_565              1005fa80     uuid:ieguids.obj
 0002:00002a90       _BFID_RGB_555              1005fa90     uuid:ieguids.obj
 0002:00002aa0       _BFID_RGB_8                1005faa0     uuid:ieguids.obj
 0002:00002ab0       _BFID_RGB_4                1005fab0     uuid:ieguids.obj
 0002:00002ac0       _BFID_MONOCHROME           1005fac0     uuid:ieguids.obj
 0002:00002ad0       _SID_SHTMLEditServices     1005fad0     uuid:ieguids.obj
 0002:00002ae0       _CGID_DocHostCommandHandler 1005fae0     uuid:ieguids.obj
 0002:00002af0       _CLSID_HTMLPluginDocument  1005faf0     uuid:ieguids.obj
 0002:00002b00       _CLSID_HTMLApplication     1005fb00     uuid:ieguids.obj
 0002:00002b10       _CLSID_HTADocument         1005fb10     uuid:ieguids.obj
 0002:00002b20       _CLSID_MHTMLDocument       1005fb20     uuid:ieguids.obj
 0002:00002b30       _CGID_MSHTML               1005fb30     uuid:ieguids.obj
 0002:00002b40       _CLSID_IImageDecodeFilter  1005fb40     uuid:ieguids.obj
 0002:00002b50       _IID_IImgCtx               1005fb50     uuid:ieguids.obj
 0002:00002b60       _CLSID_IImgCtx             1005fb60     uuid:ieguids.obj
 0002:00002b70       _CATID_DesignTimeUIActivatableControl 1005fb70     uuid:ieguids.obj
 0002:00002b80       _CATID_SafeForInitializing 1005fb80     uuid:ieguids.obj
 0002:00002b90       _CATID_SafeForScripting    1005fb90     uuid:ieguids.obj
 0002:00002ba0       _CATID_InternetAware       1005fba0     uuid:ieguids.obj
 0002:00002bb0       _CATID_PersistsToPropertyBag 1005fbb0     uuid:ieguids.obj
 0002:00002bc0       _CATID_PersistsToFile      1005fbc0     uuid:ieguids.obj
 0002:00002bd0       _CATID_PersistsToMemory    1005fbd0     uuid:ieguids.obj
 0002:00002be0       _CATID_PersistsToStream    1005fbe0     uuid:ieguids.obj
 0002:00002bf0       _CATID_PersistsToStreamInit 1005fbf0     uuid:ieguids.obj
 0002:00002c00       _CATID_PersistsToStorage   1005fc00     uuid:ieguids.obj
 0002:00002c10       _CATID_PersistsToMoniker   1005fc10     uuid:ieguids.obj
 0002:00002c20       _CATID_RequiresDataPathHost 1005fc20     uuid:ieguids.obj
 0002:00002c30       _CATID_Printable           1005fc30     uuid:ieguids.obj
 0002:00002c40       _CATID_DocObject           1005fc40     uuid:ieguids.obj
 0002:00002c50       _CATID_NeverShowExt        1005fc50     uuid:ieguids.obj
 0002:00002c60       _CATID_IsShortcut          1005fc60     uuid:ieguids.obj
 0002:00002c70       _CATID_Programmable        1005fc70     uuid:ieguids.obj
 0002:00002c80       _CATID_Control             1005fc80     uuid:ieguids.obj
 0002:00002c90       _CATID_Insertable          1005fc90     uuid:ieguids.obj
 0002:00002ca0       _CLSID_StdComponentCategoriesMgr 1005fca0     uuid:ieguids.obj
 0002:00002cb0       _ARRAYID_PathProperties    1005fcb0     uuid:ieguids.obj
 0002:00002cc0       _FLAGID_Internet           1005fcc0     uuid:ieguids.obj
 0002:00002cd0       _OLE_DATAPATH_PENDATA      1005fcd0     uuid:ieguids.obj
 0002:00002ce0       _OLE_DATAPATH_PALETTE      1005fce0     uuid:ieguids.obj
 0002:00002cf0       _OLE_DATAPATH_BIFF         1005fcf0     uuid:ieguids.obj
 0002:00002d00       _OLE_DATAPATH_SYLK         1005fd00     uuid:ieguids.obj
 0002:00002d10       _OLE_DATAPATH_DIF          1005fd10     uuid:ieguids.obj
 0002:00002d20       _OLE_DATAPATH_ALLTEXT      1005fd20     uuid:ieguids.obj
 0002:00002d30       _OLE_DATAPATH_POSTSCRIPT   1005fd30     uuid:ieguids.obj
 0002:00002d40       _OLE_DATAPATH_HTML         1005fd40     uuid:ieguids.obj
 0002:00002d50       _OLE_DATAPATH_RTF          1005fd50     uuid:ieguids.obj
 0002:00002d60       _OLE_DATAPATH_UNICODE      1005fd60     uuid:ieguids.obj
 0002:00002d70       _OLE_DATAPATH_ANSITEXT     1005fd70     uuid:ieguids.obj
 0002:00002d80       _OLE_DATAPATH_ALLMM        1005fd80     uuid:ieguids.obj
 0002:00002d90       _OLE_DATAPATH_VIDEO        1005fd90     uuid:ieguids.obj
 0002:00002da0       _OLE_DATAPATH_SOUND        1005fda0     uuid:ieguids.obj
 0002:00002db0       _OLE_DATAPATH_RIFF         1005fdb0     uuid:ieguids.obj
 0002:00002dc0       _OLE_DATAPATH_WAV          1005fdc0     uuid:ieguids.obj
 0002:00002dd0       _OLE_DATAPATH_MIDI         1005fdd0     uuid:ieguids.obj
 0002:00002de0       _OLE_DATAPATH_BASICAUDIO   1005fde0     uuid:ieguids.obj
 0002:00002df0       _OLE_DATAPATH_QUICKTIME    1005fdf0     uuid:ieguids.obj
 0002:00002e00       _OLE_DATAPATH_MPEG         1005fe00     uuid:ieguids.obj
 0002:00002e10       _OLE_DATAPATH_AVI          1005fe10     uuid:ieguids.obj
 0002:00002e20       _OLE_DATAPATH_ALLIMAGE     1005fe20     uuid:ieguids.obj
 0002:00002e30       _OLE_DATAPATH_COMMONIMAGE  1005fe30     uuid:ieguids.obj
 0002:00002e40       _OLE_DATAPATH_EPS          1005fe40     uuid:ieguids.obj
 0002:00002e50       _OLE_DATAPATH_CGM          1005fe50     uuid:ieguids.obj
 0002:00002e60       _OLE_DATAPATH_PICT         1005fe60     uuid:ieguids.obj
 0002:00002e70       _OLE_DATAPATH_PCX          1005fe70     uuid:ieguids.obj
 0002:00002e80       _OLE_DATAPATH_XBM          1005fe80     uuid:ieguids.obj
 0002:00002e90       _OLE_DATAPATH_TIFF         1005fe90     uuid:ieguids.obj
 0002:00002ea0       _OLE_DATAPATH_JPEG         1005fea0     uuid:ieguids.obj
 0002:00002eb0       _OLE_DATAPATH_GIF          1005feb0     uuid:ieguids.obj
 0002:00002ec0       _OLE_DATAPATH_ENHMF        1005fec0     uuid:ieguids.obj
 0002:00002ed0       _OLE_DATAPATH_WMF          1005fed0     uuid:ieguids.obj
 0002:00002ee0       _OLE_DATAPATH_DIB          1005fee0     uuid:ieguids.obj
 0002:00002ef0       _OLE_DATAPATH_BMP          1005fef0     uuid:ieguids.obj
 0002:00002f00       _CLSID_StdHlinkBrowseContext 1005ff00     uuid:ieguids.obj
 0002:00002f10       _CLSID_StdHlink            1005ff10     uuid:ieguids.obj
 0002:00002f20       _GUID_HasPathProperties    1005ff20     uuid:ieguids.obj
 0002:00002f30       _GUID_PathProperty         1005ff30     uuid:ieguids.obj
 0002:00002f40       _SID_SDataPathBrowser      1005ff40     uuid:ieguids.obj
 0002:00002f50       _SID_SContainerDispatch    1005ff50     uuid:ieguids.obj
 0002:00002f60       _IID_IAccessible           1005ff60     uuid:ieguids.obj
 0002:00002f70       _LIBID_Accessibility       1005ff70     uuid:ieguids.obj
 0002:00002f80       _CLSID_ClassInstallFilter  1005ff80     uuid:ieguids.obj
 0002:00002f90       _CLSID_CdlProtocol         1005ff90     uuid:ieguids.obj
 0002:00002fa0       _CLSID_DeCompMimeFilter    1005ffa0     uuid:ieguids.obj
 0002:00002fb0       _CLSID_StdEncodingFilterFac 1005ffb0     uuid:ieguids.obj
 0002:00002fc0       _CLSID_NotificaitonTest4   1005ffc0     uuid:ieguids.obj
 0002:00002fd0       _CLSID_NotificaitonTest3   1005ffd0     uuid:ieguids.obj
 0002:00002fe0       _CLSID_NotificaitonTest2   1005ffe0     uuid:ieguids.obj
 0002:00002ff0       _CLSID_NotificaitonTest1   1005fff0     uuid:ieguids.obj
 0002:00003000       _NOTIFICATIONTYPE_START_F  10060000     uuid:ieguids.obj
 0002:00003010       _NOTIFICATIONTYPE_START_E  10060010     uuid:ieguids.obj
 0002:00003020       _NOTIFICATIONTYPE_START_D  10060020     uuid:ieguids.obj
 0002:00003030       _NOTIFICATIONTYPE_START_C  10060030     uuid:ieguids.obj
 0002:00003040       _NOTIFICATIONTYPE_START_B  10060040     uuid:ieguids.obj
 0002:00003050       _NOTIFICATIONTYPE_START_A  10060050     uuid:ieguids.obj
 0002:00003060       _NOTIFICATIONTYPE_START_9  10060060     uuid:ieguids.obj
 0002:00003070       _NOTIFICATIONTYPE_START_8  10060070     uuid:ieguids.obj
 0002:00003080       _NOTIFICATIONTYPE_START_7  10060080     uuid:ieguids.obj
 0002:00003090       _NOTIFICATIONTYPE_START_6  10060090     uuid:ieguids.obj
 0002:000030a0       _NOTIFICATIONTYPE_START_5  100600a0     uuid:ieguids.obj
 0002:000030b0       _NOTIFICATIONTYPE_START_4  100600b0     uuid:ieguids.obj
 0002:000030c0       _NOTIFICATIONTYPE_START_3  100600c0     uuid:ieguids.obj
 0002:000030d0       _NOTIFICATIONTYPE_START_2  100600d0     uuid:ieguids.obj
 0002:000030e0       _NOTIFICATIONTYPE_START_1  100600e0     uuid:ieguids.obj
 0002:000030f0       _NOTIFICATIONTYPE_START_0  100600f0     uuid:ieguids.obj
 0002:00003100       _NOTIFICATIONTYPE_15       10060100     uuid:ieguids.obj
 0002:00003110       _NOTIFICATIONTYPE_14       10060110     uuid:ieguids.obj
 0002:00003120       _NOTIFICATIONTYPE_13       10060120     uuid:ieguids.obj
 0002:00003130       _NOTIFICATIONTYPE_12       10060130     uuid:ieguids.obj
 0002:00003140       _NOTIFICATIONTYPE_11       10060140     uuid:ieguids.obj
 0002:00003150       _NOTIFICATIONTYPE_f        10060150     uuid:ieguids.obj
 0002:00003160       _NOTIFICATIONTYPE_e        10060160     uuid:ieguids.obj
 0002:00003170       _NOTIFICATIONTYPE_d        10060170     uuid:ieguids.obj
 0002:00003180       _NOTIFICATIONTYPE_TASKS_ERROR 10060180     uuid:ieguids.obj
 0002:00003190       _NOTIFICATIONTYPE_TASKS_STARTED 10060190     uuid:ieguids.obj
 0002:000031a0       _NOTIFICATIONTYPE_USER_IDLE_END 100601a0     uuid:ieguids.obj
 0002:000031b0       _NOTIFICATIONTYPE_USER_IDLE_BEGIN 100601b0     uuid:ieguids.obj
 0002:000031c0       _NOTIFICATIONTYPE_PROGRESS_REPORT 100601c0     uuid:ieguids.obj
 0002:000031d0       _NOTIFICATIONTYPE_CONFIG_CHANGED 100601d0     uuid:ieguids.obj
 0002:000031e0       _NOTIFICATIONTYPE_DISCONNECT_FROM_INTERNET 100601e0     uuid:ieguids.obj
 0002:000031f0       _NOTIFICATIONTYPE_CONNECT_TO_INTERNET 100601f0     uuid:ieguids.obj
 0002:00003200       _NOTIFICATIONTYPE_AGENT_INIT 10060200     uuid:ieguids.obj
 0002:00003210       _NOTIFICATIONTYPE_END_REPORT 10060210     uuid:ieguids.obj
 0002:00003220       _NOTIFICATIONTYPE_BEGIN_REPORT 10060220     uuid:ieguids.obj
 0002:00003230       _NOTIFICATIONTYPE_AGENT_START 10060230     uuid:ieguids.obj
 0002:00003240       _NOTIFICATIONTYPE_TASKS_PROGRESS 10060240     uuid:ieguids.obj
 0002:00003250       _NOTIFICATIONTYPE_TASKS_COMPLETED 10060250     uuid:ieguids.obj
 0002:00003260       _NOTIFICATIONTYPE_TASKS_ABORT 10060260     uuid:ieguids.obj
 0002:00003270       _NOTIFICATIONTYPE_TASKS_RESUME 10060270     uuid:ieguids.obj
 0002:00003280       _NOTIFICATIONTYPE_TASKS_SUSPEND 10060280     uuid:ieguids.obj
 0002:00003290       _NOTIFICATIONTYPE_INET_ONLINE 10060290     uuid:ieguids.obj
 0002:000032a0       _NOTIFICATIONTYPE_INET_OFFLINE 100602a0     uuid:ieguids.obj
 0002:000032b0       _NOTIFICATIONTYPE_INET_IDLE 100602b0     uuid:ieguids.obj
 0002:000032c0       _NOTIFICATIONTYPE_ALERT    100602c0     uuid:ieguids.obj
 0002:000032d0       _NOTIFICATIONTYPE_TASK     100602d0     uuid:ieguids.obj
 0002:000032e0       _NOTIFICATIONTYPE_ANOUNCMENT 100602e0     uuid:ieguids.obj
 0002:000032f0       _NOTIFICATIONTYPE_NULL     100602f0     uuid:ieguids.obj
 0002:00003300       _NOTFCOOKIE_SCHEDULE_GROUP_MANUAL 10060300     uuid:ieguids.obj
 0002:00003310       _NOTFCOOKIE_SCHEDULE_GROUP_MONTHLY 10060310     uuid:ieguids.obj
 0002:00003320       _NOTFCOOKIE_SCHEDULE_GROUP_WEEKLY 10060320     uuid:ieguids.obj
 0002:00003330       _NOTFCOOKIE_SCHEDULE_GROUP_DAILY 10060330     uuid:ieguids.obj
 0002:00003340       _NOTIFICATIONTYPE_iF       10060340     uuid:ieguids.obj
 0002:00003350       _NOTIFICATIONTYPE_iE       10060350     uuid:ieguids.obj
 0002:00003360       _NOTIFICATIONTYPE_iD       10060360     uuid:ieguids.obj
 0002:00003370       _NOTIFICATIONTYPE_iC       10060370     uuid:ieguids.obj
 0002:00003380       _NOTIFICATIONTYPE_iB       10060380     uuid:ieguids.obj
 0002:00003390       _NOTIFICATIONTYPE_iA       10060390     uuid:ieguids.obj
 0002:000033a0       _NOTIFICATIONTYPE_i9       100603a0     uuid:ieguids.obj
 0002:000033b0       _NOTIFICATIONTYPE_i8       100603b0     uuid:ieguids.obj
 0002:000033c0       _NOTIFICATIONTYPE_i7       100603c0     uuid:ieguids.obj
 0002:000033d0       _NOTIFICATIONTYPE_i6       100603d0     uuid:ieguids.obj
 0002:000033e0       _NOTIFICATIONTYPE_GROUP_DONE 100603e0     uuid:ieguids.obj
 0002:000033f0       _NOTIFICATIONTYPE_GROUP_RESTART 100603f0     uuid:ieguids.obj
 0002:00003400       _NOTIFICATIONTYPE_GROUP_START 10060400     uuid:ieguids.obj
 0002:00003410       _NOTIFICATIONTYPE_ITEM_DONE 10060410     uuid:ieguids.obj
 0002:00003420       _NOTIFICATIONTYPE_ITEM_RESTART 10060420     uuid:ieguids.obj
 0002:00003430       _NOTIFICATIONTYPE_ITEM_START 10060430     uuid:ieguids.obj
 0002:00003440       _CLSID_d                   10060440     uuid:ieguids.obj
 0002:00003450       _CLSID_c                   10060450     uuid:ieguids.obj
 0002:00003460       _CLSID_b                   10060460     uuid:ieguids.obj
 0002:00003470       _CLSID_a                   10060470     uuid:ieguids.obj
 0002:00003480       _CLSID_9                   10060480     uuid:ieguids.obj
 0002:00003490       _CLSID_8                   10060490     uuid:ieguids.obj
 0002:000034a0       _CLSID_7                   100604a0     uuid:ieguids.obj
 0002:000034b0       _CLSID_6                   100604b0     uuid:ieguids.obj
 0002:000034c0       _CLSID_5                   100604c0     uuid:ieguids.obj
 0002:000034d0       _CLSID_4                   100604d0     uuid:ieguids.obj
 0002:000034e0       _CLSID_3                   100604e0     uuid:ieguids.obj
 0002:000034f0       _CLSID_2                   100604f0     uuid:ieguids.obj
 0002:00003500       _CLSID_1                   10060500     uuid:ieguids.obj
 0002:00003510       _CLSID_THREAD_BROADCAST    10060510     uuid:ieguids.obj
 0002:00003520       _CLSID_PROCESS_BROADCAST   10060520     uuid:ieguids.obj
 0002:00003530       _CLSID_GLOBAL_BROADCAST    10060530     uuid:ieguids.obj
 0002:00003540       _IID_IOInetProtocolInfo    10060540     uuid:ieguids.obj
 0002:00003550       _IID_IOInetPriority        10060550     uuid:ieguids.obj
 0002:00003560       _IID_IOInetCache           10060560     uuid:ieguids.obj
 0002:00003570       _IID_IOInetThreadSwitch    10060570     uuid:ieguids.obj
 0002:00003580       _IID_IOInetSession         10060580     uuid:ieguids.obj
 0002:00003590       _IID_IOInetProtocolSink    10060590     uuid:ieguids.obj
 0002:000035a0       _IID_IOInetProtocol        100605a0     uuid:ieguids.obj
 0002:000035b0       _IID_IOInetProtocolRoot    100605b0     uuid:ieguids.obj
 0002:000035c0       _IID_IOInetBindClient      100605c0     uuid:ieguids.obj
 0002:000035d0       _IID_IOInetBindInfo        100605d0     uuid:ieguids.obj
 0002:000035e0       _IID_IOInet                100605e0     uuid:ieguids.obj
 0002:000035f0       _IID_INotificationProcessMgr0 100605f0     uuid:ieguids.obj
 0002:00003600       _IID_INotificationRunning  10060600     uuid:ieguids.obj
 0002:00003610       _IID_INotificationPing     10060610     uuid:ieguids.obj
 0002:00003620       _IID_INotificationHelper   10060620     uuid:ieguids.obj
 0002:00003630       _IID_IEnumNotificationSinkItem 10060630     uuid:ieguids.obj
 0002:00003640       _IID_IEnumScheduleGroup    10060640     uuid:ieguids.obj
 0002:00003650       _IID_IEnumNotification     10060650     uuid:ieguids.obj
 0002:00003660       _IID_INotificationReport   10060660     uuid:ieguids.obj
 0002:00003670       _IID_IScheduleGroup        10060670     uuid:ieguids.obj
 0002:00003680       _IID_INotificationSink     10060680     uuid:ieguids.obj
 0002:00003690       _IID_INotificationMgr      10060690     uuid:ieguids.obj
 0002:000036a0       _IID_INotification         100606a0     uuid:ieguids.obj
 0002:000036b0       _IID_IPropertyMap          100606b0     uuid:ieguids.obj
 0002:000036c0       _IID_IEnumPropertyMap      100606c0     uuid:ieguids.obj
 0002:000036d0       _CLSID_WebCheckDefaultProcess 100606d0     uuid:ieguids.obj
 0002:000036e0       _CLSID_StdNotificationMgr  100606e0     uuid:ieguids.obj
 0002:000036f0       _IID_IDebugOut             100606f0     uuid:ieguids.obj
 0002:00003700       _IID_IDebugRegister        10060700     uuid:ieguids.obj
 0002:00003710       _IID_IBindStatusCallbackMsg 10060710     uuid:ieguids.obj
 0002:00003720       _IID_IAsyncBindCtx         10060720     uuid:ieguids.obj
 0002:00003730       _IID_IBindStatusCallbackHolder 10060730     uuid:ieguids.obj
 0002:00003740       _IID_IAsyncMoniker         10060740     uuid:ieguids.obj
 0002:00003750       _CLSID_AboutProtocol       10060750     uuid:ieguids.obj
 0002:00003760       _CLSID_ResProtocol         10060760     uuid:ieguids.obj
 0002:00003770       _CLSID_UrlMkBindCtx        10060770     uuid:ieguids.obj
 0002:00003780       _CLSID_PSUrlMonProxy       10060780     uuid:ieguids.obj
 0002:00003790       _CLSID_FileProtocol        10060790     uuid:ieguids.obj
 0002:000037a0       _CLSID_MkProtocol          100607a0     uuid:ieguids.obj
 0002:000037b0       _CLSID_HttpSProtocol       100607b0     uuid:ieguids.obj
 0002:000037c0       _CLSID_GopherProtocol      100607c0     uuid:ieguids.obj
 0002:000037d0       _CLSID_FtpProtocol         100607d0     uuid:ieguids.obj
 0002:000037e0       _CLSID_HttpProtocol        100607e0     uuid:ieguids.obj
 0002:000037f0       _CLSID_StdURLProtocol      100607f0     uuid:ieguids.obj
 0002:00003800       _CLSID_StdURLMoniker       10060800     uuid:ieguids.obj
 0002:00003810       _GUID_DEVINTERFACE_SERENUM_BUS_ENUMERATOR 10060810     uuid:cguid_i.obj
 0002:00003820       _GUID_DEVINTERFACE_COMPORT 10060820     uuid:cguid_i.obj
 0002:00003830       _GUID_DEVINTERFACE_STORAGEPORT 10060830     uuid:cguid_i.obj
 0002:00003840       _GUID_DEVINTERFACE_CDCHANGER 10060840     uuid:cguid_i.obj
 0002:00003850       _GUID_DEVINTERFACE_FLOPPY  10060850     uuid:cguid_i.obj
 0002:00003860       _GUID_DEVINTERFACE_MEDIUMCHANGER 10060860     uuid:cguid_i.obj
 0002:00003870       _GUID_DEVINTERFACE_VOLUME  10060870     uuid:cguid_i.obj
 0002:00003880       _GUID_DEVINTERFACE_WRITEONCEDISK 10060880     uuid:cguid_i.obj
 0002:00003890       _GUID_DEVINTERFACE_TAPE    10060890     uuid:cguid_i.obj
 0002:000038a0       _GUID_DEVINTERFACE_PARTITION 100608a0     uuid:cguid_i.obj
 0002:000038b0       _GUID_DEVINTERFACE_CDROM   100608b0     uuid:cguid_i.obj
 0002:000038c0       _GUID_DEVINTERFACE_DISK    100608c0     uuid:cguid_i.obj
 0002:000038d0       _GUID_DEVCLASS_FSFILTER_INFRASTRUCTURE 100608d0     uuid:cguid_i.obj
 0002:000038e0       _GUID_DEVCLASS_FSFILTER_SYSTEM 100608e0     uuid:cguid_i.obj
 0002:000038f0       _GUID_DEVCLASS_FSFILTER_COPYPROTECTION 100608f0     uuid:cguid_i.obj
 0002:00003900       _GUID_DEVCLASS_FSFILTER_SECURITYENHANCER 10060900     uuid:cguid_i.obj
 0002:00003910       _GUID_DEVCLASS_FSFILTER_OPENFILEBACKUP 10060910     uuid:cguid_i.obj
 0002:00003920       _GUID_DEVCLASS_FSFILTER_PHYSICALQUOTAMANAGEMENT 10060920     uuid:cguid_i.obj
 0002:00003930       _GUID_DEVCLASS_FSFILTER_ENCRYPTION 10060930     uuid:cguid_i.obj
 0002:00003940       _GUID_DEVCLASS_FSFILTER_COMPRESSION 10060940     uuid:cguid_i.obj
 0002:00003950       _GUID_DEVCLASS_FSFILTER_HSM 10060950     uuid:cguid_i.obj
 0002:00003960       _GUID_DEVCLASS_FSFILTER_CFSMETADATASERVER 10060960     uuid:cguid_i.obj
 0002:00003970       _GUID_DEVCLASS_FSFILTER_SYSTEMRECOVERY 10060970     uuid:cguid_i.obj
 0002:00003980       _GUID_DEVCLASS_FSFILTER_QUOTAMANAGEMENT 10060980     uuid:cguid_i.obj
 0002:00003990       _GUID_DEVCLASS_FSFILTER_CONTENTSCREENER 10060990     uuid:cguid_i.obj
 0002:000039a0       _GUID_DEVCLASS_FSFILTER_CONTINUOUSBACKUP 100609a0     uuid:cguid_i.obj
 0002:000039b0       _GUID_DEVCLASS_FSFILTER_REPLICATION 100609b0     uuid:cguid_i.obj
 0002:000039c0       _GUID_DEVCLASS_FSFILTER_ANTIVIRUS 100609c0     uuid:cguid_i.obj
 0002:000039d0       _GUID_DEVCLASS_FSFILTER_UNDELETE 100609d0     uuid:cguid_i.obj
 0002:000039e0       _GUID_DEVCLASS_FSFILTER_ACTIVITYMONITOR 100609e0     uuid:cguid_i.obj
 0002:000039f0       _GUID_DEVCLASS_WCEUSBS     100609f0     uuid:cguid_i.obj
 0002:00003a00       _GUID_DEVCLASS_VOLUMESNAPSHOT 10060a00     uuid:cguid_i.obj
 0002:00003a10       _GUID_DEVCLASS_VOLUME      10060a10     uuid:cguid_i.obj
 0002:00003a20       _GUID_DEVCLASS_USB         10060a20     uuid:cguid_i.obj
 0002:00003a30       _GUID_DEVCLASS_UNKNOWN     10060a30     uuid:cguid_i.obj
 0002:00003a40       _GUID_DEVCLASS_TAPEDRIVE   10060a40     uuid:cguid_i.obj
 0002:00003a50       _GUID_DEVCLASS_SYSTEM      10060a50     uuid:cguid_i.obj
 0002:00003a60       _GUID_DEVCLASS_SOUND       10060a60     uuid:cguid_i.obj
 0002:00003a70       _GUID_DEVCLASS_SMARTCARDREADER 10060a70     uuid:cguid_i.obj
 0002:00003a80       _GUID_DEVCLASS_SECURITYACCELERATOR 10060a80     uuid:cguid_i.obj
 0002:00003a90       _GUID_DEVCLASS_SCSIADAPTER 10060a90     uuid:cguid_i.obj
 0002:00003aa0       _GUID_DEVCLASS_SBP2        10060aa0     uuid:cguid_i.obj
 0002:00003ab0       _GUID_DEVCLASS_PROCESSOR   10060ab0     uuid:cguid_i.obj
 0002:00003ac0       _GUID_DEVCLASS_PRINTERUPGRADE 10060ac0     uuid:cguid_i.obj
 0002:00003ad0       _GUID_DEVCLASS_PRINTER     10060ad0     uuid:cguid_i.obj
 0002:00003ae0       _GUID_DEVCLASS_PORTS       10060ae0     uuid:cguid_i.obj
 0002:00003af0       _GUID_DEVCLASS_PNPPRINTERS 10060af0     uuid:cguid_i.obj
 0002:00003b00       _GUID_DEVCLASS_PCMCIA      10060b00     uuid:cguid_i.obj
 0002:00003b10       _GUID_DEVCLASS_NODRIVER    10060b10     uuid:cguid_i.obj
 0002:00003b20       _GUID_DEVCLASS_NETTRANS    10060b20     uuid:cguid_i.obj
 0002:00003b30       _GUID_DEVCLASS_NETSERVICE  10060b30     uuid:cguid_i.obj
 0002:00003b40       _GUID_DEVCLASS_NETCLIENT   10060b40     uuid:cguid_i.obj
 0002:00003b50       _GUID_DEVCLASS_NET         10060b50     uuid:cguid_i.obj
 0002:00003b60       _GUID_DEVCLASS_MULTIPORTSERIAL 10060b60     uuid:cguid_i.obj
 0002:00003b70       _GUID_DEVCLASS_MULTIFUNCTION 10060b70     uuid:cguid_i.obj
 0002:00003b80       _GUID_DEVCLASS_MTD         10060b80     uuid:cguid_i.obj
 0002:00003b90       _GUID_DEVCLASS_MOUSE       10060b90     uuid:cguid_i.obj
 0002:00003ba0       _GUID_DEVCLASS_MONITOR     10060ba0     uuid:cguid_i.obj
 0002:00003bb0       _GUID_DEVCLASS_MODEM       10060bb0     uuid:cguid_i.obj
 0002:00003bc0       _GUID_DEVCLASS_MEDIUM_CHANGER 10060bc0     uuid:cguid_i.obj
 0002:00003bd0       _GUID_DEVCLASS_MEDIA       10060bd0     uuid:cguid_i.obj
 0002:00003be0       _GUID_DEVCLASS_LEGACYDRIVER 10060be0     uuid:cguid_i.obj
 0002:00003bf0       _GUID_DEVCLASS_KEYBOARD    10060bf0     uuid:cguid_i.obj
 0002:00003c00       _GUID_DEVCLASS_INFRARED    10060c00     uuid:cguid_i.obj
 0002:00003c10       _GUID_DEVCLASS_INFINIBAND  10060c10     uuid:cguid_i.obj
 0002:00003c20       _GUID_DEVCLASS_IMAGE       10060c20     uuid:cguid_i.obj
 0002:00003c30       _GUID_DEVCLASS_HIDCLASS    10060c30     uuid:cguid_i.obj
 0002:00003c40       _GUID_DEVCLASS_HDC         10060c40     uuid:cguid_i.obj
 0002:00003c50       _GUID_DEVCLASS_GPS         10060c50     uuid:cguid_i.obj
 0002:00003c60       _GUID_DEVCLASS_FLOPPYDISK  10060c60     uuid:cguid_i.obj
 0002:00003c70       _GUID_DEVCLASS_FDC         10060c70     uuid:cguid_i.obj
 0002:00003c80       _GUID_DEVCLASS_ENUM1394    10060c80     uuid:cguid_i.obj
 0002:00003c90       _GUID_DEVCLASS_DOT4PRINT   10060c90     uuid:cguid_i.obj
 0002:00003ca0       _GUID_DEVCLASS_DOT4        10060ca0     uuid:cguid_i.obj
 0002:00003cb0       _GUID_DEVCLASS_DISPLAY     10060cb0     uuid:cguid_i.obj
 0002:00003cc0       _GUID_DEVCLASS_DISKDRIVE   10060cc0     uuid:cguid_i.obj
 0002:00003cd0       _GUID_DEVCLASS_DECODER     10060cd0     uuid:cguid_i.obj
 0002:00003ce0       _GUID_DEVCLASS_COMPUTER    10060ce0     uuid:cguid_i.obj
 0002:00003cf0       _GUID_DEVCLASS_CDROM       10060cf0     uuid:cguid_i.obj
 0002:00003d00       _GUID_DEVCLASS_BLUETOOTH   10060d00     uuid:cguid_i.obj
 0002:00003d10       _GUID_DEVCLASS_BIOMETRIC   10060d10     uuid:cguid_i.obj
 0002:00003d20       _GUID_DEVCLASS_BATTERY     10060d20     uuid:cguid_i.obj
 0002:00003d30       _GUID_DEVCLASS_AVC         10060d30     uuid:cguid_i.obj
 0002:00003d40       _GUID_DEVCLASS_APMSUPPORT  10060d40     uuid:cguid_i.obj
 0002:00003d50       _GUID_DEVCLASS_ADAPTER     10060d50     uuid:cguid_i.obj
 0002:00003d60       _GUID_DEVCLASS_61883       10060d60     uuid:cguid_i.obj
 0002:00003d70       _GUID_DEVCLASS_1394DEBUG   10060d70     uuid:cguid_i.obj
 0002:00003d80       _GUID_DEVCLASS_1394        10060d80     uuid:cguid_i.obj
 0002:00003d90       _CLSID_ThumbnailUpdater    10060d90     uuid:cguid_i.obj
 0002:00003da0       _CLSID_ThumbnailFCNHandler 10060da0     uuid:cguid_i.obj
 0002:00003db0       _CLSID_GblComponentCategoriesMgr 10060db0     uuid:cguid_i.obj
 0002:00003dc0       _IID_IBoundObjectSite      10060dc0     uuid:cguid_i.obj
 0002:00003dd0       _IID_IBoundObject          10060dd0     uuid:cguid_i.obj
 0002:00003de0       __DBCIDGUID                10060de0     uuid:cguid_i.obj
 0002:00003df0       __DBBMKGUID                10060df0     uuid:cguid_i.obj
 0002:00003e00       __GUID_NAMEONLY            10060e00     uuid:cguid_i.obj
 0002:00003e10       _IID_IEntryID              10060e10     uuid:cguid_i.obj
 0002:00003e20       _IID_ICursorFind           10060e20     uuid:cguid_i.obj
 0002:00003e30       _IID_INotifyDBEvents       10060e30     uuid:cguid_i.obj
 0002:00003e40       _IID_ICursorUpdateARow     10060e40     uuid:cguid_i.obj
 0002:00003e50       _IID_ICursorScroll         10060e50     uuid:cguid_i.obj
 0002:00003e60       _IID_ICursorMove           10060e60     uuid:cguid_i.obj
 0002:00003e70       _IID_ICursor               10060e70     uuid:cguid_i.obj
 0002:00003e80       _IID_StdOle                10060e80     uuid:cguid_i.obj
 0002:00003e90       _GUID_HANDLE               10060e90     uuid:cguid_i.obj
 0002:00003ea0       _GUID_FONTSTRIKETHROUGH    10060ea0     uuid:cguid_i.obj
 0002:00003eb0       _GUID_FONTUNDERSCORE       10060eb0     uuid:cguid_i.obj
 0002:00003ec0       _GUID_FONTITALIC           10060ec0     uuid:cguid_i.obj
 0002:00003ed0       _GUID_FONTBOLD             10060ed0     uuid:cguid_i.obj
 0002:00003ee0       _GUID_FONTSIZE             10060ee0     uuid:cguid_i.obj
 0002:00003ef0       _GUID_FONTNAME             10060ef0     uuid:cguid_i.obj
 0002:00003f00       _GUID_CHECKVALUEEXCLUSIVE  10060f00     uuid:cguid_i.obj
 0002:00003f10       _GUID_OPTIONVALUEEXCLUSIVE 10060f10     uuid:cguid_i.obj
 0002:00003f20       _GUID_TRISTATE             10060f20     uuid:cguid_i.obj
 0002:00003f30       _GUID_YSIZE                10060f30     uuid:cguid_i.obj
 0002:00003f40       _GUID_XSIZE                10060f40     uuid:cguid_i.obj
 0002:00003f50       _GUID_YPOS                 10060f50     uuid:cguid_i.obj
 0002:00003f60       _GUID_XPOS                 10060f60     uuid:cguid_i.obj
 0002:00003f70       _GUID_YSIZEPIXEL           10060f70     uuid:cguid_i.obj
 0002:00003f80       _GUID_XSIZEPIXEL           10060f80     uuid:cguid_i.obj
 0002:00003f90       _GUID_YPOSPIXEL            10060f90     uuid:cguid_i.obj
 0002:00003fa0       _GUID_XPOSPIXEL            10060fa0     uuid:cguid_i.obj
 0002:00003fb0       _GUID_COLOR                10060fb0     uuid:cguid_i.obj
 0002:00003fc0       _GUID_HIMETRIC             10060fc0     uuid:cguid_i.obj
 0002:00003fd0       _CLSID_StdPicture          10060fd0     uuid:cguid_i.obj
 0002:00003fe0       _CLSID_StdFont             10060fe0     uuid:cguid_i.obj
 0002:00003ff0       _CLSID_ConvertVBX          10060ff0     uuid:cguid_i.obj
 0002:00004000       _CLSID_PersistPropset      10061000     uuid:cguid_i.obj
 0002:00004010       _CLSID_StockPicturePage    10061010     uuid:cguid_i.obj
 0002:00004020       _CLSID_StockColorPage      10061020     uuid:cguid_i.obj
 0002:00004030       _CLSID_StockFontPage       10061030     uuid:cguid_i.obj
 0002:00004040       _CLSID_CPicturePropPage    10061040     uuid:cguid_i.obj
 0002:00004050       _CLSID_CColorPropPage      10061050     uuid:cguid_i.obj
 0002:00004060       _CLSID_CFontPropPage       10061060     uuid:cguid_i.obj
 0002:00004070       _IID_IPropertyFrame        10061070     uuid:cguid_i.obj
 0002:00004080       _CLSID_AddrControl         10061080     uuid:cguid_i.obj
 0002:00004090       _CLSID_CurrentUserClasses  10061090     uuid:cguid_i.obj
 0002:000040a0       _CLSID_LocalMachineClasses 100610a0     uuid:cguid_i.obj
 0002:000040b0       _CLSID_AllClasses          100610b0     uuid:cguid_i.obj
 0002:000040c0       _IID_IRichEditOleCallback  100610c0     uuid:cguid_i.obj
 0002:000040d0       _IID_IRichEditOle          100610d0     uuid:cguid_i.obj
 0002:000040e0       _CLSID_RemoteUnknownPSFactory 100610e0     uuid:cguid_i.obj
 0002:000040f0       _CLSID_InProcFreeMarshaler 100610f0     uuid:cguid_i.obj
 0002:00004100       _CLSID_StdAsyncActManager  10061100     uuid:cguid_i.obj
 0002:00004110       _CLSID_ComBinding          10061110     uuid:cguid_i.obj
 0002:00004120       _CLSID_SynchronizeContainer 10061120     uuid:cguid_i.obj
 0002:00004130       _CLSID_StdEvent            10061130     uuid:cguid_i.obj
 0002:00004140       _CLSID_ManualResetEvent    10061140     uuid:cguid_i.obj
 0002:00004150       _CLSID_StdGlobalInterfaceTable 10061150     uuid:cguid_i.obj
 0002:00004160       _CLSID_DCOMAccessControl   10061160     uuid:cguid_i.obj
 0002:00004170       _CLSID_Picture_Dib         10061170     uuid:cguid_i.obj
 0002:00004180       _CLSID_Picture_EnhMetafile 10061180     uuid:cguid_i.obj
 0002:00004190       _CLSID_Picture_Metafile    10061190     uuid:cguid_i.obj
 0002:000041a0       _CLSID_StaticDib           100611a0     uuid:cguid_i.obj
 0002:000041b0       _CLSID_StaticMetafile      100611b0     uuid:cguid_i.obj
 0002:000041c0       _CLSID_PSEnumerators       100611c0     uuid:cguid_i.obj
 0002:000041d0       _CLSID_PSBindCtx           100611d0     uuid:cguid_i.obj
 0002:000041e0       _CLSID_PSDragDrop          100611e0     uuid:cguid_i.obj
 0002:000041f0       _CLSID_PSInPlaceFrame      100611f0     uuid:cguid_i.obj
 0002:00004200       _CLSID_PSInPlaceActive     10061200     uuid:cguid_i.obj
 0002:00004210       _CLSID_PSClassObject       10061210     uuid:cguid_i.obj
 0002:00004220       _CLSID_PSClientSite        10061220     uuid:cguid_i.obj
 0002:00004230       _CLSID_PSGenObject         10061230     uuid:cguid_i.obj
 0002:00004240       _IID_IDebugStream          10061240     uuid:cguid_i.obj
 0002:00004250       _IID_IDebug                10061250     uuid:cguid_i.obj
 0002:00004260       _IID_IOlePresObj           10061260     uuid:cguid_i.obj
 0002:00004270       _IID_IOleManager           10061270     uuid:cguid_i.obj
 0002:00004280       _IID_IEnumCallback         10061280     uuid:cguid_i.obj
 0002:00004290       _IID_IEnumHolder           10061290     uuid:cguid_i.obj
 0002:000042a0       _IID_IEnumGeneric          100612a0     uuid:cguid_i.obj
 0002:000042b0       _IID_IProxy                100612b0     uuid:cguid_i.obj
 0002:000042c0       _IID_IStub                 100612c0     uuid:cguid_i.obj
 0002:000042d0       _CLSID_StdMarshal          100612d0     uuid:cguid_i.obj
 0002:000042e0       _IID_IDfReserved3          100612e0     uuid:cguid_i.obj
 0002:000042f0       _IID_IDfReserved2          100612f0     uuid:cguid_i.obj
 0002:00004300       _IID_IDfReserved1          10061300     uuid:cguid_i.obj
 0002:00004310       _IID_IInternalMoniker      10061310     uuid:cguid_i.obj
 0002:00004320       _IID_IPSFactory            10061320     uuid:cguid_i.obj
 0002:00004330       _IID_IProxyManager         10061330     uuid:cguid_i.obj
 0002:00004340       _IID_IRpcProxy             10061340     uuid:cguid_i.obj
 0002:00004350       _IID_IStubManager          10061350     uuid:cguid_i.obj
 0002:00004360       _IID_IRpcStub              10061360     uuid:cguid_i.obj
 0002:00004370       _IID_IRpcChannel           10061370     uuid:cguid_i.obj
 0002:00004380       _CATID_MARSHALER           10061380     uuid:cguid_i.obj
 0002:00004390       _GUID_NULL                 10061390     uuid:cguid_i.obj
 0002:00004cd8       ??_C@_1GO@KNEJFEMN@?$AAf?$AA?3?$AA?2?$AAr?$AAt?$AAm?$AA?2?$AAv?$AAc?$AAt?$AAo?$AAo?$AAl?$AAs?$AA?2?$AAv?$AAc?$AA7?$AAl?$AAi?$AAb?$AAs?$AA?2?$AAs?$AAh?$AAi?$AAp?$AA?2?$AAa?$AAt?$AAl?$AAm@ 10061cd8     atlsd:Externs.obj
 0002:00004d48       ??_C@_1M@HLGKFCJM@?$AAf?$AAa?$AAl?$AAs?$AAe?$AA?$AA@ 10061d48     atlsd:Externs.obj
 0002:00004d54       ??_C@_0DH@PPMHMFEH@f?3?2rtm?2vctools?2vc7libs?2ship?2atlm@ 10061d54     atlsd:Externs.obj
 0002:000060c8       ??_C@_1HC@HNCNIIF@?$AAf?$AA?3?$AA?2?$AAr?$AAt?$AAm?$AA?2?$AAv?$AAc?$AAt?$AAo?$AAo?$AAl?$AAs?$AA?2?$AAv?$AAc?$AA7?$AAl?$AAi?$AAb?$AAs?$AA?2?$AAs?$AAh?$AAi?$AAp?$AA?2?$AAa?$AAt?$AAl?$AAm@ 100630c8     atlsd:AtlDebugAPI.obj
 0002:00006140       ??_C@_1GK@CGOPLFOG@?$AAf?$AA?3?$AA?2?$AAr?$AAt?$AAm?$AA?2?$AAv?$AAc?$AAt?$AAo?$AAo?$AAl?$AAs?$AA?2?$AAv?$AAc?$AA7?$AAl?$AAi?$AAb?$AAs?$AA?2?$AAs?$AAh?$AAi?$AAp?$AA?2?$AAa?$AAt?$AAl?$AAm@ 10063140     atlsd:AtlDebugAPI.obj
 0002:000061b0       _GUID_ATLVer30             100631b0     atlsd:atlbase.obj
 0002:000061c0       _GUID_ATLVer70             100631c0     atlsd:atlbase.obj
 0002:00006938       ??_C@_1GK@HCLFLLBO@?$AAf?$AA?3?$AA?2?$AAr?$AAt?$AAm?$AA?2?$AAv?$AAc?$AAt?$AAo?$AAo?$AAl?$AAs?$AA?2?$AAv?$AAc?$AA7?$AAl?$AAi?$AAb?$AAs?$AA?2?$AAs?$AAh?$AAi?$AAp?$AA?2?$AAa?$AAt?$AAl?$AAm@ 10063938     atlsd:atlbase.obj
 0002:00006d30       ??_C@_0DF@KFHLPACN@f?3?2rtm?2vctools?2vc7libs?2ship?2atlm@ 10063d30     atlsd:atlcommodule.obj
 0002:00006d68       ??_C@_0EA@EJEMLPD@ERROR?5?3?5Unable?5to?5initialize?5cri@ 10063d68     atlsd:atlcommodule.obj
 0002:00007bd8       ??_C@_1GO@EGGBJLFP@?$AAf?$AA?3?$AA?2?$AAr?$AAt?$AAm?$AA?2?$AAv?$AAc?$AAt?$AAo?$AAo?$AAl?$AAs?$AA?2?$AAv?$AAc?$AA7?$AAl?$AAi?$AAb?$AAs?$AA?2?$AAs?$AAh?$AAi?$AAp?$AA?2?$AAa?$AAt?$AAl?$AAm@ 10064bd8     atlsd:atlfuncs.obj
 0002:00008640       ??_C@_1JA@NPPLIAJE@?$AAf?$AA?3?$AA?2?$AAr?$AAt?$AAm?$AA?2?$AAv?$AAc?$AAt?$AAo?$AAo?$AAl?$AAs?$AA?2?$AAv?$AAc?$AA7?$AAl?$AAi?$AAb?$AAs?$AA?2?$AAs?$AAh?$AAi?$AAp?$AA?2?$AAa?$AAt?$AAl?$AAm@ 10065640     atlsd:Allocate.obj
 0002:000086d0       ??_C@_1BK@GFEAMNLJ@?$AAn?$AAC?$AAo?$AAo?$AAk?$AAi?$AAe?$AA?5?$AA?$CB?$AA?$DN?$AA?5?$AA0?$AA?$AA@ 100656d0     atlsd:Allocate.obj
 0002:00008a80       ??_C@_1BG@NDCBABF@?$AAd?$AAb?$AAg?$AAd?$AAe?$AAl?$AA?4?$AAc?$AAp?$AAp?$AA?$AA@ 10065a80     LIBCMTD:dbgdel.obj
 0002:00008a98       ??_C@_1EO@LHDAJOCM@?$AA_?$AAB?$AAL?$AAO?$AAC?$AAK?$AA_?$AAT?$AAY?$AAP?$AAE?$AA_?$AAI?$AAS?$AA_?$AAV?$AAA?$AAL?$AAI?$AAD?$AA?$CI?$AAp?$AAH?$AAe?$AAa?$AAd?$AA?9?$AA?$DO?$AAn?$AAB?$AAl?$AAo@ 10065a98     LIBCMTD:dbgdel.obj
 0002:00008ae8       ??_C@_0P@GHFPNOJB@bad?5allocation?$AA@ 10065ae8     LIBCMTD:new.obj
 0002:00008afc       ??_7bad_alloc@std@@6B@     10065afc     LIBCMTD:new.obj
 0002:00008b04       ??_C@_17LGKOMLJ@?$AA?4?$AA?4?$AA?4?$AA?$AA@ 10065b04     LIBCMTD:dbgrptw.obj
 0002:00008b0c       ??_C@_1CC@CGHMNGDG@?$AAA?$AAs?$AAs?$AAe?$AAr?$AAt?$AAi?$AAo?$AAn?$AA?5?$AAF?$AAa?$AAi?$AAl?$AAe?$AAd?$AA?$AA@ 10065b0c     LIBCMTD:dbgrptw.obj
 0002:00008b30       ??_C@_1M@ILHOPKA@?$AAE?$AAr?$AAr?$AAo?$AAr?$AA?$AA@ 10065b30     LIBCMTD:dbgrptw.obj
 0002:00008b3c       ??_C@_1BA@GLMCNLEM@?$AAW?$AAa?$AAr?$AAn?$AAi?$AAn?$AAg?$AA?$AA@ 10065b3c     LIBCMTD:dbgrptw.obj
 0002:00008b4c       ?ProcessDetach@NativeDll@<CrtImplementationDetails>@@0IB 10065b4c     LIBCMTD:dbgrptw.obj
 0002:00008b50       ?ProcessAttach@NativeDll@<CrtImplementationDetails>@@0IB 10065b50     LIBCMTD:dbgrptw.obj
 0002:00008b54       ?ThreadAttach@NativeDll@<CrtImplementationDetails>@@0IB 10065b54     LIBCMTD:dbgrptw.obj
 0002:00008b58       ?ThreadDetach@NativeDll@<CrtImplementationDetails>@@0IB 10065b58     LIBCMTD:dbgrptw.obj
 0002:00008b5c       ?ProcessVerifier@NativeDll@<CrtImplementationDetails>@@0IB 10065b5c     LIBCMTD:dbgrptw.obj
 0002:00008b60       ??_C@_0DB@HKOFMEFJ@f?3?2rtm?2vctools?2crt_bld?2self_x86?2@ 10065b60     LIBCMTD:dbgrptw.obj
 0002:00008b98       ??_C@_1FI@PHIAFFHM@?$AA?$CI?$AA?$CC?$AAT?$AAh?$AAe?$AA?5?$AAh?$AAo?$AAo?$AAk?$AA?5?$AAf?$AAu?$AAn?$AAc?$AAt?$AAi?$AAo?$AAn?$AA?5?$AAi?$AAs?$AA?5?$AAn?$AAo?$AAt?$AA?5?$AAi?$AAn?$AA?5?$AAt?$AAh@ 10065b98     LIBCMTD:dbgrptw.obj
 0002:00008bf0       ??_C@_1CG@JBJEFOCM@?$AAp?$AAf?$AAn?$AAN?$AAe?$AAw?$AAH?$AAo?$AAo?$AAk?$AA?5?$AA?$CB?$AA?$DN?$AA?5?$AAN?$AAU?$AAL?$AAL?$AA?$AA@ 10065bf0     LIBCMTD:dbgrptw.obj
 0002:00008c18       ??_C@_1CI@IIHEAKEI@?$AA_?$AAC?$AAr?$AAt?$AAS?$AAe?$AAt?$AAR?$AAe?$AAp?$AAo?$AAr?$AAt?$AAH?$AAo?$AAo?$AAk?$AAW?$AA2?$AA?$AA@ 10065c18     LIBCMTD:dbgrptw.obj
 0002:00008c40       ??_C@_1GC@LNEIAAHF@?$AAf?$AA?3?$AA?2?$AAr?$AAt?$AAm?$AA?2?$AAv?$AAc?$AAt?$AAo?$AAo?$AAl?$AAs?$AA?2?$AAc?$AAr?$AAt?$AA_?$AAb?$AAl?$AAd?$AA?2?$AAs?$AAe?$AAl?$AAf?$AA_?$AAx?$AA8?$AA6?$AA?2@ 10065c40     LIBCMTD:dbgrptw.obj
 0002:00008ca8       ??_C@_1HI@OFEHGPPC@?$AAm?$AAo?$AAd?$AAe?$AA?5?$AA?$DN?$AA?$DN?$AA?5?$AA_?$AAC?$AAR?$AAT?$AA_?$AAR?$AAP?$AAT?$AAH?$AAO?$AAO?$AAK?$AA_?$AAI?$AAN?$AAS?$AAT?$AAA?$AAL?$AAL?$AA?5?$AA?$HM?$AA?$HM?$AA?5@ 10065ca8     LIBCMTD:dbgrptw.obj
 0002:00008d20       ??_C@_0DP@GNPEPHJD@_CrtDbgReport?3?5String?5too?5long?5o@ 10065d20     LIBCMTD:dbgrptw.obj
 0002:00008d60       ??_C@_1LI@CIHKNEBA@?$AAs?$AAt?$AAr?$AAc?$AAp?$AAy?$AA_?$AAs?$AA?$CI?$AAs?$AAz?$AAa?$AAF?$AAo?$AAr?$AAm?$AAa?$AAt?$AA?0?$AA?5?$AA4?$AA0?$AA9?$AA6?$AA?0?$AA?5?$AA?$CC?$AA_?$AAC?$AAr?$AAt?$AAD@ 10065d60     LIBCMTD:dbgrptw.obj
 0002:00008e18       ??_C@_1GO@BIBJILHL@?$AAw?$AAc?$AAs?$AAt?$AAo?$AAm?$AAb?$AAs?$AA_?$AAs?$AA?$CI?$AA0?$AA?0?$AA?5?$AAs?$AAz?$AAa?$AAF?$AAo?$AAr?$AAm?$AAa?$AAt?$AA?0?$AA?5?$AA4?$AA0?$AA9?$AA6?$AA?0?$AA?5?$AAs@ 10065e18     LIBCMTD:dbgrptw.obj
 0002:00008e88       ??_C@_1IK@NOIOPCJD@?$AAs?$AAt?$AAr?$AAc?$AAp?$AAy?$AA_?$AAs?$AA?$CI?$AAs?$AAz?$AAa?$AAM?$AAo?$AAd?$AAu?$AAl?$AAe?$AA?0?$AA?5?$AA4?$AA0?$AA9?$AA6?$AA?0?$AA?5?$AA?$CC?$AAE?$AAx?$AAp?$AAr?$AAe@ 10065e88     LIBCMTD:dbgrptw.obj
 0002:00008f18       ??_C@_1GO@EIJIKMJN@?$AAw?$AAc?$AAs?$AAt?$AAo?$AAm?$AAb?$AAs?$AA_?$AAs?$AA?$CI?$AA0?$AA?0?$AA?5?$AAs?$AAz?$AAa?$AAM?$AAo?$AAd?$AAu?$AAl?$AAe?$AA?0?$AA?5?$AA4?$AA0?$AA9?$AA6?$AA?0?$AA?5?$AAs@ 10065f18     LIBCMTD:dbgrptw.obj
 0002:00008f88       ??_C@_0CI@FDIHEIE@Expression?5cannot?5be?5displayed?5o@ 10065f88     LIBCMTD:dbgrptw.obj
 0002:00008fb0       ??_C@_1IG@KNLLJKPP@?$AAs?$AAt?$AAr?$AAc?$AAp?$AAy?$AA_?$AAs?$AA?$CI?$AAs?$AAz?$AAa?$AAF?$AAi?$AAl?$AAe?$AA?0?$AA?5?$AA4?$AA0?$AA9?$AA6?$AA?0?$AA?5?$AA?$CC?$AAE?$AAx?$AAp?$AAr?$AAe?$AAs?$AAs@ 10065fb0     LIBCMTD:dbgrptw.obj
 0002:00009038       ??_C@_03KHICJKCI@?4?4?4?$AA@ 10066038     LIBCMTD:dbgrptw.obj
 0002:0000903c       ??_C@_1DO@CNMELOIB@?$AAs?$AAt?$AAr?$AAc?$AAa?$AAt?$AA_?$AAs?$AA?$CI?$AAs?$AAz?$AAa?$AAF?$AAi?$AAl?$AAe?$AA?0?$AA?5?$AA4?$AA0?$AA9?$AA6?$AA?0?$AA?5?$AA?$CC?$AA?4?$AA?4?$AA?4?$AA?$CC?$AA?$CJ?$AA?$AA@ 1006603c     LIBCMTD:dbgrptw.obj
 0002:00009080       ??_C@_1GG@OHDJJHOI@?$AAw?$AAc?$AAs?$AAt?$AAo?$AAm?$AAb?$AAs?$AA_?$AAs?$AA?$CI?$AA0?$AA?0?$AA?5?$AAs?$AAz?$AAa?$AAF?$AAi?$AAl?$AAe?$AA?0?$AA?5?$AA4?$AA0?$AA9?$AA6?$AA?0?$AA?5?$AAs?$AAz?$AAF@ 10066080     LIBCMTD:dbgrptw.obj
 0002:000090e8       ??_C@_1DK@NLBDKACM@?$AA_?$AAg?$AAe?$AAt?$AA_?$AAo?$AAs?$AAp?$AAl?$AAa?$AAt?$AAf?$AAo?$AAr?$AAm?$AA?$CI?$AA?$CG?$AAo?$AAs?$AAp?$AAl?$AAa?$AAt?$AAf?$AAo?$AAr?$AAm?$AA?$CJ?$AA?$AA@ 100660e8     LIBCMTD:dbgrptw.obj
 0002:00009124       ??_C@_1CA@KLAOOAPJ@?$AA_?$AAC?$AAr?$AAt?$AAD?$AAb?$AAg?$AAR?$AAe?$AAp?$AAo?$AAr?$AAt?$AAW?$AAV?$AA?$AA@ 10066124     LIBCMTD:dbgrptw.obj
 0002:00009148       ??_C@_1EG@PEOEAKBB@?$AAM?$AAi?$AAc?$AAr?$AAo?$AAs?$AAo?$AAf?$AAt?$AA?5?$AAV?$AAi?$AAs?$AAu?$AAa?$AAl?$AA?5?$AAC?$AA?$CL?$AA?$CL?$AA?5?$AAD?$AAe?$AAb?$AAu?$AAg?$AA?5?$AAL?$AAi?$AAb?$AAr?$AAa@ 10066148     LIBCMTD:dbgrptw.obj
 0002:00009190       ??_C@_1FG@BBOLDHGF@?$AA_?$AAC?$AAr?$AAt?$AAD?$AAb?$AAg?$AAR?$AAe?$AAp?$AAo?$AAr?$AAt?$AA?3?$AA?5?$AAS?$AAt?$AAr?$AAi?$AAn?$AAg?$AA?5?$AAt?$AAo?$AAo?$AA?5?$AAl?$AAo?$AAn?$AAg?$AA?5?$AAo@ 10066190     LIBCMTD:dbgrptw.obj
 0002:000091e8       ??_C@_1JI@EACPGHID@?$AAw?$AAc?$AAs?$AAc?$AAp?$AAy?$AA_?$AAs?$AA?$CI?$AAs?$AAz?$AAO?$AAu?$AAt?$AAM?$AAe?$AAs?$AAs?$AAa?$AAg?$AAe?$AA?0?$AA?5?$AA4?$AA0?$AA9?$AA6?$AA?0?$AA?5?$AAL?$AA?$CC?$AA_@ 100661e8     LIBCMTD:dbgrptw.obj
 0002:00009280       ??_C@_1BI@KALLJECN@?$AA?$CI?$AA?$CK?$AA_?$AAe?$AAr?$AAr?$AAn?$AAo?$AA?$CI?$AA?$CJ?$AA?$CJ?$AA?$AA@ 10066280     LIBCMTD:dbgrptw.obj
 0002:00009298       ??_C@_1KK@MEFMPOLM@?$AAD?$AAe?$AAb?$AAu?$AAg?$AA?5?$AA?$CF?$AAs?$AA?$CB?$AA?6?$AA?6?$AAP?$AAr?$AAo?$AAg?$AAr?$AAa?$AAm?$AA?3?$AA?5?$AA?$CF?$AAs?$AA?$CF?$AAs?$AA?$CF?$AAs?$AA?$CF?$AAs?$AA?$CF?$AAs?$AA?$CF?$AAs@ 10066298     LIBCMTD:dbgrptw.obj
 0002:00009344       ??_C@_1BE@CGCJKGHI@?$AA?6?$AAM?$AAo?$AAd?$AAu?$AAl?$AAe?$AA?3?$AA?5?$AA?$AA@ 10066344     LIBCMTD:dbgrptw.obj
 0002:00009358       ??_C@_1BA@LNHECFIM@?$AA?6?$AAF?$AAi?$AAl?$AAe?$AA?3?$AA?5?$AA?$AA@ 10066358     LIBCMTD:dbgrptw.obj
 0002:00009368       ??_C@_1BA@GLLGCPCK@?$AA?6?$AAL?$AAi?$AAn?$AAe?$AA?3?$AA?5?$AA?$AA@ 10066368     LIBCMTD:dbgrptw.obj
 0002:00009378       ??_C@_15IABLJNFO@?$AA?6?$AA?6?$AA?$AA@ 10066378     LIBCMTD:dbgrptw.obj
 0002:00009380       ??_C@_1BK@PEDCIPMA@?$AAE?$AAx?$AAp?$AAr?$AAe?$AAs?$AAs?$AAi?$AAo?$AAn?$AA?3?$AA?5?$AA?$AA@ 10066380     LIBCMTD:dbgrptw.obj
 0002:000093a0       ??_C@_1OG@PMPPFHAF@?$AA?6?$AA?6?$AAF?$AAo?$AAr?$AA?5?$AAi?$AAn?$AAf?$AAo?$AAr?$AAm?$AAa?$AAt?$AAi?$AAo?$AAn?$AA?5?$AAo?$AAn?$AA?5?$AAh?$AAo?$AAw?$AA?5?$AAy?$AAo?$AAu?$AAr?$AA?5?$AAp?$AAr@ 100663a0     LIBCMTD:dbgrptw.obj
 0002:00009488       ??_C@_1JM@GKDPCMEA@?$AAw?$AAc?$AAs?$AAn?$AAc?$AAp?$AAy?$AA_?$AAs?$AA?$CI?$AAs?$AAz?$AAS?$AAh?$AAo?$AAr?$AAt?$AAP?$AAr?$AAo?$AAg?$AAN?$AAa?$AAm?$AAe?$AA?0?$AA?5?$AA2?$AA6?$AA0?$AA?5?$AA?9@ 10066488     LIBCMTD:dbgrptw.obj
 0002:00009524       ??_C@_1CO@EAEJAADC@?$AA?$DM?$AAp?$AAr?$AAo?$AAg?$AAr?$AAa?$AAm?$AA?5?$AAn?$AAa?$AAm?$AAe?$AA?5?$AAu?$AAn?$AAk?$AAn?$AAo?$AAw?$AAn?$AA?$DO?$AA?$AA@ 10066524     LIBCMTD:dbgrptw.obj
 0002:00009558       ??_C@_1GI@DEDNNLCI@?$AAw?$AAc?$AAs?$AAc?$AAp?$AAy?$AA_?$AAs?$AA?$CI?$AAs?$AAz?$AAE?$AAx?$AAe?$AAN?$AAa?$AAm?$AAe?$AA?0?$AA?5?$AA2?$AA6?$AA0?$AA?0?$AA?5?$AAL?$AA?$CC?$AA?$DM?$AAp?$AAr?$AAo?$AAg@ 10066558     LIBCMTD:dbgrptw.obj
 0002:000095c0       ??_C@_1CI@PGJIFDEK@?$AA_?$AA_?$AAc?$AAr?$AAt?$AAM?$AAe?$AAs?$AAs?$AAa?$AAg?$AAe?$AAW?$AAi?$AAn?$AAd?$AAo?$AAw?$AAW?$AA?$AA@ 100665c0     LIBCMTD:dbgrptw.obj
 0002:000095ec       ??_7type_info@@6B@         100665ec     LIBCMTD:typinfo.obj
 0002:000095f0       ??_C@_0BI@BKLFFAPO@SetThreadStackGuarantee?$AA@ 100665f0     LIBCMTD:resetstk.obj
 0002:00009608       ??_C@_0N@MDJJJHMB@kernel32?4dll?$AA@ 10066608     LIBCMTD:resetstk.obj
 0002:00009618       ??_C@_1BM@DDDMFKDA@?$AA_?$AAr?$AAe?$AAs?$AAe?$AAt?$AAs?$AAt?$AAk?$AAo?$AAf?$AAl?$AAw?$AA?$AA@ 10066618     LIBCMTD:resetstk.obj
 0002:00009634       ??_C@_1BG@DANJIPJN@?$AAr?$AAe?$AAs?$AAe?$AAt?$AAs?$AAt?$AAk?$AA?4?$AAc?$AA?$AA@ 10066634     LIBCMTD:resetstk.obj
 0002:0000966c       ??_C@_1CK@DDKKOLAN@?$AAs?$AAi?$AAz?$AAe?$AAI?$AAn?$AAB?$AAy?$AAt?$AAe?$AAs?$AA?5?$AA?$DO?$AA?$DN?$AA?5?$AAc?$AAo?$AAu?$AAn?$AAt?$AA?$AA@ 1006666c     LIBCMTD:memcpy_s.obj
 0002:00009698       ??_C@_1BI@DCHLDCPP@?$AAs?$AAr?$AAc?$AA?5?$AA?$CB?$AA?$DN?$AA?5?$AAN?$AAU?$AAL?$AAL?$AA?$AA@ 10066698     LIBCMTD:memcpy_s.obj
 0002:000096b0       ??_C@_1BC@GKHDJMGB@?$AAm?$AAe?$AAm?$AAc?$AAp?$AAy?$AA_?$AAs?$AA?$AA@ 100666b0     LIBCMTD:memcpy_s.obj
 0002:000096c4       ??_C@_1BG@MKNDEPCK@?$AAm?$AAe?$AAm?$AAc?$AAp?$AAy?$AA_?$AAs?$AA?4?$AAc?$AA?$AA@ 100666c4     LIBCMTD:memcpy_s.obj
 0002:000096dc       ??_C@_1BI@GKKCBDMD@?$AAd?$AAs?$AAt?$AA?5?$AA?$CB?$AA?$DN?$AA?5?$AAN?$AAU?$AAL?$AAL?$AA?$AA@ 100666dc     LIBCMTD:memcpy_s.obj
 0002:000096f4       ??_C@_1DM@MADKGDLO@?$AA?$CI?$AAL?$AA?$CC?$AAB?$AAu?$AAf?$AAf?$AAe?$AAr?$AA?5?$AAi?$AAs?$AA?5?$AAt?$AAo?$AAo?$AA?5?$AAs?$AAm?$AAa?$AAl?$AAl?$AA?$CC?$AA?5?$AA?$CG?$AA?$CG?$AA?5?$AA0?$AA?$CJ?$AA?$AA@ 100666f4     LIBCMTD:strcpy_s.obj
 0002:00009730       ??_C@_1CI@HCPHDDLE@?$AAB?$AAu?$AAf?$AAf?$AAe?$AAr?$AA?5?$AAi?$AAs?$AA?5?$AAt?$AAo?$AAo?$AA?5?$AAs?$AAm?$AAa?$AAl?$AAl?$AA?$AA@ 10066730     LIBCMTD:strcpy_s.obj
 0002:00009758       ??_C@_1CG@OFBJMIGJ@?$AA?$CI?$AA?$CI?$AA?$CI?$AA_?$AAS?$AAr?$AAc?$AA?$CJ?$AA?$CJ?$AA?$CJ?$AA?5?$AA?$CB?$AA?$DN?$AA?5?$AAN?$AAU?$AAL?$AAL?$AA?$AA@ 10066758     LIBCMTD:strcpy_s.obj
 0002:00009780       ??_C@_1BC@CFJEPFGF@?$AAs?$AAt?$AAr?$AAc?$AAp?$AAy?$AA_?$AAs?$AA?$AA@ 10066780     LIBCMTD:strcpy_s.obj
 0002:00009798       ??_C@_1GK@NOPKFDOE@?$AAF?$AA?3?$AA?2?$AAR?$AAT?$AAM?$AA?2?$AAv?$AAc?$AAt?$AAo?$AAo?$AAl?$AAs?$AA?2?$AAc?$AAr?$AAt?$AA_?$AAb?$AAl?$AAd?$AA?2?$AAS?$AAE?$AAL?$AAF?$AA_?$AAX?$AA8?$AA6?$AA?2@ 10066798     LIBCMTD:strcpy_s.obj
 0002:00009808       ??_C@_1FC@NCPEPIBI@?$AA?$CI?$AA?$CI?$AA_?$AAD?$AAs?$AAt?$AA?$CJ?$AA?$CJ?$AA?5?$AA?$CB?$AA?$DN?$AA?5?$AAN?$AAU?$AAL?$AAL?$AA?5?$AA?$CG?$AA?$CG?$AA?5?$AA?$CI?$AA?$CI?$AA_?$AAS?$AAi?$AAz?$AAe?$AAI?$AAn?$AAB?$AAy?$AAt@ 10066808     LIBCMTD:strcpy_s.obj
 0002:00009860       ??_C@_1FA@MJKDNFFB@?$AA?$CI?$AAL?$AA?$CC?$AAS?$AAt?$AAr?$AAi?$AAn?$AAg?$AA?5?$AAi?$AAs?$AA?5?$AAn?$AAo?$AAt?$AA?5?$AAn?$AAu?$AAl?$AAl?$AA?5?$AAt?$AAe?$AAr?$AAm?$AAi?$AAn?$AAa?$AAt?$AAe?$AAd@ 10066860     LIBCMTD:strcat_s.obj
 0002:000098b0       ??_C@_1DM@FHLMIEG@?$AAS?$AAt?$AAr?$AAi?$AAn?$AAg?$AA?5?$AAi?$AAs?$AA?5?$AAn?$AAo?$AAt?$AA?5?$AAn?$AAu?$AAl?$AAl?$AA?5?$AAt?$AAe?$AAr?$AAm?$AAi?$AAn?$AAa?$AAt?$AAe?$AAd?$AA?$AA@ 100668b0     LIBCMTD:strcat_s.obj
 0002:000098ec       ??_C@_1BC@HGPNAKGC@?$AAs?$AAt?$AAr?$AAc?$AAa?$AAt?$AA_?$AAs?$AA?$AA@ 100668ec     LIBCMTD:strcat_s.obj
 0002:00009900       ??_C@_1GK@BGEBPLEE@?$AAF?$AA?3?$AA?2?$AAR?$AAT?$AAM?$AA?2?$AAv?$AAc?$AAt?$AAo?$AAo?$AAl?$AAs?$AA?2?$AAc?$AAr?$AAt?$AA_?$AAb?$AAl?$AAd?$AA?2?$AAS?$AAE?$AAL?$AAF?$AA_?$AAX?$AA8?$AA6?$AA?2@ 10066900     LIBCMTD:strcat_s.obj
 0002:0000996c       ??_C@_06PJIGMIJB@Client?$AA@ 1006696c     LIBCMTD:dbgheap.obj
 0002:00009974       ??_C@_06KMEJCCGM@Ignore?$AA@ 10066974     LIBCMTD:dbgheap.obj
 0002:0000997c       ??_C@_03OGPFLFLO@CRT?$AA@  1006697c     LIBCMTD:dbgheap.obj
 0002:00009980       ??_C@_06EFAGIKOH@Normal?$AA@ 10066980     LIBCMTD:dbgheap.obj
 0002:00009988       ??_C@_04HJMOFLDF@Free?$AA@ 10066988     LIBCMTD:dbgheap.obj
 0002:00009990       ??_C@_0DC@JEMAGEKG@Error?3?5memory?5allocation?3?5bad?5me@ 10066990     LIBCMTD:dbgheap.obj
 0002:000099c4       ??_C@_0CF@BICKFLAF@Invalid?5allocation?5size?3?5?$CFIu?5byt@ 100669c4     LIBCMTD:dbgheap.obj
 0002:000099ec       ??_C@_02DKCKIIND@?$CFs?$AA@ 100669ec     LIBCMTD:dbgheap.obj
 0002:000099f0       ??_C@_0CB@CCLOLAHO@Client?5hook?5allocation?5failure?4?6@ 100669f0     LIBCMTD:dbgheap.obj
 0002:00009a14       ??_C@_0DF@BBEGIFEK@Client?5hook?5allocation?5failure?5a@ 10066a14     LIBCMTD:dbgheap.obj
 0002:00009a4c       ??_C@_1BE@DOFBOBGF@?$AAd?$AAb?$AAg?$AAh?$AAe?$AAa?$AAp?$AA?4?$AAc?$AA?$AA@ 10066a4c     LIBCMTD:dbgheap.obj
 0002:00009a60       ??_C@_1CE@LJFEPPMP@?$AA_?$AAC?$AAr?$AAt?$AAC?$AAh?$AAe?$AAc?$AAk?$AAM?$AAe?$AAm?$AAo?$AAr?$AAy?$AA?$CI?$AA?$CJ?$AA?$AA@ 10066a60     LIBCMTD:dbgheap.obj
 0002:00009a84       ??_C@_1BI@MIPBBENM@?$AA_?$AAc?$AAa?$AAl?$AAl?$AAo?$AAc?$AA_?$AAd?$AAb?$AAg?$AA?$AA@ 10066a84     LIBCMTD:dbgheap.obj
 0002:00009a9c       ??_C@_1DO@MEOGCGBN@?$AA?$CI?$AA_?$AAH?$AAE?$AAA?$AAP?$AA_?$AAM?$AAA?$AAX?$AAR?$AAE?$AAQ?$AA?5?$AA?1?$AA?5?$AAn?$AAN?$AAu?$AAm?$AA?$CJ?$AA?5?$AA?$DO?$AA?$DN?$AA?5?$AAn?$AAS?$AAi?$AAz?$AAe?$AA?$AA@ 10066a9c     LIBCMTD:dbgheap.obj
 0002:00009adc       ??_C@_1BE@JMKIOMH@?$AA_?$AAr?$AAe?$AAc?$AAa?$AAl?$AAl?$AAo?$AAc?$AA?$AA@ 10066adc     LIBCMTD:dbgheap.obj
 0002:00009af0       ??_C@_1DO@GOKJCEHJ@?$AA?$CI?$AA_?$AAH?$AAE?$AAA?$AAP?$AA_?$AAM?$AAA?$AAX?$AAR?$AAE?$AAQ?$AA?5?$AA?1?$AA?5?$AAc?$AAo?$AAu?$AAn?$AAt?$AA?$CJ?$AA?5?$AA?$DO?$AA?$DN?$AA?5?$AAs?$AAi?$AAz?$AAe?$AA?$AA@ 10066af0     LIBCMTD:dbgheap.obj
 0002:00009b30       ??_C@_1DE@KOOKLFBB@?$AA_?$AAp?$AAF?$AAi?$AAr?$AAs?$AAt?$AAB?$AAl?$AAo?$AAc?$AAk?$AA?5?$AA?$DN?$AA?$DN?$AA?5?$AAp?$AAO?$AAl?$AAd?$AAB?$AAl?$AAo?$AAc?$AAk?$AA?$AA@ 10066b30     LIBCMTD:dbgheap.obj
 0002:00009b64       ??_C@_1DC@GEFKNOOL@?$AA_?$AAp?$AAL?$AAa?$AAs?$AAt?$AAB?$AAl?$AAo?$AAc?$AAk?$AA?5?$AA?$DN?$AA?$DN?$AA?5?$AAp?$AAO?$AAl?$AAd?$AAB?$AAl?$AAo?$AAc?$AAk?$AA?$AA@ 10066b64     LIBCMTD:dbgheap.obj
 0002:00009b98       ??_C@_1GE@PCKLOLAO@?$AAf?$AAR?$AAe?$AAa?$AAl?$AAl?$AAo?$AAc?$AA?5?$AA?$HM?$AA?$HM?$AA?5?$AA?$CI?$AA?$CB?$AAf?$AAR?$AAe?$AAa?$AAl?$AAl?$AAo?$AAc?$AA?5?$AA?$CG?$AA?$CG?$AA?5?$AAp?$AAN?$AAe?$AAw?$AAB?$AAl@ 10066b98     LIBCMTD:dbgheap.obj
 0002:00009c00       ??_C@_1IK@DCPKDGNH@?$AAp?$AAO?$AAl?$AAd?$AAB?$AAl?$AAo?$AAc?$AAk?$AA?9?$AA?$DO?$AAn?$AAL?$AAi?$AAn?$AAe?$AA?5?$AA?$DN?$AA?$DN?$AA?5?$AAI?$AAG?$AAN?$AAO?$AAR?$AAE?$AA_?$AAL?$AAI?$AAN?$AAE?$AA?5@ 10066c00     LIBCMTD:dbgheap.obj
 0002:00009c90       ??_C@_1EE@GFOPCECE@?$AA_?$AAC?$AAr?$AAt?$AAI?$AAs?$AAV?$AAa?$AAl?$AAi?$AAd?$AAH?$AAe?$AAa?$AAp?$AAP?$AAo?$AAi?$AAn?$AAt?$AAe?$AAr?$AA?$CI?$AAp?$AAU?$AAs?$AAe?$AAr?$AAD?$AAa?$AAt?$AAa@ 10066c90     LIBCMTD:dbgheap.obj
 0002:00009cd8       ??_C@_0EM@LGFLMAGJ@The?5Block?5at?50x?$CFp?5was?5allocated?5@ 10066cd8     LIBCMTD:dbgheap.obj
 0002:00009d24       ??_C@_0CE@DOFMDOL@Client?5hook?5re?9allocation?5failur@ 10066d24     LIBCMTD:dbgheap.obj
 0002:00009d48       ??_C@_0DI@KKJPDPGM@Client?5hook?5re?9allocation?5failur@ 10066d48     LIBCMTD:dbgheap.obj
 0002:00009d80       ??_C@_1BM@OKFKJCEN@?$AA_?$AAr?$AAe?$AAc?$AAa?$AAl?$AAl?$AAo?$AAc?$AA_?$AAd?$AAb?$AAg?$AA?$AA@ 10066d80     LIBCMTD:dbgheap.obj
 0002:00009d9c       ??_C@_1BI@HAPNGHDP@?$AA_?$AAe?$AAx?$AAp?$AAa?$AAn?$AAd?$AA_?$AAd?$AAb?$AAg?$AA?$AA@ 10066d9c     LIBCMTD:dbgheap.obj
 0002:00009db4       ??_C@_1CE@CJACEFBA@?$AAp?$AAU?$AAs?$AAe?$AAr?$AAD?$AAa?$AAt?$AAa?$AA?5?$AA?$CB?$AA?$DN?$AA?5?$AAN?$AAU?$AAL?$AAL?$AA?$AA@ 10066db4     LIBCMTD:dbgheap.obj
 0002:00009dd8       ??_C@_1CM@MMAADDMD@?$AA_?$AAp?$AAF?$AAi?$AAr?$AAs?$AAt?$AAB?$AAl?$AAo?$AAc?$AAk?$AA?5?$AA?$DN?$AA?$DN?$AA?5?$AAp?$AAH?$AAe?$AAa?$AAd?$AA?$AA@ 10066dd8     LIBCMTD:dbgheap.obj
 0002:00009e04       ??_C@_1CK@DMAGEMBG@?$AA_?$AAp?$AAL?$AAa?$AAs?$AAt?$AAB?$AAl?$AAo?$AAc?$AAk?$AA?5?$AA?$DN?$AA?$DN?$AA?5?$AAp?$AAH?$AAe?$AAa?$AAd?$AA?$AA@ 10066e04     LIBCMTD:dbgheap.obj
 0002:00009e30       ??_C@_1DM@ODCJIDCP@?$AAp?$AAH?$AAe?$AAa?$AAd?$AA?9?$AA?$DO?$AAn?$AAB?$AAl?$AAo?$AAc?$AAk?$AAU?$AAs?$AAe?$AA?5?$AA?$DN?$AA?$DN?$AA?5?$AAn?$AAB?$AAl?$AAo?$AAc?$AAk?$AAU?$AAs?$AAe?$AA?$AA@ 10066e30     LIBCMTD:dbgheap.obj
 0002:00009e70       ??_C@_1HK@HPCBMDFG@?$AAp?$AAH?$AAe?$AAa?$AAd?$AA?9?$AA?$DO?$AAn?$AAL?$AAi?$AAn?$AAe?$AA?5?$AA?$DN?$AA?$DN?$AA?5?$AAI?$AAG?$AAN?$AAO?$AAR?$AAE?$AA_?$AAL?$AAI?$AAN?$AAE?$AA?5?$AA?$CG?$AA?$CG?$AA?5?$AAp@ 10066e70     LIBCMTD:dbgheap.obj
 0002:00009ef0       ??_C@_0IG@LEMBDCJK@HEAP?5CORRUPTION?5DETECTED?3?5after?5@ 10066ef0     LIBCMTD:dbgheap.obj
 0002:00009f78       ??_C@_0IK@PJCGLBOB@HEAP?5CORRUPTION?5DETECTED?3?5before@ 10066f78     LIBCMTD:dbgheap.obj
 0002:0000a004       ??_C@_0BL@KEIPLFAC@Client?5hook?5free?5failure?4?6?$AA@ 10067004     LIBCMTD:dbgheap.obj
 0002:0000a020       ??_C@_0EJ@HEIBCIMJ@The?5Block?5at?50x?$CFp?5was?5allocated?5@ 10067020     LIBCMTD:dbgheap.obj
 0002:0000a06c       ??_C@_1BG@MBKOGDLD@?$AA_?$AAm?$AAs?$AAi?$AAz?$AAe?$AA_?$AAd?$AAb?$AAg?$AA?$AA@ 1006706c     LIBCMTD:dbgheap.obj
 0002:0000a084       ??_C@_0CI@JMLBEDHJ@?$CFhs?5located?5at?50x?$CFp?5is?5?$CFIu?5bytes@ 10067084     LIBCMTD:dbgheap.obj
 0002:0000a0ac       ??_C@_0CA@FGFAGAOM@?$CFhs?5allocated?5at?5file?5?$CFhs?$CI?$CFd?$CJ?4?6?$AA@ 100670ac     LIBCMTD:dbgheap.obj
 0002:0000a0d0       ??_C@_0IC@BBJIOOJH@HEAP?5CORRUPTION?5DETECTED?3?5on?5top@ 100670d0     LIBCMTD:dbgheap.obj
 0002:0000a154       ??_C@_07OHKEFPKJ@DAMAGED?$AA@ 10067154     LIBCMTD:dbgheap.obj
 0002:0000a15c       ??_C@_0CL@HNNNMKMJ@_heapchk?5fails?5with?5unknown?5retu@ 1006715c     LIBCMTD:dbgheap.obj
 0002:0000a188       ??_C@_0CC@MFFCHFHO@_heapchk?5fails?5with?5_HEAPBADPTR?4@ 10067188     LIBCMTD:dbgheap.obj
 0002:0000a1ac       ??_C@_0CC@MJGLGBDG@_heapchk?5fails?5with?5_HEAPBADEND?4@ 100671ac     LIBCMTD:dbgheap.obj
 0002:0000a1d0       ??_C@_0CD@CPKEAPBD@_heapchk?5fails?5with?5_HEAPBADNODE@ 100671d0     LIBCMTD:dbgheap.obj
 0002:0000a1f4       ??_C@_0CE@MKKHMBMK@_heapchk?5fails?5with?5_HEAPBADBEGI@ 100671f4     LIBCMTD:dbgheap.obj
 0002:0000a218       ??_C@_1BO@GJFDNMNF@?$AA_?$AAC?$AAr?$AAt?$AAS?$AAe?$AAt?$AAD?$AAb?$AAg?$AAF?$AAl?$AAa?$AAg?$AA?$AA@ 10067218     LIBCMTD:dbgheap.obj
 0002:0000a238       ??_C@_1BHO@NNANJNF@?$AA?$CI?$AAf?$AAN?$AAe?$AAw?$AAB?$AAi?$AAt?$AAs?$AA?$DN?$AA?$DN?$AA_?$AAC?$AAR?$AAT?$AAD?$AAB?$AAG?$AA_?$AAR?$AAE?$AAP?$AAO?$AAR?$AAT?$AA_?$AAF?$AAL?$AAA?$AAG?$AA?$CJ?$AA?5@ 10067238     LIBCMTD:dbgheap.obj
 0002:0000a3b8       ??_C@_1DE@GJCKCKEC@?$AA_?$AAC?$AAr?$AAt?$AAD?$AAo?$AAF?$AAo?$AAr?$AAA?$AAl?$AAl?$AAC?$AAl?$AAi?$AAe?$AAn?$AAt?$AAO?$AAb?$AAj?$AAe?$AAc?$AAt?$AAs?$AA?$AA@ 100673b8     LIBCMTD:dbgheap.obj
 0002:0000a3ec       ??_C@_1BI@CJGCEEDL@?$AAp?$AAf?$AAn?$AA?5?$AA?$CB?$AA?$DN?$AA?5?$AAN?$AAU?$AAL?$AAL?$AA?$AA@ 100673ec     LIBCMTD:dbgheap.obj
 0002:0000a404       ??_C@_1CG@DGPPLLPG@?$AA_?$AAg?$AAe?$AAt?$AA_?$AAo?$AAs?$AAv?$AAe?$AAr?$AA?$CI?$AA?$CG?$AAo?$AAs?$AAv?$AAe?$AAr?$AA?$CJ?$AA?$AA@ 10067404     LIBCMTD:dbgheap.obj
 0002:0000a42c       ??_C@_1CO@JHPAACDJ@?$AA_?$AAC?$AAr?$AAt?$AAI?$AAs?$AAV?$AAa?$AAl?$AAi?$AAd?$AAH?$AAe?$AAa?$AAp?$AAP?$AAo?$AAi?$AAn?$AAt?$AAe?$AAr?$AA?$AA@ 1006742c     LIBCMTD:dbgheap.obj
 0002:0000a45c       ??_C@_0CB@EAAIGELO@Bad?5memory?5block?5found?5at?50x?$CFp?4?6@ 1006745c     LIBCMTD:dbgheap.obj
 0002:0000a480       ??_C@_1CE@NJJKELF@?$AA_?$AAC?$AAr?$AAt?$AAM?$AAe?$AAm?$AAC?$AAh?$AAe?$AAc?$AAk?$AAp?$AAo?$AAi?$AAn?$AAt?$AA?$AA@ 10067480     LIBCMTD:dbgheap.obj
 0002:0000a4a4       ??_C@_1BM@MIMANDHC@?$AAs?$AAt?$AAa?$AAt?$AAe?$AA?5?$AA?$CB?$AA?$DN?$AA?5?$AAN?$AAU?$AAL?$AAL?$AA?$AA@ 100674a4     LIBCMTD:dbgheap.obj
 0002:0000a4c0       ??_C@_1CC@DFPEDFBP@?$AAn?$AAe?$AAw?$AAS?$AAt?$AAa?$AAt?$AAe?$AA?5?$AA?$CB?$AA?$DN?$AA?5?$AAN?$AAU?$AAL?$AAL?$AA?$AA@ 100674c0     LIBCMTD:dbgheap.obj
 0002:0000a4e4       ??_C@_1CC@DHPFEMMN@?$AAo?$AAl?$AAd?$AAS?$AAt?$AAa?$AAt?$AAe?$AA?5?$AA?$CB?$AA?$DN?$AA?5?$AAN?$AAU?$AAL?$AAL?$AA?$AA@ 100674e4     LIBCMTD:dbgheap.obj
 0002:0000a508       ??_C@_1CE@PDIENACM@?$AA_?$AAC?$AAr?$AAt?$AAM?$AAe?$AAm?$AAD?$AAi?$AAf?$AAf?$AAe?$AAr?$AAe?$AAn?$AAc?$AAe?$AA?$AA@ 10067508     LIBCMTD:dbgheap.obj
 0002:0000a52c       ??_C@_0BH@GFGKJDCO@Object?5dump?5complete?4?6?$AA@ 1006752c     LIBCMTD:dbgheap.obj
 0002:0000a544       ??_C@_0DA@MDLBNIBM@crt?5block?5at?50x?$CFp?0?5subtype?5?$CFx?0?5?$CF@ 10067544     LIBCMTD:dbgheap.obj
 0002:0000a574       ??_C@_0CH@FAGDDGPN@normal?5block?5at?50x?$CFp?0?5?$CFIu?5bytes?5@ 10067574     LIBCMTD:dbgheap.obj
 0002:0000a59c       ??_C@_0DD@GHNAAKBB@client?5block?5at?50x?$CFp?0?5subtype?5?$CFx@ 1006759c     LIBCMTD:dbgheap.obj
 0002:0000a5d0       ??_C@_06PKLGBFGM@?$HL?$CFld?$HN?5?$AA@ 100675d0     LIBCMTD:dbgheap.obj
 0002:0000a5d8       ??_C@_0L@JMEFFCCJ@?$CFhs?$CI?$CFd?$CJ?5?3?5?$AA@ 100675d8     LIBCMTD:dbgheap.obj
 0002:0000a5e4       ??_C@_0BE@OIEFNFL@?$CDFile?5Error?$CD?$CI?$CFd?$CJ?5?3?5?$AA@ 100675e4     LIBCMTD:dbgheap.obj
 0002:0000a5f8       ??_C@_0BE@KCIPKCIA@Dumping?5objects?5?9?$DO?6?$AA@ 100675f8     LIBCMTD:dbgheap.obj
 0002:0000a60c       ??_C@_0BA@HJBKCELP@?5Data?3?5?$DM?$CFs?$DO?5?$CFs?6?$AA@ 1006760c     LIBCMTD:dbgheap.obj
 0002:0000a61c       ??_C@_1CG@LPFIACGM@?$AA_?$AAp?$AAr?$AAi?$AAn?$AAt?$AAM?$AAe?$AAm?$AAB?$AAl?$AAo?$AAc?$AAk?$AAD?$AAa?$AAt?$AAa?$AA?$AA@ 1006761c     LIBCMTD:dbgheap.obj
 0002:0000a644       ??_C@_05MKKEDADM@?$CF?42X?5?$AA@ 10067644     LIBCMTD:dbgheap.obj
 0002:0000a64c       ??_C@_0BI@JBFPOEJA@Detected?5memory?5leaks?$CB?6?$AA@ 1006764c     LIBCMTD:dbgheap.obj
 0002:0000a664       ??_C@_0BP@DEDHGGGI@Total?5allocations?3?5?$CFId?5bytes?4?6?$AA@ 10067664     LIBCMTD:dbgheap.obj
 0002:0000a684       ??_C@_0CB@BLHDAFNE@Largest?5number?5used?3?5?$CFId?5bytes?4?6@ 10067684     LIBCMTD:dbgheap.obj
 0002:0000a6a8       ??_C@_0BO@DACNIABB@?$CFId?5bytes?5in?5?$CFId?5?$CFhs?5Blocks?4?6?$AA@ 100676a8     LIBCMTD:dbgheap.obj
 0002:0000a6c8       ??_C@_1CM@MPNIBKGK@?$AA_?$AAC?$AAr?$AAt?$AAM?$AAe?$AAm?$AAD?$AAu?$AAm?$AAp?$AAS?$AAt?$AAa?$AAt?$AAi?$AAs?$AAt?$AAi?$AAc?$AAs?$AA?$AA@ 100676c8     LIBCMTD:dbgheap.obj
 0002:0000a6f4       ??_C@_1DK@LFLKFPDA@?$AAo?$AAf?$AAf?$AAs?$AAe?$AAt?$AA?5?$AA?$DN?$AA?$DN?$AA?5?$AA0?$AA?5?$AA?$HM?$AA?$HM?$AA?5?$AAo?$AAf?$AAf?$AAs?$AAe?$AAt?$AA?5?$AA?$DM?$AA?5?$AAs?$AAi?$AAz?$AAe?$AA?$AA@ 100676f4     LIBCMTD:dbgheap.obj
 0002:0000a730       ??_C@_1DG@DONCJBBJ@?$AA_?$AAa?$AAl?$AAi?$AAg?$AAn?$AAe?$AAd?$AA_?$AAo?$AAf?$AAf?$AAs?$AAe?$AAt?$AA_?$AAm?$AAa?$AAl?$AAl?$AAo?$AAc?$AA_?$AAd?$AAb?$AAg?$AA?$AA@ 10067730     LIBCMTD:dbgheap.obj
 0002:0000a768       ??_C@_1CE@NPMGPNNP@?$AAI?$AAS?$AA_?$AA2?$AA_?$AAP?$AAO?$AAW?$AA_?$AAN?$AA?$CI?$AAa?$AAl?$AAi?$AAg?$AAn?$AA?$CJ?$AA?$AA@ 10067768     LIBCMTD:dbgheap.obj
 0002:0000a78c       ??_C@_1DI@NINIKFFK@?$AA_?$AAa?$AAl?$AAi?$AAg?$AAn?$AAe?$AAd?$AA_?$AAo?$AAf?$AAf?$AAs?$AAe?$AAt?$AA_?$AAr?$AAe?$AAa?$AAl?$AAl?$AAo?$AAc?$AA_?$AAd?$AAb?$AAg?$AA?$AA@ 1006778c     LIBCMTD:dbgheap.obj
 0002:0000a7c4       ??_C@_0DL@PGHMMKNE@Damage?5before?50x?$CFp?5which?5was?5all@ 100677c4     LIBCMTD:dbgheap.obj
 0002:0000a800       ??_C@_0EI@NDNJMAJK@The?5block?5at?50x?$CFp?5was?5not?5alloca@ 10067800     LIBCMTD:dbgheap.obj
 0002:0000a848       ??_C@_1DK@MMLHIFFH@?$AA_?$AAa?$AAl?$AAi?$AAg?$AAn?$AAe?$AAd?$AA_?$AAo?$AAf?$AAf?$AAs?$AAe?$AAt?$AA_?$AAr?$AAe?$AAc?$AAa?$AAl?$AAl?$AAo?$AAc?$AA_?$AAd?$AAb?$AAg?$AA?$AA@ 10067848     LIBCMTD:dbgheap.obj
 0002:0000a888       ??_C@_0EF@PGELACII@The?5block?5at?50x?$CFp?5was?5not?5alloca@ 10067888     LIBCMTD:dbgheap.obj
 0002:0000a8d0       ??_C@_1BE@PMMBFFCC@?$AAw?$AAc?$AAs?$AAn?$AAc?$AAp?$AAy?$AA_?$AAs?$AA?$AA@ 100678d0     LIBCMTD:wcsncpy_s.obj
 0002:0000a8e8       ??_C@_1GM@MGKGJLGA@?$AAF?$AA?3?$AA?2?$AAR?$AAT?$AAM?$AA?2?$AAv?$AAc?$AAt?$AAo?$AAo?$AAl?$AAs?$AA?2?$AAc?$AAr?$AAt?$AA_?$AAb?$AAl?$AAd?$AA?2?$AAS?$AAE?$AAL?$AAF?$AA_?$AAX?$AA8?$AA6?$AA?2@ 100678e8     LIBCMTD:wcsncpy_s.obj
 0002:0000a958       ??_C@_1FC@PFMLEHKI@?$AA?$CI?$AA?$CI?$AA_?$AAD?$AAs?$AAt?$AA?$CJ?$AA?$CJ?$AA?5?$AA?$CB?$AA?$DN?$AA?5?$AAN?$AAU?$AAL?$AAL?$AA?5?$AA?$CG?$AA?$CG?$AA?5?$AA?$CI?$AA?$CI?$AA_?$AAS?$AAi?$AAz?$AAe?$AAI?$AAn?$AAW?$AAo?$AAr@ 10067958     LIBCMTD:wcsncpy_s.obj
 0002:0000a9ac       ??_C@_08GNMOIKDK@onexit?4c?$AA@ 100679ac     LIBCMTD:onexit.obj
 0002:0000a9b8       __pDefaultRawDllMain       100679b8     LIBCMTD:dllcrt0.obj
 0002:0000a9b8       __pRawDllMain              100679b8     LIBCMTD:dllcrt0.obj
 0002:0000a9bc       ??_C@_09IFKEODFF@dllcrt0?4c?$AA@ 100679bc     LIBCMTD:dllcrt0.obj
 0002:0000a9c8       ??_C@_1CC@OLIJCKA@?$AA?$CI?$AAs?$AAt?$AAr?$AAi?$AAn?$AAg?$AA?5?$AA?$CB?$AA?$DN?$AA?5?$AAN?$AAU?$AAL?$AAL?$AA?$CJ?$AA?$AA@ 100679c8     LIBCMTD:sprintf.obj
 0002:0000a9ec       ??_C@_1BA@KBJJGFFE@?$AAs?$AAp?$AAr?$AAi?$AAn?$AAt?$AAf?$AA?$AA@ 100679ec     LIBCMTD:sprintf.obj
 0002:0000a9fc       ??_C@_1BE@BPBEAPLI@?$AAs?$AAp?$AAr?$AAi?$AAn?$AAt?$AAf?$AA?4?$AAc?$AA?$AA@ 100679fc     LIBCMTD:sprintf.obj
 0002:0000aa10       ??_C@_1CC@MGIEJOME@?$AA?$CI?$AAf?$AAo?$AAr?$AAm?$AAa?$AAt?$AA?5?$AA?$CB?$AA?$DN?$AA?5?$AAN?$AAU?$AAL?$AAL?$AA?$CJ?$AA?$AA@ 10067a10     LIBCMTD:sprintf.obj
 0002:0000aa34       ??_C@_1BG@KCMPBBDK@?$AA_?$AAg?$AAe?$AAt?$AA_?$AAe?$AAr?$AAr?$AAn?$AAo?$AA?$AA@ 10067a34     LIBCMTD:dosmap.obj
 0002:0000aa4c       ??_C@_1BC@GFJPPMFE@?$AAd?$AAo?$AAs?$AAm?$AAa?$AAp?$AA?4?$AAc?$AA?$AA@ 10067a4c     LIBCMTD:dosmap.obj
 0002:0000aa60       ??_C@_1BO@LKEBEKJP@?$AAp?$AAV?$AAa?$AAl?$AAu?$AAe?$AA?5?$AA?$CB?$AA?$DN?$AA?5?$AAN?$AAU?$AAL?$AAL?$AA?$AA@ 10067a60     LIBCMTD:dosmap.obj
 0002:0000aa80       ??_C@_1BM@INIPHHDD@?$AA_?$AAg?$AAe?$AAt?$AA_?$AAd?$AAo?$AAs?$AAe?$AAr?$AAr?$AAn?$AAo?$AA?$AA@ 10067a80     LIBCMTD:dosmap.obj
 0002:0000aa9c       ??_C@_0BB@NAGLCMLI@Assertion?5Failed?$AA@ 10067a9c     LIBCMTD:dbgrpt.obj
 0002:0000aab0       ??_C@_05NAOIJFC@Error?$AA@ 10067ab0     LIBCMTD:dbgrpt.obj
 0002:0000aab8       ??_C@_07KGMMFLDN@Warning?$AA@ 10067ab8     LIBCMTD:dbgrpt.obj
 0002:0000aac0       ??_C@_08ODMAMGBE@dbgrpt?4c?$AA@ 10067ac0     LIBCMTD:dbgrpt.obj
 0002:0000aacc       ??_C@_1CG@GNMJDMIO@?$AA_?$AAC?$AAr?$AAt?$AAS?$AAe?$AAt?$AAR?$AAe?$AAp?$AAo?$AAr?$AAt?$AAH?$AAo?$AAo?$AAk?$AA2?$AA?$AA@ 10067acc     LIBCMTD:dbgrpt.obj
 0002:0000aaf4       ??_C@_1BC@CBGBJLNL@?$AAd?$AAb?$AAg?$AAr?$AAp?$AAt?$AA?4?$AAc?$AA?$AA@ 10067af4     LIBCMTD:dbgrpt.obj
 0002:0000ab08       ??_C@_0CD@EBCGLDDL@Microsoft?5Visual?5C?$CL?$CL?5Debug?5Libra@ 10067b08     LIBCMTD:dbgrpt.obj
 0002:0000ab2c       ??_C@_0CL@EACFGMNB@_CrtDbgReport?3?5String?5too?5long?5o@ 10067b2c     LIBCMTD:dbgrpt.obj
 0002:0000ab58       ??_C@_1JG@CPKCIOEE@?$AAs?$AAt?$AAr?$AAc?$AAp?$AAy?$AA_?$AAs?$AA?$CI?$AAs?$AAz?$AAO?$AAu?$AAt?$AAM?$AAe?$AAs?$AAs?$AAa?$AAg?$AAe?$AA?0?$AA?5?$AA4?$AA0?$AA9?$AA6?$AA?0?$AA?5?$AA?$CC?$AA_?$AAC@ 10067b58     LIBCMTD:dbgrpt.obj
 0002:0000abf0       ??_C@_0FF@CCONDJCB@Debug?5?$CFs?$CB?6?6Program?3?5?$CFs?$CFs?$CFs?$CFs?$CFs?$CFs@ 10067bf0     LIBCMTD:dbgrpt.obj
 0002:0000ac48       ??_C@_09OFBFHMBK@?6Module?3?5?$AA@ 10067c48     LIBCMTD:dbgrpt.obj
 0002:0000ac54       ??_C@_07OPHPPLBG@?6File?3?5?$AA@ 10067c54     LIBCMTD:dbgrpt.obj
 0002:0000ac5c       ??_C@_07DBMPPHDI@?6Line?3?5?$AA@ 10067c5c     LIBCMTD:dbgrpt.obj
 0002:0000ac64       ??_C@_02PHMGELLB@?6?6?$AA@ 10067c64     LIBCMTD:dbgrpt.obj
 0002:0000ac68       ??_C@_0N@MEECIJGN@Expression?3?5?$AA@ 10067c68     LIBCMTD:dbgrpt.obj
 0002:0000ac75       ??_C@_00CNPNBAHC@?$AA@     10067c75     LIBCMTD:dbgrpt.obj
 0002:0000ac78       ??_C@_0HD@GNBNFCCL@?6?6For?5information?5on?5how?5your?5pr@ 10067c78     LIBCMTD:dbgrpt.obj
 0002:0000acf0       ??_C@_1KA@GHPEDBGI@?$AA_?$AAm?$AAb?$AAs?$AAn?$AAb?$AAc?$AAp?$AAy?$AA_?$AAs?$AA?$CI?$AAs?$AAz?$AAS?$AAh?$AAo?$AAr?$AAt?$AAP?$AAr?$AAo?$AAg?$AAN?$AAa?$AAm?$AAe?$AA?0?$AA?5?$AA2?$AA6?$AA0@ 10067cf0     LIBCMTD:dbgrpt.obj
 0002:0000ad90       ??_C@_0BH@DNAGHKFM@?$DMprogram?5name?5unknown?$DO?$AA@ 10067d90     LIBCMTD:dbgrpt.obj
 0002:0000ada8       ??_C@_1GG@DLDHOIGE@?$AAs?$AAt?$AAr?$AAc?$AAp?$AAy?$AA_?$AAs?$AA?$CI?$AAs?$AAz?$AAE?$AAx?$AAe?$AAN?$AAa?$AAm?$AAe?$AA?0?$AA?5?$AA2?$AA6?$AA0?$AA?0?$AA?5?$AA?$CC?$AA?$DM?$AAp?$AAr?$AAo?$AAg?$AAr@ 10067da8     LIBCMTD:dbgrpt.obj
 0002:0000ae10       ??_C@_1CI@IDOKFLAJ@?$AA_?$AA_?$AAc?$AAr?$AAt?$AAM?$AAe?$AAs?$AAs?$AAa?$AAg?$AAe?$AAW?$AAi?$AAn?$AAd?$AAo?$AAw?$AAA?$AA?$AA@ 10067e10     LIBCMTD:dbgrpt.obj
 0002:0000ae38       ??_C@_1EC@FABAOFFO@?$AA?$CI?$AAc?$AAo?$AAu?$AAn?$AAt?$AA?5?$AA?$DN?$AA?$DN?$AA?5?$AA0?$AA?$CJ?$AA?5?$AA?$HM?$AA?$HM?$AA?5?$AA?$CI?$AAs?$AAt?$AAr?$AAi?$AAn?$AAg?$AA?5?$AA?$CB?$AA?$DN?$AA?5?$AAN?$AAU?$AAL?$AAL?$AA?$CJ@ 10067e38     LIBCMTD:vsnprnc.obj
 0002:0000ae7c       ??_C@_1CE@PCFPEIFI@?$AA_?$AAv?$AAs?$AAn?$AAp?$AAr?$AAi?$AAn?$AAt?$AAf?$AA_?$AAh?$AAe?$AAl?$AAp?$AAe?$AAr?$AA?$AA@ 10067e7c     LIBCMTD:vsnprnc.obj
 0002:0000aea0       ??_C@_1GG@MADCPNLD@?$AAf?$AA?3?$AA?2?$AAr?$AAt?$AAm?$AA?2?$AAv?$AAc?$AAt?$AAo?$AAo?$AAl?$AAs?$AA?2?$AAc?$AAr?$AAt?$AA_?$AAb?$AAl?$AAd?$AA?2?$AAs?$AAe?$AAl?$AAf?$AA_?$AAx?$AA8?$AA6?$AA?2@ 10067ea0     LIBCMTD:vsnprnc.obj
 0002:0000af08       ??_C@_1DA@HPBFKMEB@?$AA?$CI?$AA?$CC?$AAB?$AAu?$AAf?$AAf?$AAe?$AAr?$AA?5?$AAt?$AAo?$AAo?$AA?5?$AAs?$AAm?$AAa?$AAl?$AAl?$AA?$CC?$AA?0?$AA?5?$AA0?$AA?$CJ?$AA?$AA@ 10067f08     LIBCMTD:vsnprnc.obj
 0002:0000af38       ??_C@_1EE@OKCKIGFK@?$AAs?$AAt?$AAr?$AAi?$AAn?$AAg?$AA?5?$AA?$CB?$AA?$DN?$AA?5?$AAN?$AAU?$AAL?$AAL?$AA?5?$AA?$CG?$AA?$CG?$AA?5?$AAs?$AAi?$AAz?$AAe?$AAI?$AAn?$AAB?$AAy?$AAt?$AAe?$AAs?$AA?5?$AA?$DO?$AA?5@ 10067f38     LIBCMTD:vsnprnc.obj
 0002:0000af7c       ??_C@_1BM@BLJALHEF@?$AA_?$AAv?$AAs?$AAp?$AAr?$AAi?$AAn?$AAt?$AAf?$AA_?$AAs?$AA_?$AAl?$AA?$AA@ 10067f7c     LIBCMTD:vsnprnc.obj
 0002:0000af98       ??_C@_1BO@MLMCMBKN@?$AAf?$AAo?$AAr?$AAm?$AAa?$AAt?$AA?5?$AA?$CB?$AA?$DN?$AA?5?$AAN?$AAU?$AAL?$AAL?$AA?$AA@ 10067f98     LIBCMTD:vsnprnc.obj
 0002:0000afb8       ??_C@_1BO@MMPELNIM@?$AA_?$AAv?$AAs?$AAn?$AAp?$AAr?$AAi?$AAn?$AAt?$AAf?$AA_?$AAs?$AA_?$AAl?$AA?$AA@ 10067fb8     LIBCMTD:vsnprnc.obj
 0002:0000afd8       ??_C@_1CE@IGKFIJFD@?$AA_?$AAv?$AAs?$AAw?$AAp?$AAr?$AAi?$AAn?$AAt?$AAf?$AA_?$AAh?$AAe?$AAl?$AAp?$AAe?$AAr?$AA?$AA@ 10067fd8     LIBCMTD:vswprnc.obj
 0002:0000b000       ??_C@_1GG@PFLMBLMN@?$AAf?$AA?3?$AA?2?$AAr?$AAt?$AAm?$AA?2?$AAv?$AAc?$AAt?$AAo?$AAo?$AAl?$AAs?$AA?2?$AAc?$AAr?$AAt?$AA_?$AAb?$AAl?$AAd?$AA?2?$AAs?$AAe?$AAl?$AAf?$AA_?$AAx?$AA8?$AA6?$AA?2@ 10068000     LIBCMTD:vswprnc.obj
 0002:0000b068       ??_C@_1EE@MPCHJFGP@?$AAs?$AAt?$AAr?$AAi?$AAn?$AAg?$AA?5?$AA?$CB?$AA?$DN?$AA?5?$AAN?$AAU?$AAL?$AAL?$AA?5?$AA?$CG?$AA?$CG?$AA?5?$AAs?$AAi?$AAz?$AAe?$AAI?$AAn?$AAW?$AAo?$AAr?$AAd?$AAs?$AA?5?$AA?$DO?$AA?5@ 10068068     LIBCMTD:vswprnc.obj
 0002:0000b0ac       ??_C@_1BO@OALHJLCI@?$AA_?$AAv?$AAs?$AAw?$AAp?$AAr?$AAi?$AAn?$AAt?$AAf?$AA_?$AAs?$AA_?$AAl?$AA?$AA@ 100680ac     LIBCMTD:vswprnc.obj
 0002:0000b0cc       ??_C@_1CA@BKFKMJFF@?$AA_?$AAv?$AAs?$AAn?$AAw?$AAp?$AAr?$AAi?$AAn?$AAt?$AAf?$AA_?$AAs?$AA_?$AAl?$AA?$AA@ 100680cc     LIBCMTD:vswprnc.obj
 0002:0000b0ec       ??_C@_1BE@BMIJMLDD@?$AA_?$AAs?$AAw?$AAp?$AAr?$AAi?$AAn?$AAt?$AAf?$AA?$AA@ 100680ec     LIBCMTD:swprintf.obj
 0002:0000b100       ??_C@_1BG@CEFLJIIJ@?$AAs?$AAw?$AAp?$AAr?$AAi?$AAn?$AAt?$AAf?$AA?4?$AAc?$AA?$AA@ 10068100     LIBCMTD:swprintf.obj
 0002:0000b118       ??_C@_1BC@KIONAFPO@?$AAw?$AAc?$AAs?$AAc?$AAp?$AAy?$AA_?$AAs?$AA?$AA@ 10068118     LIBCMTD:wcscpy_s.obj
 0002:0000b12c       ??_C@_1BE@NMKKBGPA@?$AAm?$AAe?$AAm?$AAm?$AAo?$AAv?$AAe?$AA_?$AAs?$AA?$AA@ 1006812c     LIBCMTD:memmove_s.obj
 0002:0000b140       ??_C@_1BI@FBHFDPFC@?$AAm?$AAe?$AAm?$AAm?$AAo?$AAv?$AAe?$AA_?$AAs?$AA?4?$AAc?$AA?$AA@ 10068140     LIBCMTD:memmove_s.obj
 0002:0000b158       ??_C@_1BG@EELGPCPD@?$AA_?$AAw?$AAc?$AAs?$AAi?$AAc?$AAm?$AAp?$AA_?$AAl?$AA?$AA@ 10068158     LIBCMTD:wcsicmp.obj
 0002:0000b170       ??_C@_1BE@MEHEGHGK@?$AAw?$AAc?$AAs?$AAi?$AAc?$AAm?$AAp?$AA?4?$AAc?$AA?$AA@ 10068170     LIBCMTD:wcsicmp.obj
 0002:0000b184       ??_C@_1BC@NHIBDOMC@?$AA_?$AAw?$AAc?$AAs?$AAi?$AAc?$AAm?$AAp?$AA?$AA@ 10068184     LIBCMTD:wcsicmp.obj
 0002:0000b198       ??_C@_07CKDBCAPD@mlock?4c?$AA@ 10068198     LIBCMTD:mlock.obj
 0002:0000b1a0       ??_C@_0BO@GNIAFIKK@Unknown?5Runtime?5Check?5Error?6?$AN?$AA@ 100681a0     LIBCMTD:error.obj
 0002:0000b1c0       ??_C@_0CM@NGINOKPC@Stack?5memory?5around?5_alloca?5was?5@ 100681c0     LIBCMTD:error.obj
 0002:0000b1ec       ??_C@_0DG@HKJMLLLP@A?5local?5variable?5was?5used?5before@ 100681ec     LIBCMTD:error.obj
 0002:0000b224       ??_C@_0BN@FFOINMNJ@Stack?5memory?5was?5corrupted?6?$AN?$AA@ 10068224     LIBCMTD:error.obj
 0002:0000b248       ??_C@_0BBN@GPMLNJCF@A?5cast?5to?5a?5smaller?5data?5type?5ha@ 10068248     LIBCMTD:error.obj
 0002:0000b368       ??_C@_0NN@NGPKDKPD@The?5value?5of?5ESP?5was?5not?5properl@ 10068368     LIBCMTD:error.obj
 0002:0000b4c8       ??_C@_0CA@IODNCDPG@Run?9Time?5Check?5Failure?5?$CD?$CFd?5?9?5?$CFs?$AA@ 100684c8     LIBCMTD:error.obj
 0002:0000b4e8       ??_C@_0BE@GNBOBNCK@Unknown?5Module?5Name?$AA@ 100684e8     LIBCMTD:error.obj
 0002:0000b4fc       ??_C@_0BB@PFFGGCJP@Unknown?5Filename?$AA@ 100684fc     LIBCMTD:error.obj
 0002:0000b510       ??_C@_1EA@NFKNIFJP@?$AAR?$AAu?$AAn?$AA?9?$AAT?$AAi?$AAm?$AAe?$AA?5?$AAC?$AAh?$AAe?$AAc?$AAk?$AA?5?$AAF?$AAa?$AAi?$AAl?$AAu?$AAr?$AAe?$AA?5?$AA?$CD?$AA?$CF?$AAd?$AA?5?$AA?9?$AA?5?$AA?$CF?$AAs?$AA?$AA@ 10068510     LIBCMTD:error.obj
 0002:0000b550       ??_C@_1GM@OLMCBDMB@?$AAR?$AAu?$AAn?$AAt?$AAi?$AAm?$AAe?$AA?5?$AAC?$AAh?$AAe?$AAc?$AAk?$AA?5?$AAE?$AAr?$AAr?$AAo?$AAr?$AA?4?$AA?6?$AA?$AN?$AA?5?$AAU?$AAn?$AAa?$AAb?$AAl?$AAe?$AA?5?$AAt?$AAo@ 10068550     LIBCMTD:error.obj
 0002:0000b5bc       ??_C@_0CG@IAFNJNEE@Stack?5corrupted?5near?5unknown?5var@ 100685bc     LIBCMTD:error.obj
 0002:0000b5e8       ??_C@_0EJ@LJKNEOLN@Stack?5area?5around?5_alloca?5memory@ 100685e8     LIBCMTD:error.obj
 0002:0000b634       ??_C@_08KJEDNCKC@?$CFs?$CFs?$CFs?$CFs?$AA@ 10068634     LIBCMTD:error.obj
 0002:0000b640       ??_C@_02LLMPMKNF@?$DO?5?$AA@ 10068640     LIBCMTD:error.obj
 0002:0000b644       ??_C@_01EEMJAFIK@?6?$AA@   10068644     LIBCMTD:error.obj
 0002:0000b648       ??_C@_0BC@KIBAILCI@?$CFs?$CFs?$CFp?$CFs?$CFld?$CFs?$CFd?$CFs?$AA@ 10068648     LIBCMTD:error.obj
 0002:0000b660       ??_C@_0EI@CLEPFNGI@Stack?5area?5around?5_alloca?5memory@ 10068660     LIBCMTD:error.obj
 0002:0000b6a8       ??_C@_0N@MHFFIMFG@?6Address?3?50x?$AA@ 100686a8     LIBCMTD:error.obj
 0002:0000b6b8       ??_C@_07DFDJCKFN@?6Size?3?5?$AA@ 100686b8     LIBCMTD:error.obj
 0002:0000b6c0       ??_C@_0CK@DKGBICFE@?6Allocation?5number?5within?5this?5f@ 100686c0     LIBCMTD:error.obj
 0002:0000b6ec       ??_C@_08OMAHNMHJ@?6Data?3?5?$DM?$AA@ 100686ec     LIBCMTD:error.obj
 0002:0000b6f8       ??_C@_09FOPFMPEJ@wsprintfA?$AA@ 100686f8     LIBCMTD:error.obj
 0002:0000b704       ??_C@_0L@GMPLCCII@user32?4dll?$AA@ 10068704     LIBCMTD:error.obj
 0002:0000b710       ??_C@_0DA@BEGFPCGG@A?5variable?5is?5being?5used?5without@ 10068710     LIBCMTD:error.obj
 0002:0000b740       ??_C@_0BP@OGBCLIBO@Stack?5around?5_alloca?5corrupted?$AA@ 10068740     LIBCMTD:userapi.obj
 0002:0000b760       ??_C@_0CK@CNLNOEPB@Local?5variable?5used?5before?5initi@ 10068760     LIBCMTD:userapi.obj
 0002:0000b78c       ??_C@_0BI@CIGMDCBH@Stack?5memory?5corruption?$AA@ 1006878c     LIBCMTD:userapi.obj
 0002:0000b7a4       ??_C@_0CK@FEGOIOPB@Cast?5to?5smaller?5type?5causing?5los@ 100687a4     LIBCMTD:userapi.obj
 0002:0000b7d0       ??_C@_0BJ@HEGAHDFO@Stack?5pointer?5corruption?$AA@ 100687d0     LIBCMTD:userapi.obj
 0002:0000b7ec       ??_C@_0O@NJIIDJEH@i386?2chkesp?4c?$AA@ 100687ec     LIBCMTD:chkesp.obj
 0002:0000b800       ??_C@_0NM@DNEDKLDF@The?5value?5of?5ESP?5was?5not?5properl@ 10068800     LIBCMTD:chkesp.obj
 0002:0000b8dc       ??_C@_1BI@OINOOFEA@?$AAh?$AAa?$AAn?$AAd?$AAl?$AAe?$AAr?$AA?4?$AAc?$AAp?$AAp?$AA?$AA@ 100688dc     LIBCMTD:handler.obj
 0002:0000b8f4       ??_C@_1BC@JLLICHIC@?$AAp?$AAn?$AAh?$AA?5?$AA?$DN?$AA?$DN?$AA?5?$AA0?$AA?$AA@ 100688f4     LIBCMTD:handler.obj
 0002:0000b90c       ??_7exception@std@@6B@     1006890c     LIBCMTD:stdexcpt.obj
 0002:0000b914       ??_C@_0BC@EOODALEL@Unknown?5exception?$AA@ 10068914     LIBCMTD:stdexcpt.obj
 0002:0000b92c       ??_7bad_cast@std@@6B@      1006892c     LIBCMTD:stdexcpt.obj
 0002:0000b938       ??_7bad_typeid@std@@6B@    10068938     LIBCMTD:stdexcpt.obj
 0002:0000b944       ??_7__non_rtti_object@std@@6B@ 10068944     LIBCMTD:stdexcpt.obj
 0002:0000b950       ??_C@_1NK@LOFHIHFC@?$AAf?$AAM?$AAo?$AAd?$AAe?$AA?5?$AA?$DN?$AA?$DN?$AA?5?$AA_?$AAC?$AAR?$AAT?$AAD?$AAB?$AAG?$AA_?$AAR?$AAE?$AAP?$AAO?$AAR?$AAT?$AA_?$AAM?$AAO?$AAD?$AAE?$AA?5?$AA?$HM?$AA?$HM?$AA?5@ 10068950     LIBCMTD:dbgrptt.obj
 0002:0000ba2c       ??_C@_1CE@FIHIECNJ@?$AA_?$AAC?$AAr?$AAt?$AAS?$AAe?$AAt?$AAR?$AAe?$AAp?$AAo?$AAr?$AAt?$AAM?$AAo?$AAd?$AAe?$AA?$AA@ 10068a2c     LIBCMTD:dbgrptt.obj
 0002:0000ba50       ??_C@_1BE@FLKCNJCI@?$AAd?$AAb?$AAg?$AAr?$AAp?$AAt?$AAt?$AA?4?$AAc?$AA?$AA@ 10068a50     LIBCMTD:dbgrptt.obj
 0002:0000ba68       ??_C@_1FA@IFFFOLDJ@?$AAn?$AAR?$AAp?$AAt?$AAT?$AAy?$AAp?$AAe?$AA?5?$AA?$DO?$AA?$DN?$AA?5?$AA0?$AA?5?$AA?$CG?$AA?$CG?$AA?5?$AAn?$AAR?$AAp?$AAt?$AAT?$AAy?$AAp?$AAe?$AA?5?$AA?$DM?$AA?5?$AA_?$AAC?$AAR?$AAT@ 10068a68     LIBCMTD:dbgrptt.obj
 0002:0000bab8       ??_C@_1CE@IKKEDCME@?$AA_?$AAC?$AAr?$AAt?$AAS?$AAe?$AAt?$AAR?$AAe?$AAp?$AAo?$AAr?$AAt?$AAF?$AAi?$AAl?$AAe?$AA?$AA@ 10068ab8     LIBCMTD:dbgrptt.obj
 0002:0000bae0       ??_C@_1HO@PJOFIKFE@?$AA_?$AAC?$AAr?$AAt?$AAD?$AAb?$AAg?$AAR?$AAe?$AAp?$AAo?$AAr?$AAt?$AA?3?$AA?5?$AAS?$AAt?$AAr?$AAi?$AAn?$AAg?$AA?5?$AAt?$AAo?$AAo?$AA?5?$AAl?$AAo?$AAn?$AAg?$AA?5?$AAo@ 10068ae0     LIBCMTD:dbgrptt.obj
 0002:0000bb60       ??_C@_1MC@IGEECMDB@?$AAw?$AAc?$AAs?$AAc?$AAp?$AAy?$AA_?$AAs?$AA?$CI?$AAs?$AAz?$AAO?$AAu?$AAt?$AAM?$AAe?$AAs?$AAs?$AAa?$AAg?$AAe?$AA2?$AA?0?$AA?5?$AA4?$AA0?$AA9?$AA6?$AA?0?$AA?5?$AAL?$AA?$CC@ 10068b60     LIBCMTD:dbgrptt.obj
 0002:0000bc28       ??_C@_1IM@OOKIFKOH@?$AAe?$AA?5?$AA?$DN?$AA?5?$AAm?$AAb?$AAs?$AAt?$AAo?$AAw?$AAc?$AAs?$AA_?$AAs?$AA?$CI?$AA?$CG?$AAr?$AAe?$AAt?$AA?0?$AA?5?$AAs?$AAz?$AAO?$AAu?$AAt?$AAM?$AAe?$AAs?$AAs?$AAa?$AAg@ 10068c28     LIBCMTD:dbgrptt.obj
 0002:0000bcb8       ??_C@_1FI@IBIOIHEG@?$AAs?$AAt?$AAr?$AAc?$AAp?$AAy?$AA_?$AAs?$AA?$CI?$AAs?$AAz?$AAO?$AAu?$AAt?$AAM?$AAe?$AAs?$AAs?$AAa?$AAg?$AAe?$AA?0?$AA?5?$AA4?$AA0?$AA9?$AA6?$AA?0?$AA?5?$AAs?$AAz?$AAL@ 10068cb8     LIBCMTD:dbgrptt.obj
 0002:0000bd10       ??_C@_0M@IPILFDFN@?$CFs?$CI?$CFd?$CJ?5?3?5?$CFs?$AA@ 10068d10     LIBCMTD:dbgrptt.obj
 0002:0000bd20       ??_C@_1EI@LDHJEDO@?$AAs?$AAt?$AAr?$AAc?$AAa?$AAt?$AA_?$AAs?$AA?$CI?$AAs?$AAz?$AAL?$AAi?$AAn?$AAe?$AAM?$AAe?$AAs?$AAs?$AAa?$AAg?$AAe?$AA?0?$AA?5?$AA4?$AA0?$AA9?$AA6?$AA?0?$AA?5?$AA?$CC?$AA?2@ 10068d20     LIBCMTD:dbgrptt.obj
 0002:0000bd68       ??_C@_01LIIJDEN@?$AN?$AA@  10068d68     LIBCMTD:dbgrptt.obj
 0002:0000bd70       ??_C@_1EI@CACDLAFK@?$AAs?$AAt?$AAr?$AAc?$AAa?$AAt?$AA_?$AAs?$AA?$CI?$AAs?$AAz?$AAL?$AAi?$AAn?$AAe?$AAM?$AAe?$AAs?$AAs?$AAa?$AAg?$AAe?$AA?0?$AA?5?$AA4?$AA0?$AA9?$AA6?$AA?0?$AA?5?$AA?$CC?$AA?2@ 10068d70     LIBCMTD:dbgrptt.obj
 0002:0000bdb8       ??_C@_1FK@NPGBPOFO@?$AAs?$AAt?$AAr?$AAc?$AAa?$AAt?$AA_?$AAs?$AA?$CI?$AAs?$AAz?$AAL?$AAi?$AAn?$AAe?$AAM?$AAe?$AAs?$AAs?$AAa?$AAg?$AAe?$AA?0?$AA?5?$AA4?$AA0?$AA9?$AA6?$AA?0?$AA?5?$AAs?$AAz@ 10068db8     LIBCMTD:dbgrptt.obj
 0002:0000be18       ??_C@_1KK@GIGAEDMO@?$AAs?$AAt?$AAr?$AAc?$AAp?$AAy?$AA_?$AAs?$AA?$CI?$AAs?$AAz?$AAL?$AAi?$AAn?$AAe?$AAM?$AAe?$AAs?$AAs?$AAa?$AAg?$AAe?$AA?0?$AA?5?$AA4?$AA0?$AA9?$AA6?$AA?0?$AA?5?$AAs?$AAz@ 10068e18     LIBCMTD:dbgrptt.obj
 0002:0000bec4       ??_C@_0BC@LAIDCHCH@Assertion?5failed?$CB?$AA@ 10068ec4     LIBCMTD:dbgrptt.obj
 0002:0000bed8       ??_C@_0BD@CAENFOHP@Assertion?5failed?3?5?$AA@ 10068ed8     LIBCMTD:dbgrptt.obj
 0002:0000bef0       ??_C@_1JI@GAALPGBM@?$AAs?$AAt?$AAr?$AAc?$AAp?$AAy?$AA_?$AAs?$AA?$CI?$AAs?$AAz?$AAU?$AAs?$AAe?$AAr?$AAM?$AAe?$AAs?$AAs?$AAa?$AAg?$AAe?$AA?0?$AA?5?$AA4?$AA0?$AA9?$AA6?$AA?0?$AA?5?$AA?$CC?$AA_@ 10068ef0     LIBCMTD:dbgrptt.obj
 0002:0000bf88       ??_C@_07BHGABMGB@?0?5Line?5?$AA@ 10068f88     LIBCMTD:dbgrptt.obj
 0002:0000bf90       ??_C@_0P@DFJNDPOP@?$DMfile?5unknown?$DO?$AA@ 10068f90     LIBCMTD:dbgrptt.obj
 0002:0000bfa0       ??_C@_0CG@BNGLOCEO@Second?5Chance?5Assertion?5Failed?3?5@ 10068fa0     LIBCMTD:dbgrptt.obj
 0002:0000bfc8       ??_C@_1FA@JPHJBHEM@?$AA_?$AAi?$AAt?$AAo?$AAa?$AA_?$AAs?$AA?$CI?$AAn?$AAL?$AAi?$AAn?$AAe?$AA?0?$AA?5?$AAs?$AAz?$AAL?$AAi?$AAn?$AAe?$AAM?$AAe?$AAs?$AAs?$AAa?$AAg?$AAe?$AA?0?$AA?5?$AA4?$AA0@ 10068fc8     LIBCMTD:dbgrptt.obj
 0002:0000c018       ??_C@_1CA@KHJHLKA@?$AA_?$AAV?$AAC?$AAr?$AAt?$AAD?$AAb?$AAg?$AAR?$AAe?$AAp?$AAo?$AAr?$AAt?$AAA?$AA?$AA@ 10069018     LIBCMTD:dbgrptt.obj
 0002:0000c038       ??_C@_1IE@CPGKIAGP@?$AAw?$AAc?$AAs?$AAt?$AAo?$AAm?$AAb?$AAs?$AA_?$AAs?$AA?$CI?$AA?$CG?$AAr?$AAe?$AAt?$AA?0?$AA?5?$AAs?$AAz?$AAa?$AAO?$AAu?$AAt?$AAM?$AAe?$AAs?$AAs?$AAa?$AAg?$AAe?$AA?0?$AA?5@ 10069038     LIBCMTD:dbgrptt.obj
 0002:0000c0c0       ??_C@_1MA@LBAMNNOB@?$AAs?$AAt?$AAr?$AAc?$AAp?$AAy?$AA_?$AAs?$AA?$CI?$AAs?$AAz?$AAO?$AAu?$AAt?$AAM?$AAe?$AAs?$AAs?$AAa?$AAg?$AAe?$AA2?$AA?0?$AA?5?$AA4?$AA0?$AA9?$AA6?$AA?0?$AA?5?$AA?$CC?$AA_@ 100690c0     LIBCMTD:dbgrptt.obj
 0002:0000c180       ??_C@_1JC@EOAPFDLN@?$AAw?$AAc?$AAs?$AAt?$AAo?$AAm?$AAb?$AAs?$AA_?$AAs?$AA?$CI?$AA?$CI?$AA?$CI?$AAv?$AAo?$AAi?$AAd?$AA?5?$AA?$CK?$AA?$CJ?$AA0?$AA?$CJ?$AA?0?$AA?5?$AAs?$AAz?$AAO?$AAu?$AAt?$AAM?$AAe?$AAs@ 10069180     LIBCMTD:dbgrptt.obj
 0002:0000c218       ??_C@_1FI@DBAIJPJE@?$AAw?$AAc?$AAs?$AAc?$AAp?$AAy?$AA_?$AAs?$AA?$CI?$AAs?$AAz?$AAO?$AAu?$AAt?$AAM?$AAe?$AAs?$AAs?$AAa?$AAg?$AAe?$AA?0?$AA?5?$AA4?$AA0?$AA9?$AA6?$AA?0?$AA?5?$AAs?$AAz?$AAL@ 10069218     LIBCMTD:dbgrptt.obj
 0002:0000c270       ??_C@_1BI@JIDBEPIG@?$AA?$CF?$AAs?$AA?$CI?$AA?$CF?$AAd?$AA?$CJ?$AA?5?$AA?3?$AA?5?$AA?$CF?$AAs?$AA?$AA@ 10069270     LIBCMTD:dbgrptt.obj
 0002:0000c288       ??_C@_1EK@PHCBEDKB@?$AAw?$AAc?$AAs?$AAc?$AAa?$AAt?$AA_?$AAs?$AA?$CI?$AAs?$AAz?$AAL?$AAi?$AAn?$AAe?$AAM?$AAe?$AAs?$AAs?$AAa?$AAg?$AAe?$AA?0?$AA?5?$AA4?$AA0?$AA9?$AA6?$AA?0?$AA?5?$AAL?$AA?$CC@ 10069288     LIBCMTD:dbgrptt.obj
 0002:0000c2d4       ??_C@_13CMNBPIDO@?$AA?$AN?$AA?$AA@ 100692d4     LIBCMTD:dbgrptt.obj
 0002:0000c2d8       ??_C@_1EK@NMDFGHMF@?$AAw?$AAc?$AAs?$AAc?$AAa?$AAt?$AA_?$AAs?$AA?$CI?$AAs?$AAz?$AAL?$AAi?$AAn?$AAe?$AAM?$AAe?$AAs?$AAs?$AAa?$AAg?$AAe?$AA?0?$AA?5?$AA4?$AA0?$AA9?$AA6?$AA?0?$AA?5?$AAL?$AA?$CC@ 100692d8     LIBCMTD:dbgrptt.obj
 0002:0000c328       ??_C@_1FK@HPADHBBD@?$AAw?$AAc?$AAs?$AAc?$AAa?$AAt?$AA_?$AAs?$AA?$CI?$AAs?$AAz?$AAL?$AAi?$AAn?$AAe?$AAM?$AAe?$AAs?$AAs?$AAa?$AAg?$AAe?$AA?0?$AA?5?$AA4?$AA0?$AA9?$AA6?$AA?0?$AA?5?$AAs?$AAz@ 10069328     LIBCMTD:dbgrptt.obj
 0002:0000c388       ??_C@_1KO@DGAHENCH@?$AAw?$AAc?$AAs?$AAc?$AAp?$AAy?$AA_?$AAs?$AA?$CI?$AAs?$AAz?$AAL?$AAi?$AAn?$AAe?$AAM?$AAe?$AAs?$AAs?$AAa?$AAg?$AAe?$AA?0?$AA?5?$AA4?$AA0?$AA9?$AA6?$AA?0?$AA?5?$AAs?$AAz@ 10069388     LIBCMTD:dbgrptt.obj
 0002:0000c438       ??_C@_1CE@OJBNHDMO@?$AAA?$AAs?$AAs?$AAe?$AAr?$AAt?$AAi?$AAo?$AAn?$AA?5?$AAf?$AAa?$AAi?$AAl?$AAe?$AAd?$AA?$CB?$AA?$AA@ 10069438     LIBCMTD:dbgrptt.obj
 0002:0000c45c       ??_C@_1CG@FFFGGODN@?$AAA?$AAs?$AAs?$AAe?$AAr?$AAt?$AAi?$AAo?$AAn?$AA?5?$AAf?$AAa?$AAi?$AAl?$AAe?$AAd?$AA?3?$AA?5?$AA?$AA@ 1006945c     LIBCMTD:dbgrptt.obj
 0002:0000c488       ??_C@_1JK@KHFABAEO@?$AAw?$AAc?$AAs?$AAc?$AAp?$AAy?$AA_?$AAs?$AA?$CI?$AAs?$AAz?$AAU?$AAs?$AAe?$AAr?$AAM?$AAe?$AAs?$AAs?$AAa?$AAg?$AAe?$AA?0?$AA?5?$AA4?$AA0?$AA9?$AA6?$AA?0?$AA?5?$AAL?$AA?$CC@ 10069488     LIBCMTD:dbgrptt.obj
 0002:0000c524       ??_C@_13LBAGMAIH@?$AA?6?$AA?$AA@ 10069524     LIBCMTD:dbgrptt.obj
 0002:0000c528       ??_C@_1BA@ELMMDCFC@?$AA?0?$AA?5?$AAL?$AAi?$AAn?$AAe?$AA?5?$AA?$AA@ 10069528     LIBCMTD:dbgrptt.obj
 0002:0000c538       ??_C@_1BO@OCHMLCAG@?$AA?$DM?$AAf?$AAi?$AAl?$AAe?$AA?5?$AAu?$AAn?$AAk?$AAn?$AAo?$AAw?$AAn?$AA?$DO?$AA?$AA@ 10069538     LIBCMTD:dbgrptt.obj
 0002:0000c558       ??_C@_1EM@MJFLEDMB@?$AAS?$AAe?$AAc?$AAo?$AAn?$AAd?$AA?5?$AAC?$AAh?$AAa?$AAn?$AAc?$AAe?$AA?5?$AAA?$AAs?$AAs?$AAe?$AAr?$AAt?$AAi?$AAo?$AAn?$AA?5?$AAF?$AAa?$AAi?$AAl?$AAe?$AAd?$AA?3?$AA?5@ 10069558     LIBCMTD:dbgrptt.obj
 0002:0000c5a8       ??_C@_1FA@CNLLOMHI@?$AA_?$AAi?$AAt?$AAo?$AAw?$AA_?$AAs?$AA?$CI?$AAn?$AAL?$AAi?$AAn?$AAe?$AA?0?$AA?5?$AAs?$AAz?$AAL?$AAi?$AAn?$AAe?$AAM?$AAe?$AAs?$AAs?$AAa?$AAg?$AAe?$AA?0?$AA?5?$AA4?$AA0@ 100695a8     LIBCMTD:dbgrptt.obj
 0002:0000c5f8       ??_C@_1CA@HPALHDOD@?$AA_?$AAV?$AAC?$AAr?$AAt?$AAD?$AAb?$AAg?$AAR?$AAe?$AAp?$AAo?$AAr?$AAt?$AAW?$AA?$AA@ 100695f8     LIBCMTD:dbgrptt.obj
 0002:0000c618       ??_C@_1BK@CMPKHPEC@?$AAn?$AA?5?$AA?$DM?$AA?$DN?$AA?5?$AAI?$AAN?$AAT?$AA_?$AAM?$AAA?$AAX?$AA?$AA@ 10069618     LIBCMTD:wcstombs.obj
 0002:0000c634       ??_C@_1CG@LLJCAOHF@?$AA_?$AAw?$AAc?$AAs?$AAt?$AAo?$AAm?$AAb?$AAs?$AA_?$AAl?$AA_?$AAh?$AAe?$AAl?$AAp?$AAe?$AAr?$AA?$AA@ 10069634     LIBCMTD:wcstombs.obj
 0002:0000c65c       ??_C@_1BG@POHBKINF@?$AAw?$AAc?$AAs?$AAt?$AAo?$AAm?$AAb?$AAs?$AA?4?$AAc?$AA?$AA@ 1006965c     LIBCMTD:wcstombs.obj
 0002:0000c674       ??_C@_1BK@OIBENBPM@?$AAp?$AAw?$AAc?$AAs?$AA?5?$AA?$CB?$AA?$DN?$AA?5?$AAN?$AAU?$AAL?$AAL?$AA?$AA@ 10069674     LIBCMTD:wcstombs.obj
 0002:0000c690       ??_C@_1CM@KEOGBFLI@?$AAs?$AAi?$AAz?$AAe?$AAI?$AAn?$AAB?$AAy?$AAt?$AAe?$AAs?$AA?5?$AA?$DO?$AA?5?$AAr?$AAe?$AAt?$AAs?$AAi?$AAz?$AAe?$AA?$AA@ 10069690     LIBCMTD:wcstombs.obj
 0002:0000c6bc       ??_C@_1BM@BDMCLLDL@?$AA_?$AAw?$AAc?$AAs?$AAt?$AAo?$AAm?$AAb?$AAs?$AA_?$AAs?$AA_?$AAl?$AA?$AA@ 100696bc     LIBCMTD:wcstombs.obj
 0002:0000c6d8       ??_C@_1IM@MFGKHGBP@?$AA?$CI?$AAd?$AAs?$AAt?$AA?5?$AA?$CB?$AA?$DN?$AA?5?$AAN?$AAU?$AAL?$AAL?$AA?5?$AA?$CG?$AA?$CG?$AA?5?$AAs?$AAi?$AAz?$AAe?$AAI?$AAn?$AAB?$AAy?$AAt?$AAe?$AAs?$AA?5?$AA?$DO?$AA?5?$AA0?$AA?$CJ@ 100696d8     LIBCMTD:wcstombs.obj
 0002:0000c764       ??_C@_0P@MIGLKIOC@CorExitProcess?$AA@ 10069764     LIBCMTD:crt0dat.obj
 0002:0000c774       ??_C@_0M@MBOPBNBK@mscoree?4dll?$AA@ 10069774     LIBCMTD:crt0dat.obj
 0002:0000c780       ??_C@_1BO@PCPNBEJP@?$AA_?$AAo?$AAs?$AAp?$AAl?$AAa?$AAt?$AAf?$AAo?$AAr?$AAm?$AA?$CB?$AA?$DN?$AA0?$AA?$AA@ 10069780     LIBCMTD:crt0dat.obj
 0002:0000c7a0       ??_C@_1CA@HBJLODAG@?$AA_?$AAg?$AAe?$AAt?$AA_?$AAo?$AAs?$AAp?$AAl?$AAa?$AAt?$AAf?$AAo?$AAr?$AAm?$AA?$AA@ 100697a0     LIBCMTD:crt0dat.obj
 0002:0000c7c0       ??_C@_1BE@DFOEAGLM@?$AAc?$AAr?$AAt?$AA0?$AAd?$AAa?$AAt?$AA?4?$AAc?$AA?$AA@ 100697c0     LIBCMTD:crt0dat.obj
 0002:0000c7d4       ??_C@_1BG@OLMEODBO@?$AA_?$AAg?$AAe?$AAt?$AA_?$AAo?$AAs?$AAv?$AAe?$AAr?$AA?$AA@ 100697d4     LIBCMTD:crt0dat.obj
 0002:0000c7ec       ??_C@_1BI@EHCOONPO@?$AA_?$AAg?$AAe?$AAt?$AA_?$AAw?$AAi?$AAn?$AAv?$AAe?$AAr?$AA?$AA@ 100697ec     LIBCMTD:crt0dat.obj
 0002:0000c804       ??_C@_1BM@MHJHOJPG@?$AA_?$AAg?$AAe?$AAt?$AA_?$AAw?$AAi?$AAn?$AAm?$AAa?$AAj?$AAo?$AAr?$AA?$AA@ 10069804     LIBCMTD:crt0dat.obj
 0002:0000c820       ??_C@_1BM@FAAKKHPI@?$AA_?$AAg?$AAe?$AAt?$AA_?$AAw?$AAi?$AAn?$AAm?$AAi?$AAn?$AAo?$AAr?$AA?$AA@ 10069820     LIBCMTD:crt0dat.obj
 0002:0000c83c       ??_C@_1CC@CDIPMFPD@?$AA_?$AAw?$AAp?$AAg?$AAm?$AAp?$AAt?$AAr?$AA?5?$AA?$CB?$AA?$DN?$AA?5?$AAN?$AAU?$AAL?$AAL?$AA?$AA@ 1006983c     LIBCMTD:crt0dat.obj
 0002:0000c860       ??_C@_1BK@PNLDCCDP@?$AA_?$AAg?$AAe?$AAt?$AA_?$AAw?$AAp?$AAg?$AAm?$AAp?$AAt?$AAr?$AA?$AA@ 10069860     LIBCMTD:crt0dat.obj
 0002:0000c87c       ??_C@_1CA@BBNAFCKO@?$AA_?$AAp?$AAg?$AAm?$AAp?$AAt?$AAr?$AA?5?$AA?$CB?$AA?$DN?$AA?5?$AAN?$AAU?$AAL?$AAL?$AA?$AA@ 1006987c     LIBCMTD:crt0dat.obj
 0002:0000c89c       ??_C@_1BI@COAAPHJK@?$AA_?$AAg?$AAe?$AAt?$AA_?$AAp?$AAg?$AAm?$AAp?$AAt?$AAr?$AA?$AA@ 1006989c     LIBCMTD:crt0dat.obj
 0002:0000c8b4       ??_C@_1O@EJLDHPPL@?$AAs?$AAi?$AAg?$AAn?$AAa?$AAl?$AA?$AA@ 100698b4     LIBCMTD:winsig.obj
 0002:0000c8c4       ??_C@_1BC@KDODBONJ@?$AAw?$AAi?$AAn?$AAs?$AAi?$AAg?$AA?4?$AAc?$AA?$AA@ 100698c4     LIBCMTD:winsig.obj
 0002:0000c8d8       ??_C@_1DO@MLNEDKGB@?$AA?$CI?$AA?$CC?$AAI?$AAn?$AAv?$AAa?$AAl?$AAi?$AAd?$AA?5?$AAs?$AAi?$AAg?$AAn?$AAa?$AAl?$AA?5?$AAo?$AAr?$AA?5?$AAe?$AAr?$AAr?$AAo?$AAr?$AA?$CC?$AA?0?$AA?5?$AA0?$AA?$CJ?$AA?$AA@ 100698d8     LIBCMTD:winsig.obj
 0002:0000c918       ??_C@_08FKHPDPAC@winsig?4c?$AA@ 10069918     LIBCMTD:winsig.obj
 0002:0000c924       ??_C@_1M@DMJEIKHL@?$AAr?$AAa?$AAi?$AAs?$AAe?$AA?$AA@ 10069924     LIBCMTD:winsig.obj
 0002:0000c930       ??_C@_1DC@OIOKIELJ@?$AA_?$AAg?$AAe?$AAt?$AA_?$AAw?$AAi?$AAn?$AAm?$AAa?$AAj?$AAo?$AAr?$AA?$CI?$AA?$CG?$AAw?$AAi?$AAn?$AAm?$AAa?$AAj?$AAo?$AAr?$AA?$CJ?$AA?$AA@ 10069930     LIBCMTD:crtmboxw.obj
 0002:0000c964       ??_C@_0BI@DFKBFLJE@GetProcessWindowStation?$AA@ 10069964     LIBCMTD:crtmboxw.obj
 0002:0000c97c       ??_C@_0BK@DEKFELLI@GetUserObjectInformationW?$AA@ 1006997c     LIBCMTD:crtmboxw.obj
 0002:0000c998       ??_C@_1CC@LBPMICNL@?$AA_?$AA_?$AAc?$AAr?$AAt?$AAM?$AAe?$AAs?$AAs?$AAa?$AAg?$AAe?$AAB?$AAo?$AAx?$AAW?$AA?$AA@ 10069998     LIBCMTD:crtmboxw.obj
 0002:0000c9c0       ??_C@_1GE@FEBHHKOE@?$AAf?$AA?3?$AA?2?$AAr?$AAt?$AAm?$AA?2?$AAv?$AAc?$AAt?$AAo?$AAo?$AAl?$AAs?$AA?2?$AAc?$AAr?$AAt?$AA_?$AAb?$AAl?$AAd?$AA?2?$AAs?$AAe?$AAl?$AAf?$AA_?$AAx?$AA8?$AA6?$AA?2@ 100699c0     LIBCMTD:crtmboxw.obj
 0002:0000ca24       ??_C@_0BD@HHGDFDBJ@GetLastActivePopup?$AA@ 10069a24     LIBCMTD:crtmboxw.obj
 0002:0000ca38       ??_C@_0BA@HNOPNCHB@GetActiveWindow?$AA@ 10069a38     LIBCMTD:crtmboxw.obj
 0002:0000ca48       ??_C@_0M@DLDCCGNP@MessageBoxW?$AA@ 10069a48     LIBCMTD:crtmboxw.obj
 0002:0000ca54       ??_C@_1BG@GOEBHBDC@?$AAU?$AAS?$AAE?$AAR?$AA3?$AA2?$AA?4?$AAD?$AAL?$AAL?$AA?$AA@ 10069a54     LIBCMTD:crtmboxw.obj
 0002:0000ca6c       __pDestructExceptionObject 10069a6c     LIBCMTD:frame.obj
 0002:0000ca70       ??_C@_0O@DPKOEFFH@bad?5exception?$AA@ 10069a70     LIBCMTD:frame.obj
 0002:0000ca84       ??_7bad_exception@std@@6B@ 10069a84     LIBCMTD:frame.obj
 0002:0000ca8c       ??_C@_0O@NLDKAIKN@EncodePointer?$AA@ 10069a8c     LIBCMTD:tidtable.obj
 0002:0000ca9c       ??_C@_0N@NHGLKGEC@KERNEL32?4DLL?$AA@ 10069a9c     LIBCMTD:tidtable.obj
 0002:0000caac       ??_C@_0O@KBPMFGHI@DecodePointer?$AA@ 10069aac     LIBCMTD:tidtable.obj
 0002:0000cabc       ??_C@_0L@JKCACIOJ@tidtable?4c?$AA@ 10069abc     LIBCMTD:tidtable.obj
 0002:0000cac8       ??_C@_07PEJMOBNF@FlsFree?$AA@ 10069ac8     LIBCMTD:tidtable.obj
 0002:0000cad0       ??_C@_0M@JCPCPOEF@FlsSetValue?$AA@ 10069ad0     LIBCMTD:tidtable.obj
 0002:0000cadc       ??_C@_0M@GDNOONDI@FlsGetValue?$AA@ 10069adc     LIBCMTD:tidtable.obj
 0002:0000cae8       ??_C@_08KNHFBNJ@FlsAlloc?$AA@ 10069ae8     LIBCMTD:tidtable.obj
 0002:0000cafc       ??_C@_1BI@JFCCCJAM@?$AAt?$AAy?$AAp?$AAn?$AAa?$AAm?$AAe?$AA?4?$AAc?$AAp?$AAp?$AA?$AA@ 10069afc     LIBCMTD:typname.obj
 0002:0000cb14       ??_C@_1CI@IDCGDBOP@?$AAp?$AAN?$AAo?$AAd?$AAe?$AA?9?$AA?$DO?$AAn?$AAe?$AAx?$AAt?$AA?5?$AA?$CB?$AA?$DN?$AA?5?$AAN?$AAU?$AAL?$AAL?$AA?$AA@ 10069b14     LIBCMTD:typname.obj
 0002:0000cb40       ??_C@_1JK@MLBKHELP@?$AAs?$AAt?$AAr?$AAc?$AAp?$AAy?$AA_?$AAs?$AA?5?$AA?$CI?$AA?$CI?$AAc?$AAh?$AAa?$AAr?$AA?5?$AA?$CK?$AA?$CJ?$AA?$CI?$AA?$CI?$AAt?$AAy?$AAp?$AAe?$AA_?$AAi?$AAn?$AAf?$AAo?$AA?5?$AA?$CK?$AA?$CJ@ 10069b40     LIBCMTD:typname.obj
 0002:0000cbdc       ??_C@_1CM@OOICDMK@?$AAt?$AAy?$AAp?$AAe?$AA_?$AAi?$AAn?$AAf?$AAo?$AA?3?$AA?3?$AA_?$AAN?$AAa?$AAm?$AAe?$AA_?$AAb?$AAa?$AAs?$AAe?$AA?$AA@ 10069bdc     LIBCMTD:typname.obj
 0002:0000cc08       ??_C@_1DO@OJJLFJPE@?$AAt?$AAy?$AAp?$AAe?$AA_?$AAi?$AAn?$AAf?$AAo?$AA?3?$AA?3?$AA_?$AAN?$AAa?$AAm?$AAe?$AA_?$AAb?$AAa?$AAs?$AAe?$AA_?$AAi?$AAn?$AAt?$AAe?$AAr?$AAn?$AAa?$AAl?$AA?$AA@ 10069c08     LIBCMTD:typname.obj
 0002:0000cc48       ??_C@_0P@GGKDKEEG@runtime?5error?5?$AA@ 10069c48     LIBCMTD:crt0msg.obj
 0002:0000cc58       ??_C@_02PCIJFNDE@?$AN?6?$AA@ 10069c58     LIBCMTD:crt0msg.obj
 0002:0000cc5c       ??_C@_0O@MJNIPGOH@TLOSS?5error?$AN?6?$AA@ 10069c5c     LIBCMTD:crt0msg.obj
 0002:0000cc6c       ??_C@_0N@BONNPDHF@SING?5error?$AN?6?$AA@ 10069c6c     LIBCMTD:crt0msg.obj
 0002:0000cc7c       ??_C@_0P@MBDAJNE@DOMAIN?5error?$AN?6?$AA@ 10069c7c     LIBCMTD:crt0msg.obj
 0002:0000cc90       ??_C@_0BFB@HKKMCDOL@R6034?$AN?6An?5application?5has?5made?5a@ 10069c90     LIBCMTD:crt0msg.obj
 0002:0000cde8       ??_C@_0PH@EPAFIJ@R6033?$AN?6?9?5Attempt?5to?5use?5MSIL?5cod@ 10069de8     LIBCMTD:crt0msg.obj
 0002:0000cee0       ??_C@_0DD@BKEEABMM@R6032?$AN?6?9?5not?5enough?5space?5for?5lo@ 10069ee0     LIBCMTD:crt0msg.obj
 0002:0000cf18       ??_C@_0GD@OFKILIED@R6031?$AN?6?9?5Attempt?5to?5initialize?5t@ 10069f18     LIBCMTD:crt0msg.obj
 0002:0000cf7c       ??_C@_0BP@LPMHJOKI@R6030?$AN?6?9?5CRT?5not?5initialized?$AN?6?$AA@ 10069f7c     LIBCMTD:crt0msg.obj
 0002:0000cf9c       ??_C@_0CF@KJDAIALP@R6028?$AN?6?9?5unable?5to?5initialize?5he@ 10069f9c     LIBCMTD:crt0msg.obj
 0002:0000cfc4       ??_C@_0DF@GAKBPDFP@R6027?$AN?6?9?5not?5enough?5space?5for?5lo@ 10069fc4     LIBCMTD:crt0msg.obj
 0002:0000cffc       ??_C@_0DF@IBLNNAIG@R6026?$AN?6?9?5not?5enough?5space?5for?5st@ 10069ffc     LIBCMTD:crt0msg.obj
 0002:0000d034       ??_C@_0CG@IOHKGFNJ@R6025?$AN?6?9?5pure?5virtual?5function?5c@ 1006a034     LIBCMTD:crt0msg.obj
 0002:0000d05c       ??_C@_0DF@JIJJFJDC@R6024?$AN?6?9?5not?5enough?5space?5for?5_o@ 1006a05c     LIBCMTD:crt0msg.obj
 0002:0000d094       ??_C@_0CJ@EGEJHFME@R6019?$AN?6?9?5unable?5to?5open?5console?5@ 1006a094     LIBCMTD:crt0msg.obj
 0002:0000d0c0       ??_C@_0CB@GNHNIELH@R6018?$AN?6?9?5unexpected?5heap?5error?$AN?6@ 1006a0c0     LIBCMTD:crt0msg.obj
 0002:0000d0e4       ??_C@_0CN@FOLDKNG@R6017?$AN?6?9?5unexpected?5multithread?5@ 1006a0e4     LIBCMTD:crt0msg.obj
 0002:0000d114       ??_C@_0CM@FAHFJNHO@R6016?$AN?6?9?5not?5enough?5space?5for?5th@ 1006a114     LIBCMTD:crt0msg.obj
 0002:0000d140       ??_C@_0JG@LBKMGKLD@?$AN?6This?5application?5has?5requested@ 1006a140     LIBCMTD:crt0msg.obj
 0002:0000d1d8       ??_C@_0CM@FLCNIPKK@R6009?$AN?6?9?5not?5enough?5space?5for?5en@ 1006a1d8     LIBCMTD:crt0msg.obj
 0002:0000d204       ??_C@_0CK@KMMJOAPP@R6008?$AN?6?9?5not?5enough?5space?5for?5ar@ 1006a204     LIBCMTD:crt0msg.obj
 0002:0000d230       ??_C@_0CF@HOHMHDEK@R6002?$AN?6?9?5floating?5point?5not?5load@ 1006a230     LIBCMTD:crt0msg.obj
 0002:0000d258       ??_C@_0CF@GOGNBNAK@Microsoft?5Visual?5C?$CL?$CL?5Runtime?5Lib@ 1006a258     LIBCMTD:crt0msg.obj
 0002:0000d280       ??_C@_1KC@JBIKIPNF@?$AAs?$AAt?$AAr?$AAc?$AAa?$AAt?$AA_?$AAs?$AA?$CI?$AAo?$AAu?$AAt?$AAm?$AAs?$AAg?$AA?0?$AA?5?$AA?$CI?$AAs?$AAi?$AAz?$AAe?$AAo?$AAf?$AA?$CI?$AAo?$AAu?$AAt?$AAm?$AAs?$AAg?$AA?$CJ@ 1006a280     LIBCMTD:crt0msg.obj
 0002:0000d328       ??_C@_1HO@POLIDBMF@?$AAs?$AAt?$AAr?$AAc?$AAa?$AAt?$AA_?$AAs?$AA?$CI?$AAo?$AAu?$AAt?$AAm?$AAs?$AAg?$AA?0?$AA?5?$AA?$CI?$AAs?$AAi?$AAz?$AAe?$AAo?$AAf?$AA?$CI?$AAo?$AAu?$AAt?$AAm?$AAs?$AAg?$AA?$CJ@ 1006a328     LIBCMTD:crt0msg.obj
 0002:0000d3a8       ??_C@_1HG@CJJGKFHK@?$AAs?$AAt?$AAr?$AAn?$AAc?$AAp?$AAy?$AA_?$AAs?$AA?$CI?$AAp?$AAc?$AAh?$AA?0?$AA?5?$AAp?$AAr?$AAo?$AAg?$AAn?$AAa?$AAm?$AAe?$AA_?$AAs?$AAi?$AAz?$AAe?$AA?5?$AA?9?$AA?5?$AA?$CI@ 1006a3a8     LIBCMTD:crt0msg.obj
 0002:0000d420       ??_C@_1HI@FOOPEDMH@?$AAs?$AAt?$AAr?$AAc?$AAp?$AAy?$AA_?$AAs?$AA?$CI?$AAp?$AAr?$AAo?$AAg?$AAn?$AAa?$AAm?$AAe?$AA?0?$AA?5?$AAp?$AAr?$AAo?$AAg?$AAn?$AAa?$AAm?$AAe?$AA_?$AAs?$AAi?$AAz?$AAe@ 1006a420     LIBCMTD:crt0msg.obj
 0002:0000d498       ??_C@_0BK@OFGJDLJJ@Runtime?5Error?$CB?6?6Program?3?5?$AA@ 1006a498     LIBCMTD:crt0msg.obj
 0002:0000d4b8       ??_C@_1KM@NKKPELHG@?$AAs?$AAt?$AAr?$AAc?$AAp?$AAy?$AA_?$AAs?$AA?$CI?$AAo?$AAu?$AAt?$AAm?$AAs?$AAg?$AA?0?$AA?5?$AA?$CI?$AAs?$AAi?$AAz?$AAe?$AAo?$AAf?$AA?$CI?$AAo?$AAu?$AAt?$AAm?$AAs?$AAg?$AA?$CJ@ 1006a4b8     LIBCMTD:crt0msg.obj
 0002:0000d564       ??_C@_1BI@EAHMBMEC@?$AA_?$AAN?$AAM?$AAS?$AAG?$AA_?$AAW?$AAR?$AAI?$AAT?$AAE?$AA?$AA@ 1006a564     LIBCMTD:crt0msg.obj
 0002:0000d57c       ??_C@_1BE@HJCCFLDA@?$AAc?$AAr?$AAt?$AA0?$AAm?$AAs?$AAg?$AA?4?$AAc?$AA?$AA@ 1006a57c     LIBCMTD:crt0msg.obj
 0002:0000d590       ??_C@_1GO@NGIGJNHH@?$AAs?$AAt?$AAr?$AAn?$AAc?$AAp?$AAy?$AA_?$AAs?$AA?$CI?$AA?$CK?$AAs?$AAt?$AAr?$AAa?$AAd?$AAd?$AAr?$AAe?$AAs?$AAs?$AA?0?$AA?5?$AAo?$AAu?$AAt?$AAs?$AAi?$AAz?$AAe?$AA?0?$AA?5@ 1006a590     LIBCMTD:inithelp.obj
 0002:0000d600       ??_C@_1CA@KHHCPEI@?$AA_?$AA_?$AAg?$AAe?$AAt?$AAl?$AAo?$AAc?$AAa?$AAl?$AAe?$AAi?$AAn?$AAf?$AAo?$AA?$AA@ 1006a600     LIBCMTD:inithelp.obj
 0002:0000d620       ??_C@_1BG@OFMEOKEA@?$AAi?$AAn?$AAi?$AAt?$AAh?$AAe?$AAl?$AAp?$AA?4?$AAc?$AA?$AA@ 1006a620     LIBCMTD:inithelp.obj
 0002:0000d638       ??_C@_0L@DILIPMN@inithelp?4c?$AA@ 1006a638     LIBCMTD:inithelp.obj
 0002:0000d644       ??_C@_1BM@HBMHMBEM@?$AA_?$AAm?$AAb?$AAs?$AAn?$AAb?$AAc?$AAp?$AAy?$AA_?$AAs?$AA_?$AAl?$AA?$AA@ 1006a644     LIBCMTD:mbsnbcpy_s_l.obj
 0002:0000d660       ??_C@_1GM@DGPOPJNC@?$AAF?$AA?3?$AA?2?$AAR?$AAT?$AAM?$AA?2?$AAv?$AAc?$AAt?$AAo?$AAo?$AAl?$AAs?$AA?2?$AAc?$AAr?$AAt?$AA_?$AAb?$AAl?$AAd?$AA?2?$AAS?$AAE?$AAL?$AAF?$AA_?$AAX?$AA8?$AA6?$AA?2@ 1006a660     LIBCMTD:mbsnbcpy_s_l.obj
 0002:0000d6cc       ??_C@_1BK@JMCGJOCC@?$AA_?$AAe?$AAx?$AAp?$AAa?$AAn?$AAd?$AA_?$AAb?$AAa?$AAs?$AAe?$AA?$AA@ 1006a6cc     LIBCMTD:expand.obj
 0002:0000d6e8       ??_C@_1BC@OBICIAFI@?$AAe?$AAx?$AAp?$AAa?$AAn?$AAd?$AA?4?$AAc?$AA?$AA@ 1006a6e8     LIBCMTD:expand.obj
 0002:0000d6fc       ??_C@_1BO@KFIJIAEA@?$AAp?$AAB?$AAl?$AAo?$AAc?$AAk?$AA?5?$AA?$CB?$AA?$DN?$AA?5?$AAN?$AAU?$AAL?$AAL?$AA?$AA@ 1006a6fc     LIBCMTD:expand.obj
 0002:0000d71c       ??_C@_1BO@EMPIBJGC@?$AA_?$AAr?$AAe?$AAc?$AAa?$AAl?$AAl?$AAo?$AAc?$AA_?$AAb?$AAa?$AAs?$AAe?$AA?$AA@ 1006a71c     LIBCMTD:realloc.obj
 0002:0000d73c       ??_C@_1BE@IAPDAHOE@?$AAr?$AAe?$AAa?$AAl?$AAl?$AAo?$AAc?$AA?4?$AAc?$AA?$AA@ 1006a73c     LIBCMTD:realloc.obj
 0002:0000d750       ??_C@_1BM@DKJOGMJM@?$AA_?$AA_?$AAh?$AAe?$AAa?$AAp?$AA_?$AAs?$AAe?$AAl?$AAe?$AAc?$AAt?$AA?$AA@ 1006a750     LIBCMTD:heapinit.obj
 0002:0000d76c       ??_C@_1BG@INAAHHLF@?$AAh?$AAe?$AAa?$AAp?$AAi?$AAn?$AAi?$AAt?$AA?4?$AAc?$AA?$AA@ 1006a76c     LIBCMTD:heapinit.obj
 0002:0000d784       ??_C@_1BC@DENNNKIM@?$AA_?$AAc?$AAr?$AAt?$AAh?$AAe?$AAa?$AAp?$AA?$AA@ 1006a784     LIBCMTD:heapinit.obj
 0002:0000d798       ??_C@_1BC@IMNOJJAO@?$AAs?$AAb?$AAh?$AAe?$AAa?$AAp?$AA?4?$AAc?$AA?$AA@ 1006a798     LIBCMTD:sbheap.obj
 0002:0000d7b0       ??_C@_1IC@MOGBEBCE@?$AA?$CI?$AAt?$AAh?$AAr?$AAe?$AAs?$AAh?$AAo?$AAl?$AAd?$AA?5?$AA?$DM?$AA?$DN?$AA?5?$AAM?$AAA?$AAX?$AA_?$AAA?$AAL?$AAL?$AAO?$AAC?$AA_?$AAD?$AAA?$AAT?$AAA?$AA_?$AAS?$AAI?$AAZ@ 1006a7b0     LIBCMTD:sbheap.obj
 0002:0000d834       ??_C@_1CG@BBFCGKBK@?$AA_?$AAs?$AAe?$AAt?$AA_?$AAs?$AAb?$AAh?$AA_?$AAt?$AAh?$AAr?$AAe?$AAs?$AAh?$AAo?$AAl?$AAd?$AA?$AA@ 1006a834     LIBCMTD:sbheap.obj
 0002:0000d860       ??_C@_1EC@DACAONFE@?$AAt?$AAh?$AAr?$AAe?$AAs?$AAh?$AAo?$AAl?$AAd?$AA?5?$AA?$DM?$AA?$DN?$AA?5?$AAM?$AAA?$AAX?$AA_?$AAA?$AAL?$AAL?$AAO?$AAC?$AA_?$AAD?$AAA?$AAT?$AAA?$AA_?$AAS?$AAI?$AAZ?$AAE@ 1006a860     LIBCMTD:sbheap.obj
 0002:0000d8a4       ??_C@_1BM@GFNECEDD@?$AA_?$AAs?$AAe?$AAt?$AA_?$AAa?$AAm?$AAb?$AAl?$AAk?$AAs?$AAi?$AAz?$AA?$AA@ 1006a8a4     LIBCMTD:sbheap.obj
 0002:0000d8c0       ??_C@_1DK@BKLENMLC@?$AA0?$AA?5?$AA?$DM?$AA?5?$AAs?$AAi?$AAz?$AAe?$AA?5?$AA?$CG?$AA?$CG?$AA?5?$AAs?$AAi?$AAz?$AAe?$AA?5?$AA?$DM?$AA?$DN?$AA?5?$AAU?$AAI?$AAN?$AAT?$AA_?$AAM?$AAA?$AAX?$AA?$AA@ 1006a8c0     LIBCMTD:sbheap.obj
 0002:0000d8fc       ??_C@_1BM@OFBCOJJF@?$AA_?$AAg?$AAe?$AAt?$AA_?$AAa?$AAm?$AAb?$AAl?$AAk?$AAs?$AAi?$AAz?$AA?$AA@ 1006a8fc     LIBCMTD:sbheap.obj
 0002:0000d918       ??_C@_1BM@IELHFPPM@?$AAp?$AAS?$AAi?$AAz?$AAe?$AA?5?$AA?$CB?$AA?$DN?$AA?5?$AAN?$AAU?$AAL?$AAL?$AA?$AA@ 1006a918     LIBCMTD:sbheap.obj
 0002:0000d934       ??_C@_09KJLOAKHC@mbctype?4c?$AA@ 1006a934     LIBCMTD:mbctype.obj
 0002:0000d940       ??_C@_07LCBHPJJN@LC_TIME?$AA@ 1006a940     LIBCMTD:setlocal.obj
 0002:0000d948       ??_C@_0L@DLHIECNL@LC_NUMERIC?$AA@ 1006a948     LIBCMTD:setlocal.obj
 0002:0000d954       ??_C@_0M@MIENIKLA@LC_MONETARY?$AA@ 1006a954     LIBCMTD:setlocal.obj
 0002:0000d960       ??_C@_08EADHIDAD@LC_CTYPE?$AA@ 1006a960     LIBCMTD:setlocal.obj
 0002:0000d96c       ??_C@_0L@KFJHEKIK@LC_COLLATE?$AA@ 1006a96c     LIBCMTD:setlocal.obj
 0002:0000d978       ??_C@_06NEFDFEKB@LC_ALL?$AA@ 1006a978     LIBCMTD:setlocal.obj
 0002:0000d980       ___lc_category             1006a980     LIBCMTD:setlocal.obj
 0002:0000da48       ??_C@_1BG@PFHEEGCP@?$AAs?$AAe?$AAt?$AAl?$AAo?$AAc?$AAa?$AAl?$AA?4?$AAc?$AA?$AA@ 1006aa48     LIBCMTD:setlocal.obj
 0002:0000da60       ??_C@_1BKC@GGIENNAK@?$AA?$CI?$AA?$CI?$AAp?$AAt?$AAl?$AAo?$AAc?$AAi?$AA?9?$AA?$DO?$AAl?$AAc?$AA_?$AAc?$AAa?$AAt?$AAe?$AAg?$AAo?$AAr?$AAy?$AA?$FL?$AAc?$AAa?$AAt?$AAe?$AAg?$AAo?$AAr?$AAy?$AA?$FN?$AA?4@ 1006aa60     LIBCMTD:setlocal.obj
 0002:0000dc04       ??_C@_1CI@FGIONOJM@?$AA_?$AAc?$AAo?$AAn?$AAf?$AAi?$AAg?$AAt?$AAh?$AAr?$AAe?$AAa?$AAd?$AAl?$AAo?$AAc?$AAa?$AAl?$AAe?$AA?$AA@ 1006ac04     LIBCMTD:setlocal.obj
 0002:0000dc30       ??_C@_1GA@LDEGDKD@?$AA?$CI?$AA?$CC?$AAI?$AAn?$AAv?$AAa?$AAl?$AAi?$AAd?$AA?5?$AAp?$AAa?$AAr?$AAa?$AAm?$AAe?$AAt?$AAe?$AAr?$AA?5?$AAf?$AAo?$AAr?$AA?5?$AA_?$AAc?$AAo?$AAn?$AAf?$AAi?$AAg?$AAt@ 1006ac30     LIBCMTD:setlocal.obj
 0002:0000dc90       ??_C@_0L@LEECJGMI@setlocal?4c?$AA@ 1006ac90     LIBCMTD:setlocal.obj
 0002:0000dc9c       ??_C@_1BE@DBJGBOJC@?$AAs?$AAe?$AAt?$AAl?$AAo?$AAc?$AAa?$AAl?$AAe?$AA?$AA@ 1006ac9c     LIBCMTD:setlocal.obj
 0002:0000dcb0       ??_C@_1FG@OHLFEKMC@?$AAL?$AAC?$AA_?$AAM?$AAI?$AAN?$AA?5?$AA?$DM?$AA?$DN?$AA?5?$AA_?$AAc?$AAa?$AAt?$AAe?$AAg?$AAo?$AAr?$AAy?$AA?5?$AA?$CG?$AA?$CG?$AA?5?$AA_?$AAc?$AAa?$AAt?$AAe?$AAg?$AAo?$AAr?$AAy@ 1006acb0     LIBCMTD:setlocal.obj
 0002:0000dd08       ??_C@_1IA@PFIKKKFB@?$AAs?$AAt?$AAr?$AAn?$AAc?$AAp?$AAy?$AA_?$AAs?$AA?$CI?$AAl?$AAc?$AAt?$AAe?$AAm?$AAp?$AA?0?$AA?5?$AA?$CI?$AAs?$AAi?$AAz?$AAe?$AAo?$AAf?$AA?$CI?$AAl?$AAc?$AAt?$AAe?$AAm?$AAp@ 1006ad08     LIBCMTD:setlocal.obj
 0002:0000dd88       ??_C@_1CE@OFNHIOO@?$AA_?$AAs?$AAe?$AAt?$AAl?$AAo?$AAc?$AAa?$AAl?$AAe?$AA_?$AAn?$AAo?$AAl?$AAo?$AAc?$AAk?$AA?$AA@ 1006ad88     LIBCMTD:setlocal.obj
 0002:0000ddac       ??_C@_01ICJEACDI@?$DL?$AA@ 1006adac     LIBCMTD:setlocal.obj
 0002:0000ddb0       ??_C@_02BALPLPBG@?$DN?$DL?$AA@ 1006adb0     LIBCMTD:setlocal.obj
 0002:0000ddb8       ??_C@_1GO@JALHLJEH@?$AAs?$AAt?$AAr?$AAc?$AAp?$AAy?$AA_?$AAs?$AA?$CI?$AAp?$AAc?$AAh?$AA?5?$AA?$CL?$AA?5?$AAs?$AAi?$AAz?$AAe?$AAo?$AAf?$AA?$CI?$AAi?$AAn?$AAt?$AA?$CJ?$AA?0?$AA?5?$AAc?$AAc?$AAh?$AA?5@ 1006adb8     LIBCMTD:setlocal.obj
 0002:0000de28       ??_C@_1CG@IEFIICPK@?$AA_?$AAs?$AAe?$AAt?$AAl?$AAo?$AAc?$AAa?$AAl?$AAe?$AA_?$AAs?$AAe?$AAt?$AA_?$AAc?$AAa?$AAt?$AA?$AA@ 1006ae28     LIBCMTD:setlocal.obj
 0002:0000de50       ??_C@_1DA@GDKKLCLM@?$AAs?$AAt?$AAr?$AAc?$AAa?$AAt?$AA_?$AAs?$AA?$CI?$AAp?$AAc?$AAh?$AA?0?$AA?5?$AAc?$AAc?$AAh?$AA?0?$AA?5?$AA?$CC?$AA?$DL?$AA?$CC?$AA?$CJ?$AA?$AA@ 1006ae50     LIBCMTD:setlocal.obj
 0002:0000de80       ??_C@_1CG@NNFIJLDA@?$AA_?$AAs?$AAe?$AAt?$AAl?$AAo?$AAc?$AAa?$AAl?$AAe?$AA_?$AAg?$AAe?$AAt?$AA_?$AAa?$AAl?$AAl?$AA?$AA@ 1006ae80     LIBCMTD:setlocal.obj
 0002:0000dea8       ??_C@_01NEMOKFLO@?$DN?$AA@ 1006aea8     LIBCMTD:setlocal.obj
 0002:0000deb0       ??_C@_1FA@MHAOOIBO@?$AAs?$AAt?$AAr?$AAc?$AAp?$AAy?$AA_?$AAs?$AA?$CI?$AAo?$AAu?$AAt?$AAp?$AAu?$AAt?$AA?0?$AA?5?$AAs?$AAi?$AAz?$AAe?$AAI?$AAn?$AAC?$AAh?$AAa?$AAr?$AAs?$AA?0?$AA?5?$AAc?$AAa@ 1006aeb0     LIBCMTD:setlocal.obj
 0002:0000df00       ??_C@_1IA@ONNFOEDA@?$AAs?$AAt?$AAr?$AAn?$AAc?$AAp?$AAy?$AA_?$AAs?$AA?$CI?$AAc?$AAa?$AAc?$AAh?$AAe?$AAi?$AAn?$AA?0?$AA?5?$AAc?$AAa?$AAc?$AAh?$AAe?$AAi?$AAn?$AAS?$AAi?$AAz?$AAe?$AA?0?$AA?5@ 1006af00     LIBCMTD:setlocal.obj
 0002:0000df80       ??_C@_01GFHCPBMG@C?$AA@    1006af80     LIBCMTD:setlocal.obj
 0002:0000df88       ??_C@_1EG@MOMHKOD@?$AAs?$AAt?$AAr?$AAc?$AAp?$AAy?$AA_?$AAs?$AA?$CI?$AAo?$AAu?$AAt?$AAp?$AAu?$AAt?$AA?0?$AA?5?$AAs?$AAi?$AAz?$AAe?$AAI?$AAn?$AAC?$AAh?$AAa?$AAr?$AAs?$AA?0?$AA?5?$AA?$CC?$AAC@ 1006af88     LIBCMTD:setlocal.obj
 0002:0000dfd0       ??_C@_1BM@OIIBLEFG@?$AA_?$AAe?$AAx?$AAp?$AAa?$AAn?$AAd?$AAl?$AAo?$AAc?$AAa?$AAl?$AAe?$AA?$AA@ 1006afd0     LIBCMTD:setlocal.obj
 0002:0000dff0       ??_C@_1BGM@IJDLABMC@?$AAs?$AAt?$AAr?$AAc?$AAa?$AAt?$AA_?$AAs?$AA?$CI?$AAo?$AAu?$AAt?$AAs?$AAt?$AAr?$AA?0?$AA?5?$AAs?$AAi?$AAz?$AAe?$AAI?$AAn?$AAB?$AAy?$AAt?$AAe?$AAs?$AA?0?$AA?5?$AA?$CI?$AA?5@ 1006aff0     LIBCMTD:setlocal.obj
 0002:0000e15c       ??_C@_1BC@PIABMDIP@?$AA_?$AAs?$AAt?$AAr?$AAc?$AAa?$AAt?$AAs?$AA?$AA@ 1006b15c     LIBCMTD:setlocal.obj
 0002:0000e170       ??_C@_1MM@NOPMGFHF@?$AAs?$AAt?$AAr?$AAn?$AAc?$AAp?$AAy?$AA_?$AAs?$AA?$CI?$AAn?$AAa?$AAm?$AAe?$AAs?$AA?9?$AA?$DO?$AAs?$AAz?$AAC?$AAo?$AAd?$AAe?$AAP?$AAa?$AAg?$AAe?$AA?0?$AA?5?$AA?$CI?$AAs?$AAi@ 1006b170     LIBCMTD:setlocal.obj
 0002:0000e240       ??_C@_1MG@PHNILIAG@?$AAs?$AAt?$AAr?$AAn?$AAc?$AAp?$AAy?$AA_?$AAs?$AA?$CI?$AAn?$AAa?$AAm?$AAe?$AAs?$AA?9?$AA?$DO?$AAs?$AAz?$AAC?$AAo?$AAu?$AAn?$AAt?$AAr?$AAy?$AA?0?$AA?5?$AA?$CI?$AAs?$AAi?$AAz@ 1006b240     LIBCMTD:setlocal.obj
 0002:0000e308       ??_C@_1MM@BFEECMAF@?$AAs?$AAt?$AAr?$AAn?$AAc?$AAp?$AAy?$AA_?$AAs?$AA?$CI?$AAn?$AAa?$AAm?$AAe?$AAs?$AA?9?$AA?$DO?$AAs?$AAz?$AAL?$AAa?$AAn?$AAg?$AAu?$AAa?$AAg?$AAe?$AA?0?$AA?5?$AA?$CI?$AAs?$AAi@ 1006b308     LIBCMTD:setlocal.obj
 0002:0000e3d4       ??_C@_03EGDHDPFD@_?4?0?$AA@ 1006b3d4     LIBCMTD:setlocal.obj
 0002:0000e3d8       ??_C@_1NG@FMOPGKGG@?$AAs?$AAt?$AAr?$AAn?$AAc?$AAp?$AAy?$AA_?$AAs?$AA?$CI?$AAn?$AAa?$AAm?$AAe?$AAs?$AA?9?$AA?$DO?$AAs?$AAz?$AAC?$AAo?$AAd?$AAe?$AAP?$AAa?$AAg?$AAe?$AA?0?$AA?5?$AA?$CI?$AAs?$AAi@ 1006b3d8     LIBCMTD:setlocal.obj
 0002:0000e4b0       ??_C@_1BK@CBMMLAGJ@?$AA_?$AA_?$AAl?$AAc?$AA_?$AAs?$AAt?$AAr?$AAt?$AAo?$AAl?$AAc?$AA?$AA@ 1006b4b0     LIBCMTD:setlocal.obj
 0002:0000e4cc       ??_C@_01LFCBOECM@?4?$AA@   1006b4cc     LIBCMTD:setlocal.obj
 0002:0000e4d0       ??_C@_01IDAFKMJL@_?$AA@    1006b4d0     LIBCMTD:setlocal.obj
 0002:0000e4d8       ??_C@_1HC@IBDBLKCB@?$AAs?$AAt?$AAr?$AAc?$AAp?$AAy?$AA_?$AAs?$AA?$CI?$AAl?$AAo?$AAc?$AAa?$AAl?$AAe?$AA?0?$AA?5?$AAs?$AAi?$AAz?$AAe?$AAI?$AAn?$AAB?$AAy?$AAt?$AAe?$AAs?$AA?0?$AA?5?$AA?$CI?$AAc@ 1006b4d8     LIBCMTD:setlocal.obj
 0002:0000e54c       ??_C@_1BK@FGDJDEPG@?$AA_?$AA_?$AAl?$AAc?$AA_?$AAl?$AAc?$AAt?$AAo?$AAs?$AAt?$AAr?$AA?$AA@ 1006b54c     LIBCMTD:setlocal.obj
 0002:0000e568       ??_C@_1BE@CEKCJJBD@?$AAi?$AAs?$AAc?$AAt?$AAy?$AAp?$AAe?$AA?4?$AAc?$AA?$AA@ 1006b568     LIBCMTD:isctype.obj
 0002:0000e57c       ??_C@_1DC@BPLPALML@?$AA?$CI?$AAu?$AAn?$AAs?$AAi?$AAg?$AAn?$AAe?$AAd?$AA?$CJ?$AA?$CI?$AAc?$AA?5?$AA?$CL?$AA?5?$AA1?$AA?$CJ?$AA?5?$AA?$DM?$AA?$DN?$AA?5?$AA2?$AA5?$AA6?$AA?$AA@ 1006b57c     LIBCMTD:isctype.obj
 0002:0000e5b0       ??_C@_08MAFBHINM@ioinit?4c?$AA@ 1006b5b0     LIBCMTD:ioinit.obj
 0002:0000e5bc       ??_C@_1DE@MMOGFGHF@?$AAs?$AAt?$AAr?$AAc?$AAp?$AAy?$AA_?$AAs?$AA?$CI?$AA?$CK?$AAe?$AAn?$AAv?$AA?0?$AA?5?$AAc?$AAc?$AAh?$AAa?$AAr?$AAs?$AA?0?$AA?5?$AAp?$AA?$CJ?$AA?$AA@ 1006b5bc     LIBCMTD:stdenvp.obj
 0002:0000e5f0       ??_C@_1BC@GHMCNHHL@?$AA_?$AAs?$AAe?$AAt?$AAe?$AAn?$AAv?$AAp?$AA?$AA@ 1006b5f0     LIBCMTD:stdenvp.obj
 0002:0000e604       ??_C@_1BE@DFNOPGHI@?$AAs?$AAt?$AAd?$AAe?$AAn?$AAv?$AAp?$AA?4?$AAc?$AA?$AA@ 1006b604     LIBCMTD:stdenvp.obj
 0002:0000e618       ??_C@_09HCDLHOJP@stdenvp?4c?$AA@ 1006b618     LIBCMTD:stdenvp.obj
 0002:0000e624       ??_C@_09IKILHJIC@stdargv?4c?$AA@ 1006b624     LIBCMTD:stdargv.obj
 0002:0000e630       ??_C@_07BPGNOCOG@a_env?4c?$AA@ 1006b630     LIBCMTD:a_env.obj
 0002:0000e638       ??_C@_0OH@IHEJDJAH@Microsoft?5Visual?5C?$CL?$CL?5Runtime?5Lib@ 1006b638     LIBCMTD:gs_support.obj
 0002:0000e720       ??_C@_1HO@MLMGPAFH@?$AA?$CI?$AA?$CC?$AAi?$AAn?$AAc?$AAo?$AAn?$AAs?$AAi?$AAs?$AAt?$AAe?$AAn?$AAt?$AA?5?$AAI?$AAO?$AAB?$AA?5?$AAf?$AAi?$AAe?$AAl?$AAd?$AAs?$AA?$CC?$AA?0?$AA?5?$AAs?$AAt?$AAr?$AAe@ 1006b720     LIBCMTD:_flsbuf.obj
 0002:0000e7a0       ??_C@_1BE@GOOJIKLI@?$AA_?$AAf?$AAl?$AAs?$AAb?$AAu?$AAf?$AA?4?$AAc?$AA?$AA@ 1006b7a0     LIBCMTD:_flsbuf.obj
 0002:0000e7b4       ??_C@_1BI@MFCLPIBM@?$AAs?$AAt?$AAr?$AA?5?$AA?$CB?$AA?$DN?$AA?5?$AAN?$AAU?$AAL?$AAL?$AA?$AA@ 1006b7b4     LIBCMTD:_flsbuf.obj
 0002:0000e7cc       ??_C@_1O@CEDCILHN@?$AA?$CI?$AAn?$AAu?$AAl?$AAl?$AA?$CJ?$AA?$AA@ 1006b7cc     LIBCMTD:output.obj
 0002:0000e7dc       ??_C@_06OJHGLDPL@?$CInull?$CJ?$AA@ 1006b7dc     LIBCMTD:output.obj
 0002:0000e7e8       ___lookuptable             1006b7e8     LIBCMTD:output.obj
 0002:0000e844       ??_C@_08MEPFMIND@output?4c?$AA@ 1006b844     LIBCMTD:output.obj
 0002:0000e850       ??_C@_1EK@PNGFDECN@?$AA?$CI?$AA?$CC?$AA?8?$AAn?$AA?8?$AA?5?$AAf?$AAo?$AAr?$AAm?$AAa?$AAt?$AA?5?$AAs?$AAp?$AAe?$AAc?$AAi?$AAf?$AAi?$AAe?$AAr?$AA?5?$AAd?$AAi?$AAs?$AAa?$AAb?$AAl?$AAe?$AAd?$AA?$CC@ 1006b850     LIBCMTD:output.obj
 0002:0000e89c       ??_C@_1CC@IFFHEMNF@?$AA?$CI?$AAc?$AAh?$AA?5?$AA?$CB?$AA?$DN?$AA?5?$AA_?$AAT?$AA?$CI?$AA?8?$AA?2?$AA0?$AA?8?$AA?$CJ?$AA?$CJ?$AA?$AA@ 1006b89c     LIBCMTD:output.obj
 0002:0000e8c0       ??_C@_1BAE@CBLKKPB@?$AA?$CI?$AA?5?$AA?$CI?$AA_?$AAS?$AAt?$AAr?$AAe?$AAa?$AAm?$AA?9?$AA?$DO?$AA_?$AAf?$AAl?$AAa?$AAg?$AA?5?$AA?$CG?$AA?5?$AA_?$AAI?$AAO?$AAS?$AAT?$AAR?$AAG?$AA?$CJ?$AA?5?$AA?$HM?$AA?$HM?$AA?5@ 1006b8c0     LIBCMTD:output.obj
 0002:0000e9c4       ??_C@_1BE@IONLIDNC@?$AA_?$AAo?$AAu?$AAt?$AAp?$AAu?$AAt?$AA_?$AAl?$AA?$AA@ 1006b9c4     LIBCMTD:output.obj
 0002:0000e9d8       ??_C@_1BC@NHKJGCDC@?$AAo?$AAu?$AAt?$AAp?$AAu?$AAt?$AA?4?$AAc?$AA?$AA@ 1006b9d8     LIBCMTD:output.obj
 0002:0000e9ec       ??_C@_1CC@FADMNIL@?$AA?$CI?$AAs?$AAt?$AAr?$AAe?$AAa?$AAm?$AA?5?$AA?$CB?$AA?$DN?$AA?5?$AAN?$AAU?$AAL?$AAL?$AA?$CJ?$AA?$AA@ 1006b9ec     LIBCMTD:output.obj
 0002:0000ea10       ??_C@_1BI@IGILPKD@?$AA_?$AAv?$AAs?$AAp?$AAr?$AAi?$AAn?$AAt?$AAf?$AA_?$AAl?$AA?$AA@ 1006ba10     LIBCMTD:vsprintf.obj
 0002:0000ea28       ??_C@_1BG@CBDPIEBA@?$AAv?$AAs?$AAp?$AAr?$AAi?$AAn?$AAt?$AAf?$AA?4?$AAc?$AA?$AA@ 1006ba28     LIBCMTD:vsprintf.obj
 0002:0000ea40       ??_C@_1CE@HMKDJHB@?$AA_?$AAv?$AAs?$AAc?$AAp?$AAr?$AAi?$AAn?$AAt?$AAf?$AA_?$AAh?$AAe?$AAl?$AAp?$AAe?$AAr?$AA?$AA@ 1006ba40     LIBCMTD:vsprintf.obj
 0002:0000ea64       ??_C@_0BK@CIDNPOGP@GetUserObjectInformationA?$AA@ 1006ba64     LIBCMTD:crtmbox.obj
 0002:0000ea80       ??_C@_1CC@MEIOIKJI@?$AA_?$AA_?$AAc?$AAr?$AAt?$AAM?$AAe?$AAs?$AAs?$AAa?$AAg?$AAe?$AAB?$AAo?$AAx?$AAA?$AA?$AA@ 1006ba80     LIBCMTD:crtmbox.obj
 0002:0000eaa4       ??_C@_1BE@DEODNGG@?$AAc?$AAr?$AAt?$AAm?$AAb?$AAo?$AAx?$AA?4?$AAc?$AA?$AA@ 1006baa4     LIBCMTD:crtmbox.obj
 0002:0000eab8       ??_C@_0M@CHKKJDAI@MessageBoxA?$AA@ 1006bab8     LIBCMTD:crtmbox.obj
 0002:0000eac4       ??_C@_0L@NDEGIDAG@USER32?4DLL?$AA@ 1006bac4     LIBCMTD:crtmbox.obj
 0002:0000ead0       ___lookuptable_s           1006bad0     LIBCMTD:outputs.obj
 0002:0000eb30       ??_C@_1FK@LNCFKALM@?$AA?$CI?$AA?$CI?$AAs?$AAt?$AAa?$AAt?$AAe?$AA?5?$AA?$DN?$AA?$DN?$AA?5?$AAS?$AAT?$AA_?$AAN?$AAO?$AAR?$AAM?$AAA?$AAL?$AA?$CJ?$AA?5?$AA?$HM?$AA?$HM?$AA?5?$AA?$CI?$AAs?$AAt?$AAa?$AAt?$AAe?$AA?5@ 1006bb30     LIBCMTD:outputs.obj
 0002:0000eb8c       ??_C@_0DB@FNNAMKJO@f?3?2rtm?2vctools?2crt_bld?2self_x86?2@ 1006bb8c     LIBCMTD:outputs.obj
 0002:0000ebc0       ??_C@_1CM@IEGCDOKE@?$AA?$CI?$AAs?$AAt?$AAa?$AAt?$AAe?$AA?5?$AA?$CB?$AA?$DN?$AA?5?$AAS?$AAT?$AA_?$AAI?$AAN?$AAV?$AAA?$AAL?$AAI?$AAD?$AA?$CJ?$AA?$AA@ 1006bbc0     LIBCMTD:outputs.obj
 0002:0000ebec       ??_C@_1BI@COFBLHCG@?$AA_?$AAo?$AAu?$AAt?$AAp?$AAu?$AAt?$AA_?$AAs?$AA_?$AAl?$AA?$AA@ 1006bbec     LIBCMTD:outputs.obj
 0002:0000ec08       ??_C@_1GC@ELIAPJJM@?$AAf?$AA?3?$AA?2?$AAr?$AAt?$AAm?$AA?2?$AAv?$AAc?$AAt?$AAo?$AAo?$AAl?$AAs?$AA?2?$AAc?$AAr?$AAt?$AA_?$AAb?$AAl?$AAd?$AA?2?$AAs?$AAe?$AAl?$AAf?$AA_?$AAx?$AA8?$AA6?$AA?2@ 1006bc08     LIBCMTD:outputs.obj
 0002:0000ec70       ??_C@_1FK@BCPANIEK@?$AA?$CI?$AA?$CC?$AAM?$AAi?$AAs?$AAs?$AAi?$AAn?$AAg?$AA?5?$AAp?$AAo?$AAs?$AAi?$AAt?$AAi?$AAo?$AAn?$AA?5?$AAi?$AAn?$AA?5?$AAt?$AAh?$AAe?$AA?5?$AAf?$AAo?$AAr?$AAm?$AAa?$AAt@ 1006bc70     LIBCMTD:outputp.obj
 0002:0000ecd0       ??_C@_1JC@OACKELNN@?$AA_?$AAt?$AAv?$AAa?$AAl?$AAi?$AAd?$AAa?$AAt?$AAe?$AA_?$AAp?$AAa?$AAr?$AAa?$AAm?$AA_?$AAr?$AAe?$AAu?$AAs?$AAe?$AA?$CI?$AA?$CG?$AAp?$AAo?$AAs?$AA_?$AAv?$AAa?$AAl?$AAu@ 1006bcd0     LIBCMTD:outputp.obj
 0002:0000ed68       ??_C@_1IK@NBGDDCBN@?$AA_?$AAt?$AAv?$AAa?$AAl?$AAi?$AAd?$AAa?$AAt?$AAe?$AA_?$AAp?$AAa?$AAr?$AAa?$AAm?$AA_?$AAr?$AAe?$AAu?$AAs?$AAe?$AA?$CI?$AA?$CG?$AAp?$AAo?$AAs?$AA_?$AAv?$AAa?$AAl?$AAu@ 1006bd68     LIBCMTD:outputp.obj
 0002:0000edf4       ??_C@_1DG@GOHGNKHE@?$AAp?$AAa?$AAs?$AAs?$AA?5?$AA?$DN?$AA?$DN?$AA?5?$AAF?$AAO?$AAR?$AAM?$AAA?$AAT?$AA_?$AAO?$AAU?$AAT?$AAP?$AAU?$AAT?$AA_?$AAP?$AAA?$AAS?$AAS?$AA?$AA@ 1006bdf4     LIBCMTD:outputp.obj
 0002:0000ee30       ??_C@_1IM@DNGHAPLB@?$AA_?$AAt?$AAv?$AAa?$AAl?$AAi?$AAd?$AAa?$AAt?$AAe?$AA_?$AAp?$AAa?$AAr?$AAa?$AAm?$AA_?$AAr?$AAe?$AAu?$AAs?$AAe?$AA?$CI?$AA?$CG?$AAp?$AAo?$AAs?$AA_?$AAv?$AAa?$AAl?$AAu@ 1006be30     LIBCMTD:outputp.obj
 0002:0000eec0       ??_C@_1IG@HJIMKDHC@?$AA_?$AAt?$AAv?$AAa?$AAl?$AAi?$AAd?$AAa?$AAt?$AAe?$AA_?$AAp?$AAa?$AAr?$AAa?$AAm?$AA_?$AAr?$AAe?$AAu?$AAs?$AAe?$AA?$CI?$AA?$CG?$AAp?$AAo?$AAs?$AA_?$AAv?$AAa?$AAl?$AAu@ 1006bec0     LIBCMTD:outputp.obj
 0002:0000ef48       ??_C@_1IG@FDCPLALG@?$AA_?$AAt?$AAv?$AAa?$AAl?$AAi?$AAd?$AAa?$AAt?$AAe?$AA_?$AAp?$AAa?$AAr?$AAa?$AAm?$AA_?$AAr?$AAe?$AAu?$AAs?$AAe?$AA?$CI?$AA?$CG?$AAp?$AAo?$AAs?$AA_?$AAv?$AAa?$AAl?$AAu@ 1006bf48     LIBCMTD:outputp.obj
 0002:0000efd0       ??_C@_1IK@MHEDJAMK@?$AA_?$AAt?$AAv?$AAa?$AAl?$AAi?$AAd?$AAa?$AAt?$AAe?$AA_?$AAp?$AAa?$AAr?$AAa?$AAm?$AA_?$AAr?$AAe?$AAu?$AAs?$AAe?$AA?$CI?$AA?$CG?$AAp?$AAo?$AAs?$AA_?$AAv?$AAa?$AAl?$AAu@ 1006bfd0     LIBCMTD:outputp.obj
 0002:0000f060       ??_C@_1EM@BNPHBBIA@?$AA?$CI?$AA?$CI?$AAt?$AAy?$AAp?$AAe?$AA_?$AAp?$AAo?$AAs?$AA?$DO?$AA?$DN?$AA0?$AA?$CJ?$AA?5?$AA?$CG?$AA?$CG?$AA?5?$AA?$CI?$AAt?$AAy?$AAp?$AAe?$AA_?$AAp?$AAo?$AAs?$AA?$DM?$AA_?$AAA?$AAR?$AAG@ 1006c060     LIBCMTD:outputp.obj
 0002:0000f0b0       ??_C@_1IK@EIEPDKHJ@?$AA_?$AAt?$AAv?$AAa?$AAl?$AAi?$AAd?$AAa?$AAt?$AAe?$AA_?$AAp?$AAa?$AAr?$AAa?$AAm?$AA_?$AAr?$AAe?$AAu?$AAs?$AAe?$AA?$CI?$AA?$CG?$AAp?$AAo?$AAs?$AA_?$AAv?$AAa?$AAl?$AAu@ 1006c0b0     LIBCMTD:outputp.obj
 0002:0000f140       ??_C@_1JG@JBJBOCFB@?$AA?$CI?$AA?$CI?$AAp?$AAr?$AAe?$AAc?$AAi?$AAs?$AA_?$AAp?$AAo?$AAs?$AA?5?$AA?$DO?$AA?$DN?$AA?5?$AA0?$AA?$CJ?$AA?5?$AA?$CG?$AA?$CG?$AA?5?$AA?$CI?$AA?$CK?$AAe?$AAn?$AAd?$AA_?$AAp?$AAo?$AAs?$AA?5@ 1006c140     LIBCMTD:outputp.obj
 0002:0000f1d8       ??_C@_1II@PIPIMLPF@?$AA_?$AAt?$AAv?$AAa?$AAl?$AAi?$AAd?$AAa?$AAt?$AAe?$AA_?$AAp?$AAa?$AAr?$AAa?$AAm?$AA_?$AAr?$AAe?$AAu?$AAs?$AAe?$AA?$CI?$AA?$CG?$AAp?$AAo?$AAs?$AA_?$AAv?$AAa?$AAl?$AAu@ 1006c1d8     LIBCMTD:outputp.obj
 0002:0000f260       ??_C@_1JE@NMBHOLFI@?$AA?$CI?$AA?$CI?$AAw?$AAi?$AAd?$AAt?$AAh?$AA_?$AAp?$AAo?$AAs?$AA?5?$AA?$DO?$AA?$DN?$AA?5?$AA0?$AA?$CJ?$AA?5?$AA?$CG?$AA?$CG?$AA?5?$AA?$CI?$AA?$CK?$AAe?$AAn?$AAd?$AA_?$AAp?$AAo?$AAs?$AA?5?$AA?$DN@ 1006c260     LIBCMTD:outputp.obj
 0002:0000f2f8       ??_C@_1JC@PFJNKEIO@?$AA?$CI?$AA?$CI?$AAt?$AAy?$AAp?$AAe?$AA_?$AAp?$AAo?$AAs?$AA?5?$AA?$DO?$AA?$DN?$AA?5?$AA0?$AA?$CJ?$AA?5?$AA?$CG?$AA?$CG?$AA?5?$AA?$CI?$AA?$CK?$AAe?$AAn?$AAd?$AA_?$AAp?$AAo?$AAs?$AA?5?$AA?$DN?$AA?$DN@ 1006c2f8     LIBCMTD:outputp.obj
 0002:0000f38c       ??_C@_1BI@KANOLAMF@?$AA_?$AAo?$AAu?$AAt?$AAp?$AAu?$AAt?$AA_?$AAp?$AA_?$AAl?$AA?$AA@ 1006c38c     LIBCMTD:outputp.obj
 0002:0000f3a4       ??_C@_1BG@BBCDFOMA@?$AA_?$AAw?$AAo?$AAu?$AAt?$AAp?$AAu?$AAt?$AA_?$AAl?$AA?$AA@ 1006c3a4     LIBCMTD:woutput.obj
 0002:0000f3bc       ??_C@_1BK@ONMFGLDB@?$AA_?$AAw?$AAo?$AAu?$AAt?$AAp?$AAu?$AAt?$AA_?$AAs?$AA_?$AAl?$AA?$AA@ 1006c3bc     LIBCMTD:woutputs.obj
 0002:0000f3d8       ??_C@_1BK@GDEKGMNC@?$AA_?$AAw?$AAo?$AAu?$AAt?$AAp?$AAu?$AAt?$AA_?$AAp?$AA_?$AAl?$AA?$AA@ 1006c3d8     LIBCMTD:woutputp.obj
 0002:0000f3f4       ??_C@_1BK@EPLNBKAK@?$AA_?$AAv?$AAs?$AAw?$AAp?$AAr?$AAi?$AAn?$AAt?$AAf?$AA_?$AAl?$AA?$AA@ 1006c3f4     LIBCMTD:vswprint.obj
 0002:0000f410       ??_C@_1BG@BELBGCGO@?$AAv?$AAs?$AAw?$AAp?$AAr?$AAi?$AAn?$AAt?$AA?4?$AAc?$AA?$AA@ 1006c410     LIBCMTD:vswprint.obj
 0002:0000f428       ??_C@_1CG@IMMIEPNA@?$AA_?$AAv?$AAs?$AAc?$AAw?$AAp?$AAr?$AAi?$AAn?$AAt?$AAf?$AA_?$AAh?$AAe?$AAl?$AAp?$AAe?$AAr?$AA?$AA@ 1006c428     LIBCMTD:vswprint.obj
 0002:0000f450       ??_C@_0CG@PKBDLMEO@InitializeCriticalSectionAndSpin@ 1006c450     LIBCMTD:initcrit.obj
 0002:0000f478       ??_C@_1DK@EGKDBLND@?$AA_?$AA_?$AAc?$AAr?$AAt?$AAI?$AAn?$AAi?$AAt?$AAC?$AAr?$AAi?$AAt?$AAS?$AAe?$AAc?$AAA?$AAn?$AAd?$AAS?$AAp?$AAi?$AAn?$AAC?$AAo?$AAu?$AAn?$AAt?$AA?$AA@ 1006c478     LIBCMTD:initcrit.obj
 0002:0000f4b4       ??_C@_1BG@LABPBAGA@?$AAi?$AAn?$AAi?$AAt?$AAc?$AAr?$AAi?$AAt?$AA?4?$AAc?$AA?$AA@ 1006c4b4     LIBCMTD:initcrit.obj
 0002:0000f4cc       ??_C@_0M@EKFFODEC@MSPDB80?4DLL?$AA@ 1006c4cc     LIBCMTD:pdblkup.obj
 0002:0000f4d8       ??_C@_01KDCPPGHE@r?$AA@    1006c4d8     LIBCMTD:pdblkup.obj
 0002:0000f4dc       ??_C@_0BB@KCIACLNC@PDBOpenValidate5?$AA@ 1006c4dc     LIBCMTD:pdblkup.obj
 0002:0000f4f0       ??_C@_0BF@BMIHBHCA@EnvironmentDirectory?$AA@ 1006c4f0     LIBCMTD:pdblkup.obj
 0002:0000f508       ??_C@_0CN@EAEOKKOC@SOFTWARE?2Microsoft?2VisualStudio?2@ 1006c508     LIBCMTD:pdblkup.obj
 0002:0000f538       ??_C@_0M@HLOHPNFA@RegCloseKey?$AA@ 1006c538     LIBCMTD:pdblkup.obj
 0002:0000f544       ??_C@_0BB@HHEIPGME@RegQueryValueExA?$AA@ 1006c544     LIBCMTD:pdblkup.obj
 0002:0000f558       ??_C@_0O@DCOGKJGG@RegOpenKeyExA?$AA@ 1006c558     LIBCMTD:pdblkup.obj
 0002:0000f568       ??_C@_0N@JJPEKNFO@ADVAPI32?4DLL?$AA@ 1006c568     LIBCMTD:pdblkup.obj
 0002:0000f578       ??_C@_1CG@JEHFHLNG@?$AA_?$AAm?$AAb?$AAs?$AAt?$AAo?$AAw?$AAc?$AAs?$AA_?$AAl?$AA_?$AAh?$AAe?$AAl?$AAp?$AAe?$AAr?$AA?$AA@ 1006c578     LIBCMTD:mbstowcs.obj
 0002:0000f5a0       ??_C@_1BG@KMBPFIPB@?$AAm?$AAb?$AAs?$AAt?$AAo?$AAw?$AAc?$AAs?$AA?4?$AAc?$AA?$AA@ 1006c5a0     LIBCMTD:mbstowcs.obj
 0002:0000f5b8       ??_C@_1BE@EEKACIGI@?$AAs?$AA?5?$AA?$CB?$AA?$DN?$AA?5?$AAN?$AAU?$AAL?$AAL?$AA?$AA@ 1006c5b8     LIBCMTD:mbstowcs.obj
 0002:0000f5cc       ??_C@_1CO@JNPEPJAL@?$AAr?$AAe?$AAt?$AAs?$AAi?$AAz?$AAe?$AA?5?$AA?$DM?$AA?$DN?$AA?5?$AAs?$AAi?$AAz?$AAe?$AAI?$AAn?$AAW?$AAo?$AAr?$AAd?$AAs?$AA?$AA@ 1006c5cc     LIBCMTD:mbstowcs.obj
 0002:0000f5fc       ??_C@_1BM@PHENIGHD@?$AA_?$AAm?$AAb?$AAs?$AAt?$AAo?$AAw?$AAc?$AAs?$AA_?$AAs?$AA_?$AAl?$AA?$AA@ 1006c5fc     LIBCMTD:mbstowcs.obj
 0002:0000f618       ??_C@_1JA@JKDFMOPO@?$AA?$CI?$AAp?$AAw?$AAc?$AAs?$AA?5?$AA?$DN?$AA?$DN?$AA?5?$AAN?$AAU?$AAL?$AAL?$AA?5?$AA?$CG?$AA?$CG?$AA?5?$AAs?$AAi?$AAz?$AAe?$AAI?$AAn?$AAW?$AAo?$AAr?$AAd?$AAs?$AA?5?$AA?$DN?$AA?$DN?$AA?5@ 1006c618     LIBCMTD:mbstowcs.obj
 0002:0000f6a8       ??_C@_1CM@HABGDNLJ@?$AAl?$AAe?$AAn?$AAg?$AAt?$AAh?$AA?5?$AA?$DM?$AA?5?$AAs?$AAi?$AAz?$AAe?$AAI?$AAn?$AAT?$AAC?$AAh?$AAa?$AAr?$AAs?$AA?$AA@ 1006c6a8     LIBCMTD:xtoas.obj
 0002:0000f6d4       ??_C@_1DE@PCJGDBBD@?$AA2?$AA?5?$AA?$DM?$AA?$DN?$AA?5?$AAr?$AAa?$AAd?$AAi?$AAx?$AA?5?$AA?$CG?$AA?$CG?$AA?5?$AAr?$AAa?$AAd?$AAi?$AAx?$AA?5?$AA?$DM?$AA?$DN?$AA?5?$AA3?$AA6?$AA?$AA@ 1006c6d4     LIBCMTD:xtoas.obj
 0002:0000f708       ??_C@_1FA@MKGGAGEI@?$AAs?$AAi?$AAz?$AAe?$AAI?$AAn?$AAT?$AAC?$AAh?$AAa?$AAr?$AAs?$AA?5?$AA?$DO?$AA?5?$AA?$CI?$AAs?$AAi?$AAz?$AAe?$AA_?$AAt?$AA?$CJ?$AA?$CI?$AAi?$AAs?$AA_?$AAn?$AAe?$AAg?$AA?5?$AA?$DP@ 1006c708     LIBCMTD:xtoas.obj
 0002:0000f758       ??_C@_1CC@JNJFIMGE@?$AAs?$AAi?$AAz?$AAe?$AAI?$AAn?$AAT?$AAC?$AAh?$AAa?$AAr?$AAs?$AA?5?$AA?$DO?$AA?5?$AA0?$AA?$AA@ 1006c758     LIBCMTD:xtoas.obj
 0002:0000f77c       ??_C@_1O@GIMBNLEI@?$AAx?$AAt?$AAo?$AAa?$AA_?$AAs?$AA?$AA@ 1006c77c     LIBCMTD:xtoas.obj
 0002:0000f790       ??_C@_1FO@FKHEBPLJ@?$AAf?$AA?3?$AA?2?$AAr?$AAt?$AAm?$AA?2?$AAv?$AAc?$AAt?$AAo?$AAo?$AAl?$AAs?$AA?2?$AAc?$AAr?$AAt?$AA_?$AAb?$AAl?$AAd?$AA?2?$AAs?$AAe?$AAl?$AAf?$AA_?$AAx?$AA8?$AA6?$AA?2@ 1006c790     LIBCMTD:xtoas.obj
 0002:0000f7f0       ??_C@_1BI@ICGGMGLK@?$AAb?$AAu?$AAf?$AA?5?$AA?$CB?$AA?$DN?$AA?5?$AAN?$AAU?$AAL?$AAL?$AA?$AA@ 1006c7f0     LIBCMTD:xtoas.obj
 0002:0000f808       ??_C@_1BC@MJJNBNFN@?$AAx?$AA6?$AA4?$AAt?$AAo?$AAa?$AA_?$AAs?$AA?$AA@ 1006c808     LIBCMTD:xtoas.obj
 0002:0000f81c       ??_C@_1BC@PLIEPKPJ@?$AAw?$AAc?$AAs?$AAc?$AAa?$AAt?$AA_?$AAs?$AA?$AA@ 1006c81c     LIBCMTD:wcscat_s.obj
 0002:0000f830       ??_C@_1O@NCBFODOE@?$AAx?$AAt?$AAo?$AAw?$AA_?$AAs?$AA?$AA@ 1006c830     LIBCMTD:xtows.obj
 0002:0000f840       ??_C@_1BC@HDEJCFPB@?$AAx?$AA6?$AA4?$AAt?$AAo?$AAw?$AA_?$AAs?$AA?$AA@ 1006c840     LIBCMTD:xtows.obj
 0002:0000f854       ??_C@_0BC@JEAENNKH@SystemFunction036?$AA@ 1006c854     LIBCMTD:rand_s.obj
 0002:0000f868       ??_C@_1GA@EBEDGGGB@?$AA?$CI?$AA?$CC?$AAr?$AAa?$AAn?$AAd?$AA_?$AAs?$AA?5?$AAi?$AAs?$AA?5?$AAn?$AAo?$AAt?$AA?5?$AAa?$AAv?$AAa?$AAi?$AAl?$AAa?$AAb?$AAl?$AAe?$AA?5?$AAo?$AAn?$AA?5?$AAt?$AAh?$AAi@ 1006c868     LIBCMTD:rand_s.obj
 0002:0000f8c8       ??_C@_1O@IJGPPOGF@?$AAr?$AAa?$AAn?$AAd?$AA_?$AAs?$AA?$AA@ 1006c8c8     LIBCMTD:rand_s.obj
 0002:0000f8d8       ??_C@_1BC@NBJGCJKM@?$AAr?$AAa?$AAn?$AAd?$AA_?$AAs?$AA?4?$AAc?$AA?$AA@ 1006c8d8     LIBCMTD:rand_s.obj
 0002:0000f8ec       ??_C@_1CK@GFDNDKK@?$AA_?$AAR?$AAa?$AAn?$AAd?$AAo?$AAm?$AAV?$AAa?$AAl?$AAu?$AAe?$AA?5?$AA?$CB?$AA?$DN?$AA?5?$AAN?$AAU?$AAL?$AAL?$AA?$AA@ 1006c8ec     LIBCMTD:rand_s.obj
 0002:0000f918       ??_C@_0BK@CFCOFLF@?5Complete?5Object?5Locator?8?$AA@ 1006c918     LIBCMTD:undname.obj
 0002:0000f934       ??_C@_0BN@MECKDCOJ@?5Class?5Hierarchy?5Descriptor?8?$AA@ 1006c934     LIBCMTD:undname.obj
 0002:0000f954       ??_C@_0BD@LGICGFMM@?5Base?5Class?5Array?8?$AA@ 1006c954     LIBCMTD:undname.obj
 0002:0000f968       ??_C@_0BM@LDKODKLH@?5Base?5Class?5Descriptor?5at?5?$CI?$AA@ 1006c968     LIBCMTD:undname.obj
 0002:0000f984       ??_C@_0BC@DAFEJGAK@?5Type?5Descriptor?8?$AA@ 1006c984     LIBCMTD:undname.obj
 0002:0000f998       ??_C@_0BM@PMGGMLDN@?$GAlocal?5static?5thread?5guard?8?$AA@ 1006c998     LIBCMTD:undname.obj
 0002:0000f9b4       ??_C@_0CL@FGIJHLCE@?$GAmanaged?5vector?5copy?5constructor@ 1006c9b4     LIBCMTD:undname.obj
 0002:0000f9e0       ??_C@_0CJ@GJELGAMM@?$GAvector?5vbase?5copy?5constructor?5i@ 1006c9e0     LIBCMTD:undname.obj
 0002:0000fa0c       ??_C@_0CD@CGAJBKEJ@?$GAvector?5copy?5constructor?5iterato@ 1006ca0c     LIBCMTD:undname.obj
 0002:0000fa30       ??_C@_0CB@PDBIFEP@?$GAdynamic?5atexit?5destructor?5for?5?8@ 1006ca30     LIBCMTD:undname.obj
 0002:0000fa54       ??_C@_0BL@CLIPGLGB@?$GAdynamic?5initializer?5for?5?8?$AA@ 1006ca54     LIBCMTD:undname.obj
 0002:0000fa70       ??_C@_0CM@FCBBDIGB@?$GAeh?5vector?5vbase?5copy?5constructo@ 1006ca70     LIBCMTD:undname.obj
 0002:0000fa9c       ??_C@_0CG@HLDDJMAG@?$GAeh?5vector?5copy?5constructor?5iter@ 1006ca9c     LIBCMTD:undname.obj
 0002:0000fac4       ??_C@_0CF@IMGKMJNO@?$GAmanaged?5vector?5destructor?5itera@ 1006cac4     LIBCMTD:undname.obj
 0002:0000faec       ??_C@_0CG@CFDHKGGD@?$GAmanaged?5vector?5constructor?5iter@ 1006caec     LIBCMTD:undname.obj
 0002:0000fb14       ??_C@_0BN@CKNJLHMB@?$GAplacement?5delete?$FL?$FN?5closure?8?$AA@ 1006cb14     LIBCMTD:undname.obj
 0002:0000fb34       ??_C@_0BL@CNOONJFP@?$GAplacement?5delete?5closure?8?$AA@ 1006cb34     LIBCMTD:undname.obj
 0002:0000fb50       ??_C@_0P@HJKNJFNN@?$GAomni?5callsig?8?$AA@ 1006cb50     LIBCMTD:undname.obj
 0002:0000fb60       ??_C@_09LBNFPBCA@?5delete?$FL?$FN?$AA@ 1006cb60     LIBCMTD:undname.obj
 0002:0000fb6c       ??_C@_06FHBGPFGH@?5new?$FL?$FN?$AA@ 1006cb6c     LIBCMTD:undname.obj
 0002:0000fb74       ??_C@_0CE@IIHCMGGL@?$GAlocal?5vftable?5constructor?5closu@ 1006cb74     LIBCMTD:undname.obj
 0002:0000fb98       ??_C@_0BA@KKLDJDLB@?$GAlocal?5vftable?8?$AA@ 1006cb98     LIBCMTD:undname.obj
 0002:0000fba8       ??_C@_05KHLCHHI@?$GARTTI?$AA@ 1006cba8     LIBCMTD:undname.obj
 0002:0000fbb0       ??_C@_03KLGMFNMG@?$GAEH?$AA@ 1006cbb0     LIBCMTD:undname.obj
 0002:0000fbb4       ??_C@_0BA@KBCDOMBN@?$GAudt?5returning?8?$AA@ 1006cbb4     LIBCMTD:undname.obj
 0002:0000fbc4       ??_C@_0BL@LLKPOHJI@?$GAcopy?5constructor?5closure?8?$AA@ 1006cbc4     LIBCMTD:undname.obj
 0002:0000fbe0       ??_C@_0CH@OOJPLCPH@?$GAeh?5vector?5vbase?5constructor?5ite@ 1006cbe0     LIBCMTD:undname.obj
 0002:0000fc08       ??_C@_0CA@GCEOPDGL@?$GAeh?5vector?5destructor?5iterator?8?$AA@ 1006cc08     LIBCMTD:undname.obj
 0002:0000fc28       ??_C@_0CB@JONCMFFK@?$GAeh?5vector?5constructor?5iterator?8@ 1006cc28     LIBCMTD:undname.obj
 0002:0000fc4c       ??_C@_0BL@NILFHHPC@?$GAvirtual?5displacement?5map?8?$AA@ 1006cc4c     LIBCMTD:undname.obj
 0002:0000fc68       ??_C@_0CE@IKBNEHA@?$GAvector?5vbase?5constructor?5iterat@ 1006cc68     LIBCMTD:undname.obj
 0002:0000fc8c       ??_C@_0BN@LFPFMEDL@?$GAvector?5destructor?5iterator?8?$AA@ 1006cc8c     LIBCMTD:undname.obj
 0002:0000fcac       ??_C@_0BO@PFGOCPJJ@?$GAvector?5constructor?5iterator?8?$AA@ 1006ccac     LIBCMTD:undname.obj
 0002:0000fccc       ??_C@_0BN@IMDCHIKM@?$GAscalar?5deleting?5destructor?8?$AA@ 1006cccc     LIBCMTD:undname.obj
 0002:0000fcec       ??_C@_0BO@OBMKPJIG@?$GAdefault?5constructor?5closure?8?$AA@ 1006ccec     LIBCMTD:undname.obj
 0002:0000fd0c       ??_C@_0BN@DEGPLNFK@?$GAvector?5deleting?5destructor?8?$AA@ 1006cd0c     LIBCMTD:undname.obj
 0002:0000fd2c       ??_C@_0BD@JDLKDPAB@?$GAvbase?5destructor?8?$AA@ 1006cd2c     LIBCMTD:undname.obj
 0002:0000fd40       ??_C@_08OBABFOLI@?$GAstring?8?$AA@ 1006cd40     LIBCMTD:undname.obj
 0002:0000fd4c       ??_C@_0BF@KDPPACIK@?$GAlocal?5static?5guard?8?$AA@ 1006cd4c     LIBCMTD:undname.obj
 0002:0000fd64       ??_C@_08LLFFHHDJ@?$GAtypeof?8?$AA@ 1006cd64     LIBCMTD:undname.obj
 0002:0000fd70       ??_C@_07FEEIOKP@?$GAvcall?8?$AA@ 1006cd70     LIBCMTD:undname.obj
 0002:0000fd78       ??_C@_09BLBHBJP@?$GAvbtable?8?$AA@ 1006cd78     LIBCMTD:undname.obj
 0002:0000fd84       ??_C@_09IFPLHPGF@?$GAvftable?8?$AA@ 1006cd84     LIBCMTD:undname.obj
 0002:0000fd90       ??_C@_02MHEGNOJ@?$FO?$DN?$AA@ 1006cd90     LIBCMTD:undname.obj
 0002:0000fd94       ??_C@_02DHLNPPGH@?$HM?$DN?$AA@ 1006cd94     LIBCMTD:undname.obj
 0002:0000fd98       ??_C@_02FGJGFEAB@?$CG?$DN?$AA@ 1006cd98     LIBCMTD:undname.obj
 0002:0000fd9c       ??_C@_03CDNPDDLA@?$DM?$DM?$DN?$AA@ 1006cd9c     LIBCMTD:undname.obj
 0002:0000fda0       ??_C@_03IKFCCPFF@?$DO?$DO?$DN?$AA@ 1006cda0     LIBCMTD:undname.obj
 0002:0000fda4       ??_C@_02FENAOKFI@?$CF?$DN?$AA@ 1006cda4     LIBCMTD:undname.obj
 0002:0000fda8       ??_C@_02FJEHGPIO@?1?$DN?$AA@ 1006cda8     LIBCMTD:undname.obj
 0002:0000fdac       ??_C@_02FKMDLLOA@?9?$DN?$AA@ 1006cdac     LIBCMTD:undname.obj
 0002:0000fdb0       ??_C@_02FOEOMHFC@?$CL?$DN?$AA@ 1006cdb0     LIBCMTD:undname.obj
 0002:0000fdb4       ??_C@_02FPIMKNGF@?$CK?$DN?$AA@ 1006cdb4     LIBCMTD:undname.obj
 0002:0000fdb8       ??_C@_02NONPIBCD@?$HM?$HM?$AA@ 1006cdb8     LIBCMTD:undname.obj
 0002:0000fdbc       ??_C@_02PPKAJPJL@?$CG?$CG?$AA@ 1006cdbc     LIBCMTD:undname.obj
 0002:0000fdc0       ??_C@_01DNKMNLPK@?$HM?$AA@ 1006cdc0     LIBCMTD:undname.obj
 0002:0000fdc4       ??_C@_01JKBOJNNK@?$FO?$AA@ 1006cdc4     LIBCMTD:undname.obj
 0002:0000fdc8       ??_C@_01PJKLJHI@?$HO?$AA@  1006cdc8     LIBCMTD:undname.obj
 0002:0000fdcc       ??_C@_02HCKGKOFO@?$CI?$CJ?$AA@ 1006cdcc     LIBCMTD:undname.obj
 0002:0000fdd0       ??_C@_01IHBHIGKO@?0?$AA@   1006cdd0     LIBCMTD:undname.obj
 0002:0000fdd4       ??_C@_02EEKDKGMJ@?$DO?$DN?$AA@ 1006cdd4     LIBCMTD:undname.obj
 0002:0000fdd8       ??_C@_01PPODPGHN@?$DO?$AA@ 1006cdd8     LIBCMTD:undname.obj
 0002:0000fddc       ??_C@_02EHCHHCKH@?$DM?$DN?$AA@ 1006cddc     LIBCMTD:undname.obj
 0002:0000fde0       ??_C@_01MNNFJEPP@?$DM?$AA@ 1006cde0     LIBCMTD:undname.obj
 0002:0000fde4       ??_C@_01FGNFDNOH@?$CF?$AA@ 1006cde4     LIBCMTD:undname.obj
 0002:0000fde8       ??_C@_01KMDKNFGN@?1?$AA@   1006cde8     LIBCMTD:undname.obj
 0002:0000fdec       ??_C@_03MNHNFDLC@?9?$DO?$CK?$AA@ 1006cdec     LIBCMTD:undname.obj
 0002:0000fdf0       ??_C@_01HNPIGOCE@?$CG?$AA@ 1006cdf0     LIBCMTD:undname.obj
 0002:0000fdf4       ??_C@_01MIFGBAGJ@?$CL?$AA@ 1006cdf4     LIBCMTD:undname.obj
 0002:0000fdf8       ??_C@_01JOAMLHOP@?9?$AA@   1006cdf8     LIBCMTD:undname.obj
 0002:0000fdfc       ??_C@_02BAABKJLB@?9?9?$AA@ 1006cdfc     LIBCMTD:undname.obj
 0002:0000fe00       ??_C@_02ECNGHCIF@?$CL?$CL?$AA@ 1006ce00     LIBCMTD:undname.obj
 0002:0000fe04       ??_C@_01NBENCBCI@?$CK?$AA@ 1006ce04     LIBCMTD:undname.obj
 0002:0000fe08       ??_C@_02HBOOOICD@?9?$DO?$AA@ 1006ce08     LIBCMTD:undname.obj
 0002:0000fe0c       ??_C@_08LHJFAFGD@operator?$AA@ 1006ce0c     LIBCMTD:undname.obj
 0002:0000fe18       ??_C@_02GPECMEKF@?$FL?$FN?$AA@ 1006ce18     LIBCMTD:undname.obj
 0002:0000fe1c       ??_C@_02FDNJECIE@?$CB?$DN?$AA@ 1006ce1c     LIBCMTD:undname.obj
 0002:0000fe20       ??_C@_02EGOFBIJA@?$DN?$DN?$AA@ 1006ce20     LIBCMTD:undname.obj
 0002:0000fe24       ??_C@_01DCLJPIOD@?$CB?$AA@ 1006ce24     LIBCMTD:undname.obj
 0002:0000fe28       ??_C@_02FODMEDOG@?$DM?$DM?$AA@ 1006ce28     LIBCMTD:undname.obj
 0002:0000fe2c       ??_C@_02GPIOPFAK@?$DO?$DO?$AA@ 1006ce2c     LIBCMTD:undname.obj
 0002:0000fe30       ??_C@_07FPCDHGMM@?5delete?$AA@ 1006ce30     LIBCMTD:undname.obj
 0002:0000fe38       ??_C@_04NIHEBCM@?5new?$AA@ 1006ce38     LIBCMTD:undname.obj
 0002:0000fe40       ??_C@_0M@GFIIJFMG@__unaligned?$AA@ 1006ce40     LIBCMTD:undname.obj
 0002:0000fe4c       ??_C@_0L@PILCLIHE@__restrict?$AA@ 1006ce4c     LIBCMTD:undname.obj
 0002:0000fe58       ??_C@_07JOMMBBKO@__ptr64?$AA@ 1006ce58     LIBCMTD:undname.obj
 0002:0000fe60       ??_C@_09HIJEGCPM@__clrcall?$AA@ 1006ce60     LIBCMTD:undname.obj
 0002:0000fe6c       ??_C@_0L@JMKHOMEK@__fastcall?$AA@ 1006ce6c     LIBCMTD:undname.obj
 0002:0000fe78       ??_C@_0L@NPHFGOKO@__thiscall?$AA@ 1006ce78     LIBCMTD:undname.obj
 0002:0000fe84       ??_C@_09IFJBGAPI@__stdcall?$AA@ 1006ce84     LIBCMTD:undname.obj
 0002:0000fe90       ??_C@_08GHMPAG@__pascal?$AA@ 1006ce90     LIBCMTD:undname.obj
 0002:0000fe9c       ??_C@_07KOLFKCDI@__cdecl?$AA@ 1006ce9c     LIBCMTD:undname.obj
 0002:0000fea4       ??_C@_08EHJDFFNH@__based?$CI?$AA@ 1006cea4     LIBCMTD:undname.obj
 0002:00010030       ??_C@_04HEJADOOB@CV?3?5?$AA@ 1006d030     LIBCMTD:undname.obj
 0002:00010038       ??_C@_02MOLJINC@?3?3?$AA@  1006d038     LIBCMTD:undname.obj
 0002:0001003c       ??_C@_01GEODFPGF@?8?$AA@   1006d03c     LIBCMTD:undname.obj
 0002:00010040       ??_C@_01NLNLIGKH@?$GA?$AA@ 1006d040     LIBCMTD:undname.obj
 0002:00010044       ??_C@_0O@KHGCOMHP@generic?9type?9?$AA@ 1006d044     LIBCMTD:undname.obj
 0002:00010054       ??_C@_0BE@JAEOCHPE@template?9parameter?9?$AA@ 1006d054     LIBCMTD:undname.obj
 0002:00010068       ??_C@_02OHHJMEON@?8?8?$AA@ 1006d068     LIBCMTD:undname.obj
 0002:0001006c       ??_C@_0BG@JNJLAMPM@?$GAanonymous?5namespace?8?$AA@ 1006d06c     LIBCMTD:undname.obj
 0002:00010084       ??_C@_0BN@IBLMMFAP@?$GAnon?9type?9template?9parameter?$AA@ 1006d084     LIBCMTD:undname.obj
 0002:000100a4       ??_C@_0BE@EODMJLIF@?$GAtemplate?9parameter?$AA@ 1006d0a4     LIBCMTD:undname.obj
 0002:000100b8       ??_C@_04GKJNKENE@void?$AA@ 1006d0b8     LIBCMTD:undname.obj
 0002:000100c0       ??_C@_04HIBGFPH@NULL?$AA@  1006d0c0     LIBCMTD:undname.obj
 0002:000100c8       ??_C@_0M@DHNBOJMP@extern?5?$CCC?$CC?5?$AA@ 1006d0c8     LIBCMTD:undname.obj
 0002:000100d4       ??_C@_08KJLFOPNE@?$FLthunk?$FN?3?$AA@ 1006d0d4     LIBCMTD:undname.obj
 0002:000100e0       ??_C@_08GPDDCMKI@public?3?5?$AA@ 1006d0e0     LIBCMTD:undname.obj
 0002:000100ec       ??_C@_0M@GAIFPFIP@protected?3?5?$AA@ 1006d0ec     LIBCMTD:undname.obj
 0002:000100f8       ??_C@_09LAPHOOG@private?3?5?$AA@ 1006d0f8     LIBCMTD:undname.obj
 0002:00010104       ??_C@_08NIEOINHE@virtual?5?$AA@ 1006d104     LIBCMTD:undname.obj
 0002:00010110       ??_C@_07PGOEDBHP@static?5?$AA@ 1006d110     LIBCMTD:undname.obj
 0002:00010118       ??_C@_0DA@HGFJFBBE@?$GAtemplate?5static?5data?5member?5des@ 1006d118     LIBCMTD:undname.obj
 0002:00010148       ??_C@_0DB@ILEFOCIJ@?$GAtemplate?5static?5data?5member?5con@ 1006d148     LIBCMTD:undname.obj
 0002:0001017c       ??_C@_0CB@KJDOOODE@?$GAlocal?5static?5destructor?5helper?8@ 1006d17c     LIBCMTD:undname.obj
 0002:000101a0       ??_C@_0L@HNGCOGAE@?$GAadjustor?$HL?$AA@ 1006d1a0     LIBCMTD:undname.obj
 0002:000101ac       ??_C@_0L@GHPFDFH@?$GAvtordisp?$HL?$AA@ 1006d1ac     LIBCMTD:undname.obj
 0002:000101b8       ??_C@_0N@CBHHHENL@?$GAvtordispex?$HL?$AA@ 1006d1b8     LIBCMTD:undname.obj
 0002:000101c8       ??_C@_01CLKCMJKC@?5?$AA@   1006d1c8     LIBCMTD:undname.obj
 0002:000101cc       ??_C@_02IGFCGPIL@?$HN?8?$AA@ 1006d1cc     LIBCMTD:undname.obj
 0002:000101d0       ??_C@_03OPGICMGF@?$HN?8?5?$AA@ 1006d1d0     LIBCMTD:undname.obj
 0002:000101d4       ??_C@_02KCKGHPCA@?$CJ?5?$AA@ 1006d1d4     LIBCMTD:undname.obj
 0002:000101d8       ??_C@_05BEFAKPML@void?5?$AA@ 1006d1d8     LIBCMTD:undname.obj
 0002:000101e0       ??_C@_08PABEKFH@volatile?$AA@ 1006d1e0     LIBCMTD:undname.obj
 0002:000101ec       ??_C@_0M@ELJOJFFH@?0?$DMellipsis?$DO?$AA@ 1006d1ec     LIBCMTD:undname.obj
 0002:000101f8       ??_C@_04EENFHACM@?0?4?4?4?$AA@ 1006d1f8     LIBCMTD:undname.obj
 0002:00010200       ??_C@_0L@EGPHHEKN@?$DMellipsis?$DO?$AA@ 1006d200     LIBCMTD:undname.obj
 0002:0001020c       ??_C@_07HDJPLPEK@?5throw?$CI?$AA@ 1006d20c     LIBCMTD:undname.obj
 0002:00010214       ??_C@_09EFNPDFFP@?5volatile?$AA@ 1006d214     LIBCMTD:undname.obj
 0002:00010220       ??_C@_05BNCCCJPP@const?$AA@ 1006d220     LIBCMTD:undname.obj
 0002:00010228       ??_C@_07EDHNAJHC@signed?5?$AA@ 1006d228     LIBCMTD:undname.obj
 0002:00010230       ??_C@_09EBBEKKIH@unsigned?5?$AA@ 1006d230     LIBCMTD:undname.obj
 0002:0001023c       ??_C@_07NFANNNEC@UNKNOWN?$AA@ 1006d23c     LIBCMTD:undname.obj
 0002:00010244       ??_C@_06GCICPBLB@__w64?5?$AA@ 1006d244     LIBCMTD:undname.obj
 0002:0001024c       ??_C@_07CLGGIAMF@wchar_t?$AA@ 1006d24c     LIBCMTD:undname.obj
 0002:00010254       ??_C@_08GAHOLHEO@__int128?$AA@ 1006d254     LIBCMTD:undname.obj
 0002:00010260       ??_C@_07LFCOJCAC@__int64?$AA@ 1006d260     LIBCMTD:undname.obj
 0002:00010268       ??_C@_07OFLPPHGP@__int32?$AA@ 1006d268     LIBCMTD:undname.obj
 0002:00010270       ??_C@_07ICFHOGAF@__int16?$AA@ 1006d270     LIBCMTD:undname.obj
 0002:00010278       ??_C@_06EBGKOKIG@__int8?$AA@ 1006d278     LIBCMTD:undname.obj
 0002:00010280       ??_C@_04DDKJGDCM@bool?$AA@ 1006d280     LIBCMTD:undname.obj
 0002:00010288       ??_C@_06BNJCAIGJ@double?$AA@ 1006d288     LIBCMTD:undname.obj
 0002:00010290       ??_C@_05CJIMAING@long?5?$AA@ 1006d290     LIBCMTD:undname.obj
 0002:00010298       ??_C@_05KNFBNCOH@float?$AA@ 1006d298     LIBCMTD:undname.obj
 0002:000102a0       ??_C@_04GOKPGOLB@long?$AA@ 1006d2a0     LIBCMTD:undname.obj
 0002:000102a8       ??_C@_03JBIPMCLC@int?$AA@  1006d2a8     LIBCMTD:undname.obj
 0002:000102ac       ??_C@_05BFKKPKCG@short?$AA@ 1006d2ac     LIBCMTD:undname.obj
 0002:000102b4       ??_C@_04ENMBGAPA@char?$AA@ 1006d2b4     LIBCMTD:undname.obj
 0002:000102bc       ??_C@_05LJGMCFOG@enum?5?$AA@ 1006d2bc     LIBCMTD:undname.obj
 0002:000102c4       ??_C@_0N@DLIEFKNA@cointerface?5?$AA@ 1006d2c4     LIBCMTD:undname.obj
 0002:000102d4       ??_C@_08KOFANOFK@coclass?5?$AA@ 1006d2d4     LIBCMTD:undname.obj
 0002:000102e0       ??_C@_06LJBABKPM@class?5?$AA@ 1006d2e0     LIBCMTD:undname.obj
 0002:000102e8       ??_C@_07DIBCDNGL@struct?5?$AA@ 1006d2e8     LIBCMTD:undname.obj
 0002:000102f0       ??_C@_06MOJHIBMG@union?5?$AA@ 1006d2f0     LIBCMTD:undname.obj
 0002:000102f8       ??_C@_0P@GCIFDJCJ@?$GAunknown?5ecsu?8?$AA@ 1006d2f8     LIBCMTD:undname.obj
 0002:00010308       ??_C@_04LAHKHJMA@int?5?$AA@ 1006d308     LIBCMTD:undname.obj
 0002:00010310       ??_C@_06EHJMALKF@short?5?$AA@ 1006d310     LIBCMTD:undname.obj
 0002:00010318       ??_C@_05CIHEBHNO@char?5?$AA@ 1006d318     LIBCMTD:undname.obj
 0002:00010320       ??_C@_06LIJLOJAG@const?5?$AA@ 1006d320     LIBCMTD:undname.obj
 0002:00010328       ??_C@_09GAIEOBLP@volatile?5?$AA@ 1006d328     LIBCMTD:undname.obj
 0002:00010334       ??_C@_0O@GKABPPIF@cli?3?3pin_ptr?$DM?$AA@ 1006d334     LIBCMTD:undname.obj
 0002:00010344       ??_C@_0M@EALIELKG@cli?3?3array?$DM?$AA@ 1006d344     LIBCMTD:undname.obj
 0002:00010350       ??_C@_02GOGNNPBN@?$CJ?$FL?$AA@ 1006d350     LIBCMTD:undname.obj
 0002:00010354       ??_C@_06EEGAIFAK@?$HLflat?$HN?$AA@ 1006d354     LIBCMTD:undname.obj
 0002:0001035c       ??_C@_02MDINNEEG@s?5?$AA@  1006d35c     LIBCMTD:undname.obj
 0002:00010360       ??_C@_05JIBOFOHK@?$HLfor?5?$AA@ 1006d360     LIBCMTD:undname.obj
 0002:0001036c       ??_7DNameNode@@6B@         1006d36c     LIBCMTD:undname.obj
 0002:0001037c       ??_7charNode@@6B@          1006d37c     LIBCMTD:undname.obj
 0002:0001038c       ??_7pcharNode@@6B@         1006d38c     LIBCMTD:undname.obj
 0002:0001039c       ??_7pDNameNode@@6B@        1006d39c     LIBCMTD:undname.obj
 0002:000103ac       ??_7DNameStatusNode@@6B@   1006d3ac     LIBCMTD:undname.obj
 0002:000103b8       ??_C@_04OKOHEJBO@?5?$DP?$DP?5?$AA@ 1006d3b8     LIBCMTD:undname.obj
 0002:000103c0       ??_C@_1CA@LFDHAMEM@?$AA_?$AAs?$AAe?$AAt?$AA_?$AAe?$AAr?$AAr?$AAo?$AAr?$AA_?$AAm?$AAo?$AAd?$AAe?$AA?$AA@ 1006d3c0     LIBCMTD:errmode.obj
 0002:000103e0       ??_C@_1BE@FFANBHLE@?$AAe?$AAr?$AAr?$AAm?$AAo?$AAd?$AAe?$AA?4?$AAc?$AA?$AA@ 1006d3e0     LIBCMTD:errmode.obj
 0002:000103f4       ??_C@_1DE@BCNCAIK@?$AA?$CI?$AA?$CC?$AAI?$AAn?$AAv?$AAa?$AAl?$AAi?$AAd?$AA?5?$AAe?$AAr?$AAr?$AAo?$AAr?$AA_?$AAm?$AAo?$AAd?$AAe?$AA?$CC?$AA?0?$AA?5?$AA0?$AA?$CJ?$AA?$AA@ 1006d3f4     LIBCMTD:errmode.obj
 0002:00010428       ??_C@_1BE@NDMJHJJG@?$AAs?$AAt?$AAr?$AAn?$AAc?$AAp?$AAy?$AA_?$AAs?$AA?$AA@ 1006d428     LIBCMTD:strncpy_s.obj
 0002:00010440       ??_C@_1GC@BCDEFAEE@?$AAF?$AA?3?$AA?2?$AAR?$AAT?$AAM?$AA?2?$AAv?$AAc?$AAt?$AAo?$AAo?$AAl?$AAs?$AA?2?$AAc?$AAr?$AAt?$AA_?$AAb?$AAl?$AAd?$AA?2?$AAS?$AAE?$AAL?$AAF?$AA_?$AAX?$AA8?$AA6?$AA?2@ 1006d440     LIBCMTD:w_loc.obj
 0002:000104a8       ??_C@_1FE@KNPCCODH@?$AA?$CI?$AA?$CC?$AAC?$AAo?$AAr?$AAr?$AAu?$AAp?$AAt?$AAe?$AAd?$AA?5?$AAp?$AAo?$AAi?$AAn?$AAt?$AAe?$AAr?$AA?5?$AAp?$AAa?$AAs?$AAs?$AAe?$AAd?$AA?5?$AAt?$AAo?$AA?5?$AA_?$AAf@ 1006d4a8     LIBCMTD:w_loc.obj
 0002:000104fc       ??_C@_13NOLLCAOD@?$AA?$AA?$AA?$AA@ 1006d4fc     LIBCMTD:a_map.obj
 0002:00010500       ___newctype                1006d500     LIBCMTD:ctype.obj
 0002:00010800       __wctype                   1006d800     LIBCMTD:ctype.obj
 0002:00010a08       ___newclmap                1006da08     LIBCMTD:ctype.obj
 0002:00010b88       ___newcumap                1006db88     LIBCMTD:ctype.obj
 0002:00010d08       ??_C@_1BG@HHBAFOPB@?$AAi?$AAn?$AAi?$AAt?$AAt?$AAi?$AAm?$AAe?$AA?4?$AAc?$AA?$AA@ 1006dd08     LIBCMTD:inittime.obj
 0002:00010d20       ??_C@_1EE@FDHCFDHN@?$AAp?$AAl?$AAo?$AAc?$AAi?$AA?9?$AA?$DO?$AAl?$AAc?$AA_?$AAt?$AAi?$AAm?$AAe?$AA_?$AAc?$AAu?$AAr?$AAr?$AA?9?$AA?$DO?$AAr?$AAe?$AAf?$AAc?$AAo?$AAu?$AAn?$AAt?$AA?5?$AA?$DO?$AA?5@ 1006dd20     LIBCMTD:inittime.obj
 0002:00010d64       ??_C@_0L@IOJADHBB@inittime?4c?$AA@ 1006dd64     LIBCMTD:inittime.obj
 0002:00010d70       ??_C@_1BE@EAFFGEEO@?$AAi?$AAn?$AAi?$AAt?$AAn?$AAu?$AAm?$AA?4?$AAc?$AA?$AA@ 1006dd70     LIBCMTD:initnum.obj
 0002:00010d84       ??_C@_1DM@IFKAINNE@?$AAp?$AAl?$AAo?$AAc?$AAi?$AA?9?$AA?$DO?$AAl?$AAc?$AAo?$AAn?$AAv?$AA_?$AAn?$AAu?$AAm?$AA_?$AAr?$AAe?$AAf?$AAc?$AAo?$AAu?$AAn?$AAt?$AA?5?$AA?$DO?$AA?5?$AA0?$AA?$AA@ 1006dd84     LIBCMTD:initnum.obj
 0002:00010dc0       ??_C@_09MECGNAGI@initnum?4c?$AA@ 1006ddc0     LIBCMTD:initnum.obj
 0002:00010dcc       ??_C@_1BE@IJMIKAHM@?$AAi?$AAn?$AAi?$AAt?$AAm?$AAo?$AAn?$AA?4?$AAc?$AA?$AA@ 1006ddcc     LIBCMTD:initmon.obj
 0002:00010de0       ??_C@_1DM@GKAPAMDO@?$AAp?$AAl?$AAo?$AAc?$AAi?$AA?9?$AA?$DO?$AAl?$AAc?$AAo?$AAn?$AAv?$AA_?$AAm?$AAo?$AAn?$AA_?$AAr?$AAe?$AAf?$AAc?$AAo?$AAu?$AAn?$AAt?$AA?5?$AA?$DO?$AA?5?$AA0?$AA?$AA@ 1006dde0     LIBCMTD:initmon.obj
 0002:00010e1c       ??_C@_09HKFHICAL@initmon?4c?$AA@ 1006de1c     LIBCMTD:initmon.obj
 0002:00010e28       ??_C@_1DG@NMBGBDM@?$AAp?$AAl?$AAo?$AAc?$AAi?$AA?9?$AA?$DO?$AAc?$AAt?$AAy?$AAp?$AAe?$AA1?$AA_?$AAr?$AAe?$AAf?$AAc?$AAo?$AAu?$AAn?$AAt?$AA?5?$AA?$DO?$AA?5?$AA0?$AA?$AA@ 1006de28     LIBCMTD:initctyp.obj
 0002:00010e60       ??_C@_1BG@PMMGDKJC@?$AAi?$AAn?$AAi?$AAt?$AAc?$AAt?$AAy?$AAp?$AA?4?$AAc?$AA?$AA@ 1006de60     LIBCMTD:initctyp.obj
 0002:00010e78       ??_C@_0L@GBAGBCPL@initctyp?4c?$AA@ 1006de78     LIBCMTD:initctyp.obj
 0002:00010e84       ??_C@_08JCCMCCIL@HH?3mm?3ss?$AA@ 1006de84     LIBCMTD:strftime.obj
 0002:00010e90       ??_C@_0BE@CKGJFCPC@dddd?0?5MMMM?5dd?0?5yyyy?$AA@ 1006de90     LIBCMTD:strftime.obj
 0002:00010ea4       ??_C@_08BPBNCDIB@MM?1dd?1yy?$AA@ 1006dea4     LIBCMTD:strftime.obj
 0002:00010eb0       ??_C@_02CJNFDJBF@PM?$AA@   1006deb0     LIBCMTD:strftime.obj
 0002:00010eb4       ??_C@_02DEDBPAFC@AM?$AA@   1006deb4     LIBCMTD:strftime.obj
 0002:00010eb8       ??_C@_08EDHMEBNP@December?$AA@ 1006deb8     LIBCMTD:strftime.obj
 0002:00010ec4       ??_C@_08HCHEGEOA@November?$AA@ 1006dec4     LIBCMTD:strftime.obj
 0002:00010ed0       ??_C@_07JJNFCEND@October?$AA@ 1006ded0     LIBCMTD:strftime.obj
 0002:00010ed8       ??_C@_09BHHEALKD@September?$AA@ 1006ded8     LIBCMTD:strftime.obj
 0002:00010ee4       ??_C@_06LBBHFDDG@August?$AA@ 1006dee4     LIBCMTD:strftime.obj
 0002:00010eec       ??_C@_04MIEPOIFP@July?$AA@ 1006deec     LIBCMTD:strftime.obj
 0002:00010ef4       ??_C@_04CNLMGBGM@June?$AA@ 1006def4     LIBCMTD:strftime.obj
 0002:00010efc       ??_C@_05DMJDNLEJ@April?$AA@ 1006defc     LIBCMTD:strftime.obj
 0002:00010f04       ??_C@_05HPCKOFNC@March?$AA@ 1006df04     LIBCMTD:strftime.obj
 0002:00010f0c       ??_C@_08GNJGEPFN@February?$AA@ 1006df0c     LIBCMTD:strftime.obj
 0002:00010f18       ??_C@_07CGJPFGJA@January?$AA@ 1006df18     LIBCMTD:strftime.obj
 0002:00010f20       ??_C@_03MKABNOCG@Dec?$AA@  1006df20     LIBCMTD:strftime.obj
 0002:00010f24       ??_C@_03JPJOFNIA@Nov?$AA@  1006df24     LIBCMTD:strftime.obj
 0002:00010f28       ??_C@_03BMAOKBAD@Oct?$AA@  1006df28     LIBCMTD:strftime.obj
 0002:00010f2c       ??_C@_03GGCAPAJC@Sep?$AA@  1006df2c     LIBCMTD:strftime.obj
 0002:00010f30       ??_C@_03IFJFEIGA@Aug?$AA@  1006df30     LIBCMTD:strftime.obj
 0002:00010f34       ??_C@_03LBGABGKK@Jul?$AA@  1006df34     LIBCMTD:strftime.obj
 0002:00010f38       ??_C@_03IDFGHECI@Jun?$AA@  1006df38     LIBCMTD:strftime.obj
 0002:00010f3c       ??_C@_03CNMDKL@May?$AA@    1006df3c     LIBCMTD:strftime.obj
 0002:00010f40       ??_C@_03LEOLGMJP@Apr?$AA@  1006df40     LIBCMTD:strftime.obj
 0002:00010f44       ??_C@_03ODNJBKGA@Mar?$AA@  1006df44     LIBCMTD:strftime.obj
 0002:00010f48       ??_C@_03HJBDCHOM@Feb?$AA@  1006df48     LIBCMTD:strftime.obj
 0002:00010f4c       ??_C@_03JIHJHPIE@Jan?$AA@  1006df4c     LIBCMTD:strftime.obj
 0002:00010f50       ??_C@_08INBOOONO@Saturday?$AA@ 1006df50     LIBCMTD:strftime.obj
 0002:00010f5c       ??_C@_06JECMNKMI@Friday?$AA@ 1006df5c     LIBCMTD:strftime.obj
 0002:00010f64       ??_C@_08HACCIKIA@Thursday?$AA@ 1006df64     LIBCMTD:strftime.obj
 0002:00010f70       ??_C@_09DLIGFAKA@Wednesday?$AA@ 1006df70     LIBCMTD:strftime.obj
 0002:00010f7c       ??_C@_07BAAGCFCM@Tuesday?$AA@ 1006df7c     LIBCMTD:strftime.obj
 0002:00010f84       ??_C@_06JLEDEDGH@Monday?$AA@ 1006df84     LIBCMTD:strftime.obj
 0002:00010f8c       ??_C@_06OOPIFAJ@Sunday?$AA@ 1006df8c     LIBCMTD:strftime.obj
 0002:00010f94       ??_C@_03FEFJNEK@Sat?$AA@   1006df94     LIBCMTD:strftime.obj
 0002:00010f98       ??_C@_03IDIOELNC@Fri?$AA@  1006df98     LIBCMTD:strftime.obj
 0002:00010f9c       ??_C@_03IOFIKPDN@Thu?$AA@  1006df9c     LIBCMTD:strftime.obj
 0002:00010fa0       ??_C@_03MHOMLAJA@Wed?$AA@  1006dfa0     LIBCMTD:strftime.obj
 0002:00010fa4       ??_C@_03NAGEINEP@Tue?$AA@  1006dfa4     LIBCMTD:strftime.obj
 0002:00010fa8       ??_C@_03PDAGKDH@Mon?$AA@   1006dfa8     LIBCMTD:strftime.obj
 0002:00010fac       ??_C@_03KOEHGMDN@Sun?$AA@  1006dfac     LIBCMTD:strftime.obj
 0002:00010fb0       ??_C@_1FM@LPEPDBJF@?$AAs?$AAt?$AAr?$AAc?$AAp?$AAy?$AA_?$AAs?$AA?$CI?$AAs?$AA?0?$AA?5?$AA?$CI?$AAl?$AAe?$AAn?$AA?5?$AA?$CL?$AA?5?$AA1?$AA?$CJ?$AA?5?$AA?9?$AA?5?$AA?$CI?$AAs?$AA?5?$AA?9?$AA?5?$AAp?$AA?$CJ?$AA?0@ 1006dfb0     LIBCMTD:strftime.obj
 0002:00011010       ??_C@_1GG@NAGHPCAA@?$AAs?$AAt?$AAr?$AAc?$AAp?$AAy?$AA_?$AAs?$AA?$CI?$AAs?$AA?0?$AA?5?$AA?$CI?$AAl?$AAe?$AAn?$AA?5?$AA?$CL?$AA?5?$AA1?$AA?$CJ?$AA?5?$AA?9?$AA?5?$AA?$CI?$AAs?$AA?5?$AA?9?$AA?5?$AAp?$AA?$CJ?$AA?0@ 1006e010     LIBCMTD:strftime.obj
 0002:00011078       ??_C@_1BG@LGACIFJI@?$AA_?$AAG?$AAe?$AAt?$AAd?$AAa?$AAy?$AAs?$AA_?$AAl?$AA?$AA@ 1006e078     LIBCMTD:strftime.obj
 0002:00011090       ??_C@_1BG@EMNEMEKA@?$AAs?$AAt?$AAr?$AAf?$AAt?$AAi?$AAm?$AAe?$AA?4?$AAc?$AA?$AA@ 1006e090     LIBCMTD:strftime.obj
 0002:000110a8       ??_C@_0L@OCEOFAIF@strftime?4c?$AA@ 1006e0a8     LIBCMTD:strftime.obj
 0002:000110b8       ??_C@_1FO@IFFKPIEL@?$AAs?$AAt?$AAr?$AAc?$AAp?$AAy?$AA_?$AAs?$AA?$CI?$AAs?$AA?0?$AA?5?$AA?$CI?$AAl?$AAe?$AAn?$AA?5?$AA?$CL?$AA?5?$AA1?$AA?$CJ?$AA?5?$AA?9?$AA?5?$AA?$CI?$AAs?$AA?5?$AA?9?$AA?5?$AAp?$AA?$CJ?$AA?0@ 1006e0b8     LIBCMTD:strftime.obj
 0002:00011118       ??_C@_1GI@LNJDDNLK@?$AAs?$AAt?$AAr?$AAc?$AAp?$AAy?$AA_?$AAs?$AA?$CI?$AAs?$AA?0?$AA?5?$AA?$CI?$AAl?$AAe?$AAn?$AA?5?$AA?$CL?$AA?5?$AA1?$AA?$CJ?$AA?5?$AA?9?$AA?5?$AA?$CI?$AAs?$AA?5?$AA?9?$AA?5?$AAp?$AA?$CJ?$AA?0@ 1006e118     LIBCMTD:strftime.obj
 0002:00011180       ??_C@_1BK@IDMELNCB@?$AA_?$AAG?$AAe?$AAt?$AAm?$AAo?$AAn?$AAt?$AAh?$AAs?$AA_?$AAl?$AA?$AA@ 1006e180     LIBCMTD:strftime.obj
 0002:000111a0       ??_C@_1FG@CJBIADLJ@?$AAs?$AAt?$AAr?$AAc?$AAp?$AAy?$AA_?$AAs?$AA?$CI?$AAs?$AA?0?$AA?5?$AAl?$AAe?$AAn?$AA?5?$AA?9?$AA?5?$AA?$CI?$AAs?$AA?5?$AA?9?$AA?5?$AAp?$AA?$CJ?$AA?0?$AA?5?$AAp?$AAt?$AA?9?$AA?$DO?$AAw@ 1006e1a0     LIBCMTD:strftime.obj
 0002:000111f8       ??_C@_1FI@PPIHCJGH@?$AAs?$AAt?$AAr?$AAc?$AAp?$AAy?$AA_?$AAs?$AA?$CI?$AAs?$AA?0?$AA?5?$AAl?$AAe?$AAn?$AA?5?$AA?9?$AA?5?$AA?$CI?$AAs?$AA?5?$AA?9?$AA?5?$AAp?$AA?$CJ?$AA?0?$AA?5?$AAp?$AAt?$AA?9?$AA?$DO?$AAw@ 1006e1f8     LIBCMTD:strftime.obj
 0002:00011250       ??_C@_1FI@GDNOPCGD@?$AAs?$AAt?$AAr?$AAc?$AAp?$AAy?$AA_?$AAs?$AA?$CI?$AAs?$AA?0?$AA?5?$AAl?$AAe?$AAn?$AA?5?$AA?9?$AA?5?$AA?$CI?$AAs?$AA?5?$AA?9?$AA?5?$AAp?$AA?$CJ?$AA?0?$AA?5?$AAp?$AAt?$AA?9?$AA?$DO?$AAw@ 1006e250     LIBCMTD:strftime.obj
 0002:000112a8       ??_C@_1FA@MEHIJEIL@?$AAs?$AAt?$AAr?$AAc?$AAp?$AAy?$AA_?$AAs?$AA?$CI?$AAs?$AA?0?$AA?5?$AAl?$AAe?$AAn?$AA?5?$AA?9?$AA?5?$AA?$CI?$AAs?$AA?5?$AA?9?$AA?5?$AAp?$AA?$CJ?$AA?0?$AA?5?$AAp?$AAt?$AA?9?$AA?$DO?$AAa@ 1006e2a8     LIBCMTD:strftime.obj
 0002:000112f8       ??_C@_1FA@INCJEBF@?$AAs?$AAt?$AAr?$AAc?$AAp?$AAy?$AA_?$AAs?$AA?$CI?$AAs?$AA?0?$AA?5?$AAl?$AAe?$AAn?$AA?5?$AA?9?$AA?5?$AA?$CI?$AAs?$AA?5?$AA?9?$AA?5?$AAp?$AA?$CJ?$AA?0?$AA?5?$AAp?$AAt?$AA?9?$AA?$DO?$AAa@ 1006e2f8     LIBCMTD:strftime.obj
 0002:00011348       ??_C@_1FC@BEAPAEGE@?$AAs?$AAt?$AAr?$AAc?$AAp?$AAy?$AA_?$AAs?$AA?$CI?$AAs?$AA?0?$AA?5?$AAl?$AAe?$AAn?$AA?5?$AA?9?$AA?5?$AA?$CI?$AAs?$AA?5?$AA?9?$AA?5?$AAp?$AA?$CJ?$AA?0?$AA?5?$AAp?$AAt?$AA?9?$AA?$DO?$AAm@ 1006e348     LIBCMTD:strftime.obj
 0002:000113a0       ??_C@_1FM@CHHONFED@?$AAs?$AAt?$AAr?$AAc?$AAp?$AAy?$AA_?$AAs?$AA?$CI?$AAs?$AA?0?$AA?5?$AAl?$AAe?$AAn?$AA?5?$AA?9?$AA?5?$AA?$CI?$AAs?$AA?5?$AA?9?$AA?5?$AAp?$AA?$CJ?$AA?0?$AA?5?$AAp?$AAt?$AA?9?$AA?$DO?$AAm@ 1006e3a0     LIBCMTD:strftime.obj
 0002:00011400       ??_C@_1FA@EBHJJADL@?$AAs?$AAt?$AAr?$AAc?$AAp?$AAy?$AA_?$AAs?$AA?$CI?$AAs?$AA?0?$AA?5?$AAl?$AAe?$AAn?$AA?5?$AA?9?$AA?5?$AA?$CI?$AAs?$AA?5?$AA?9?$AA?5?$AAp?$AA?$CJ?$AA?0?$AA?5?$AAp?$AAt?$AA?9?$AA?$DO?$AAw@ 1006e400     LIBCMTD:strftime.obj
 0002:00011450       ??_C@_1FK@ODMKEFLD@?$AAs?$AAt?$AAr?$AAc?$AAp?$AAy?$AA_?$AAs?$AA?$CI?$AAs?$AA?0?$AA?5?$AAl?$AAe?$AAn?$AA?5?$AA?9?$AA?5?$AA?$CI?$AAs?$AA?5?$AA?9?$AA?5?$AAp?$AA?$CJ?$AA?0?$AA?5?$AAp?$AAt?$AA?9?$AA?$DO?$AAw@ 1006e450     LIBCMTD:strftime.obj
 0002:000114ac       ??_C@_1BK@MJNHIAGO@?$AA_?$AAG?$AAe?$AAt?$AAt?$AAn?$AAa?$AAm?$AAe?$AAs?$AA_?$AAl?$AA?$AA@ 1006e4ac     LIBCMTD:strftime.obj
 0002:000114c8       ??_C@_1M@HCOOECOK@?$AAF?$AAA?$AAL?$AAS?$AAE?$AA?$AA@ 1006e4c8     LIBCMTD:strftime.obj
 0002:000114d8       ??_C@_1HC@JGDOBCNK@?$AA?$CI?$AA?$CC?$AAI?$AAn?$AAv?$AAa?$AAl?$AAi?$AAd?$AA?5?$AAM?$AAB?$AAC?$AAS?$AA?5?$AAc?$AAh?$AAa?$AAr?$AAa?$AAc?$AAt?$AAe?$AAr?$AA?5?$AAs?$AAe?$AAq?$AAu?$AAe?$AAn?$AAc@ 1006e4d8     LIBCMTD:strftime.obj
 0002:0001154c       ??_C@_1BG@CCBNLOOI@?$AAt?$AAi?$AAm?$AAe?$AAp?$AAt?$AAr?$AA?$CB?$AA?$DN?$AA0?$AA?$AA@ 1006e54c     LIBCMTD:strftime.obj
 0002:00011564       ??_C@_1CG@MHIOFJLE@?$AA?$CI?$AA?5?$AAf?$AAo?$AAr?$AAm?$AAa?$AAt?$AA?5?$AA?$CB?$AA?$DN?$AA?5?$AAN?$AAU?$AAL?$AAL?$AA?5?$AA?$CJ?$AA?$AA@ 1006e564     LIBCMTD:strftime.obj
 0002:0001158c       ??_C@_1CC@IHEJKGMG@?$AA?$CI?$AA?5?$AAm?$AAa?$AAx?$AAs?$AAi?$AAz?$AAe?$AA?5?$AA?$CB?$AA?$DN?$AA?5?$AA0?$AA?5?$AA?$CJ?$AA?$AA@ 1006e58c     LIBCMTD:strftime.obj
 0002:000115b0       ??_C@_1BI@ONBMGNNA@?$AA_?$AAS?$AAt?$AAr?$AAf?$AAt?$AAi?$AAm?$AAe?$AA_?$AAl?$AA?$AA@ 1006e5b0     LIBCMTD:strftime.obj
 0002:000115c8       ??_C@_1CG@MPKJHDAA@?$AA?$CI?$AA?5?$AAs?$AAt?$AAr?$AAi?$AAn?$AAg?$AA?5?$AA?$CB?$AA?$DN?$AA?5?$AAN?$AAU?$AAL?$AAL?$AA?5?$AA?$CJ?$AA?$AA@ 1006e5c8     LIBCMTD:strftime.obj
 0002:000115f0       ??_C@_1EG@JNJKHKFI@?$AA?$CI?$AA?5?$AA?$CC?$AAI?$AAn?$AAv?$AAa?$AAl?$AAi?$AAd?$AA?5?$AAf?$AAo?$AAr?$AAm?$AAa?$AAt?$AA?5?$AAd?$AAi?$AAr?$AAe?$AAc?$AAt?$AAi?$AAv?$AAe?$AA?$CC?$AA?5?$AA?0?$AA?5?$AA0@ 1006e5f0     LIBCMTD:strftime.obj
 0002:00011638       ??_C@_1DC@NMCFBMJP@?$AA?$CI?$AA?5?$AAt?$AAi?$AAm?$AAe?$AAp?$AAt?$AAr?$AA?9?$AA?$DO?$AAt?$AAm?$AA_?$AAy?$AAe?$AAa?$AAr?$AA?5?$AA?$DO?$AA?$DN?$AA0?$AA?5?$AA?$CJ?$AA?$AA@ 1006e638     LIBCMTD:strftime.obj
 0002:00011670       ??_C@_1HC@HLKHIKOB@?$AA?$CI?$AA?5?$AA?$CI?$AA?5?$AAt?$AAi?$AAm?$AAe?$AAp?$AAt?$AAr?$AA?9?$AA?$DO?$AAt?$AAm?$AA_?$AAs?$AAe?$AAc?$AA?5?$AA?$DO?$AA?$DN?$AA0?$AA?5?$AA?$CJ?$AA?5?$AA?$CG?$AA?$CG?$AA?5?$AA?$CI?$AA?5?$AAt@ 1006e670     LIBCMTD:strftime.obj
 0002:000116e8       ??_C@_1HC@IGKDPPHL@?$AA?$CI?$AA?5?$AA?$CI?$AA?5?$AAt?$AAi?$AAm?$AAe?$AAp?$AAt?$AAr?$AA?9?$AA?$DO?$AAt?$AAm?$AA_?$AAm?$AAi?$AAn?$AA?5?$AA?$DO?$AA?$DN?$AA0?$AA?5?$AA?$CJ?$AA?5?$AA?$CG?$AA?$CG?$AA?5?$AA?$CI?$AA?5?$AAt@ 1006e6e8     LIBCMTD:strftime.obj
 0002:00011760       ??_C@_1HI@HHCJCPE@?$AA?$CI?$AA?5?$AA?$CI?$AA?5?$AAt?$AAi?$AAm?$AAe?$AAp?$AAt?$AAr?$AA?9?$AA?$DO?$AAt?$AAm?$AA_?$AAy?$AAd?$AAa?$AAy?$AA?5?$AA?$DO?$AA?$DN?$AA0?$AA?5?$AA?$CJ?$AA?5?$AA?$CG?$AA?$CG?$AA?5?$AA?$CI?$AA?5@ 1006e760     LIBCMTD:strftime.obj
 0002:000117d8       ??_C@_1HG@KCGGFLNI@?$AA?$CI?$AA?5?$AA?$CI?$AA?5?$AAt?$AAi?$AAm?$AAe?$AAp?$AAt?$AAr?$AA?9?$AA?$DO?$AAt?$AAm?$AA_?$AAh?$AAo?$AAu?$AAr?$AA?5?$AA?$DO?$AA?$DN?$AA0?$AA?5?$AA?$CJ?$AA?5?$AA?$CG?$AA?$CG?$AA?5?$AA?$CI?$AA?5@ 1006e7d8     LIBCMTD:strftime.obj
 0002:00011850       ??_C@_1HG@NFHHOAD@?$AA?$CI?$AA?5?$AA?$CI?$AA?5?$AAt?$AAi?$AAm?$AAe?$AAp?$AAt?$AAr?$AA?9?$AA?$DO?$AAt?$AAm?$AA_?$AAm?$AAd?$AAa?$AAy?$AA?5?$AA?$DO?$AA?$DN?$AA1?$AA?5?$AA?$CJ?$AA?5?$AA?$CG?$AA?$CG?$AA?5?$AA?$CI?$AA?5@ 1006e850     LIBCMTD:strftime.obj
 0002:000118c8       ??_C@_1HC@OOAMILFB@?$AA?$CI?$AA?5?$AA?$CI?$AA?5?$AAt?$AAi?$AAm?$AAe?$AAp?$AAt?$AAr?$AA?9?$AA?$DO?$AAt?$AAm?$AA_?$AAm?$AAo?$AAn?$AA?5?$AA?$DO?$AA?$DN?$AA0?$AA?5?$AA?$CJ?$AA?5?$AA?$CG?$AA?$CG?$AA?5?$AA?$CI?$AA?5?$AAt@ 1006e8c8     LIBCMTD:strftime.obj
 0002:0001193c       ??_C@_1BI@HBKPAJH@?$AA_?$AAe?$AAx?$AAp?$AAa?$AAn?$AAd?$AAt?$AAi?$AAm?$AAe?$AA?$AA@ 1006e93c     LIBCMTD:strftime.obj
 0002:00011958       ??_C@_1HE@BFLEOKFO@?$AA?$CI?$AA?5?$AA?$CI?$AA?5?$AAt?$AAi?$AAm?$AAe?$AAp?$AAt?$AAr?$AA?9?$AA?$DO?$AAt?$AAm?$AA_?$AAw?$AAd?$AAa?$AAy?$AA?5?$AA?$DO?$AA?$DN?$AA0?$AA?5?$AA?$CJ?$AA?5?$AA?$CG?$AA?$CG?$AA?5?$AA?$CI?$AA?5@ 1006e958     LIBCMTD:strftime.obj
 0002:000119d0       ??_C@_1HG@PAEENAPO@?$AA?$CI?$AA?$CC?$AAI?$AAn?$AAv?$AAa?$AAl?$AAi?$AAd?$AA?5?$AAM?$AAB?$AAC?$AAS?$AA?5?$AAc?$AAh?$AAa?$AAr?$AAa?$AAc?$AAt?$AAe?$AAr?$AA?5?$AAs?$AAe?$AAq?$AAu?$AAe?$AAn?$AAc@ 1006e9d0     LIBCMTD:strftime.obj
 0002:00011a48       ??_C@_1IE@EIDABBDG@?$AA?$CI?$AA?$CC?$AAI?$AAn?$AAv?$AAa?$AAl?$AAi?$AAd?$AA?5?$AAM?$AAB?$AAC?$AAS?$AA?5?$AAc?$AAh?$AAa?$AAr?$AAa?$AAc?$AAt?$AAe?$AAr?$AA?5?$AAs?$AAe?$AAq?$AAu?$AAe?$AAn?$AAc@ 1006ea48     LIBCMTD:strftime.obj
 0002:00011acc       ??_C@_03EBAPMIKO@a?1p?$AA@ 1006eacc     LIBCMTD:strftime.obj
 0002:00011ad0       ??_C@_05JAMEPDIN@am?1pm?$AA@ 1006ead0     LIBCMTD:strftime.obj
 0002:00011ad8       ??_C@_1BKC@GNMHAJKJ@?$AA?$CI?$AA?5?$AA?$CI?$AA?5?$AAt?$AAm?$AAp?$AAt?$AAr?$AA?9?$AA?$DO?$AAt?$AAm?$AA_?$AAm?$AAd?$AAa?$AAy?$AA?5?$AA?$DO?$AA?$DN?$AA?5?$AA1?$AA?5?$AA?$CJ?$AA?5?$AA?$CG?$AA?$CG?$AA?5?$AA?$CI?$AA?5?$AA?$CI@ 1006ead8     LIBCMTD:strftime.obj
 0002:00011c80       ??_C@_1GM@ODJADGLF@?$AA?$CI?$AA?5?$AA?$CI?$AA?5?$AAt?$AAm?$AAp?$AAt?$AAr?$AA?9?$AA?$DO?$AAt?$AAm?$AA_?$AAs?$AAe?$AAc?$AA?5?$AA?$DO?$AA?$DN?$AA?5?$AA0?$AA?5?$AA?$CJ?$AA?5?$AA?$CG?$AA?$CG?$AA?5?$AA?$CI?$AA?5?$AAt?$AAm@ 1006ec80     LIBCMTD:strftime.obj
 0002:00011cf0       ??_C@_1GM@LGPAHFOJ@?$AA?$CI?$AA?5?$AA?$CI?$AA?5?$AAt?$AAm?$AAp?$AAt?$AAr?$AA?9?$AA?$DO?$AAt?$AAm?$AA_?$AAm?$AAi?$AAn?$AA?5?$AA?$DO?$AA?$DN?$AA?5?$AA0?$AA?5?$AA?$CJ?$AA?5?$AA?$CG?$AA?$CG?$AA?5?$AA?$CI?$AA?5?$AAt?$AAm@ 1006ecf0     LIBCMTD:strftime.obj
 0002:00011d60       ??_C@_1HA@HFAMHJOB@?$AA?$CI?$AA?5?$AA?$CI?$AA?5?$AAt?$AAm?$AAp?$AAt?$AAr?$AA?9?$AA?$DO?$AAt?$AAm?$AA_?$AAh?$AAo?$AAu?$AAr?$AA?5?$AA?$DO?$AA?$DN?$AA?5?$AA0?$AA?5?$AA?$CJ?$AA?5?$AA?$CG?$AA?$CG?$AA?5?$AA?$CI?$AA?5?$AAt@ 1006ed60     LIBCMTD:strftime.obj
 0002:00011dd0       ??_C@_1GM@PGNHCPKA@?$AA?$CI?$AA?5?$AA?$CI?$AA?5?$AAt?$AAm?$AAp?$AAt?$AAr?$AA?9?$AA?$DO?$AAt?$AAm?$AA_?$AAm?$AAo?$AAn?$AA?5?$AA?$DO?$AA?$DN?$AA?5?$AA0?$AA?5?$AA?$CJ?$AA?5?$AA?$CG?$AA?$CG?$AA?5?$AA?$CI?$AA?5?$AAt?$AAm@ 1006edd0     LIBCMTD:strftime.obj
 0002:00011e3c       ??_C@_1BO@CFDLGFLB@?$AA_?$AAs?$AAt?$AAo?$AAr?$AAe?$AA_?$AAw?$AAi?$AAn?$AAw?$AAo?$AAr?$AAd?$AA?$AA@ 1006ee3c     LIBCMTD:strftime.obj
 0002:00011e5c       ??_C@_1DA@DFCEAJHI@?$AA?$CI?$AA?5?$AAt?$AAm?$AAp?$AAt?$AAr?$AA?9?$AA?$DO?$AAt?$AAm?$AA_?$AAy?$AAe?$AAa?$AAr?$AA?5?$AA?$DO?$AA?$DN?$AA?5?$AA0?$AA?5?$AA?$CJ?$AA?$AA@ 1006ee5c     LIBCMTD:strftime.obj
 0002:00011e8c       ??_C@_0O@FMJNFNKE@united?9states?$AA@ 1006ee8c     LIBCMTD:getqloc.obj
 0002:00011e9c       ??_C@_0P@NDHFFKCA@united?9kingdom?$AA@ 1006ee9c     LIBCMTD:getqloc.obj
 0002:00011eac       ??_C@_0BC@HHDADLGF@trinidad?5?$CG?5tobago?$AA@ 1006eeac     LIBCMTD:getqloc.obj
 0002:00011ec0       ??_C@_0M@IOAEBDAC@south?9korea?$AA@ 1006eec0     LIBCMTD:getqloc.obj
 0002:00011ecc       ??_C@_0N@FIELFKIJ@south?9africa?$AA@ 1006eecc     LIBCMTD:getqloc.obj
 0002:00011edc       ??_C@_0M@OPNDHCMC@south?5korea?$AA@ 1006eedc     LIBCMTD:getqloc.obj
 0002:00011ee8       ??_C@_0N@MDEOEPFI@south?5africa?$AA@ 1006eee8     LIBCMTD:getqloc.obj
 0002:00011ef8       ??_C@_06FKAPCJLB@slovak?$AA@ 1006eef8     LIBCMTD:getqloc.obj
 0002:00011f00       ??_C@_0M@EFJANOAL@puerto?9rico?$AA@ 1006ef00     LIBCMTD:getqloc.obj
 0002:00011f0c       ??_C@_08PGOJKDAI@pr?9china?$AA@ 1006ef0c     LIBCMTD:getqloc.obj
 0002:00011f18       ??_C@_08JHDOMCMI@pr?5china?$AA@ 1006ef18     LIBCMTD:getqloc.obj
 0002:00011f24       ??_C@_02JHCHFBLL@nz?$AA@   1006ef24     LIBCMTD:getqloc.obj
 0002:00011f28       ??_C@_0M@LINHDHKP@new?9zealand?$AA@ 1006ef28     LIBCMTD:getqloc.obj
 0002:00011f34       ??_C@_09IIIPPBDB@hong?9kong?$AA@ 1006ef34     LIBCMTD:getqloc.obj
 0002:00011f40       ??_C@_07HJLCKBG@holland?$AA@ 1006ef40     LIBCMTD:getqloc.obj
 0002:00011f48       ??_C@_0O@LEHGMHAG@great?5britain?$AA@ 1006ef48     LIBCMTD:getqloc.obj
 0002:00011f58       ??_C@_07FACOMELA@england?$AA@ 1006ef58     LIBCMTD:getqloc.obj
 0002:00011f60       ??_C@_05JIHCEICB@czech?$AA@ 1006ef60     LIBCMTD:getqloc.obj
 0002:00011f68       ??_C@_05BBJOBLGB@china?$AA@ 1006ef68     LIBCMTD:getqloc.obj
 0002:00011f70       ??_C@_07GPKPHICP@britain?$AA@ 1006ef70     LIBCMTD:getqloc.obj
 0002:00011f78       ??_C@_07MHIPBHMG@america?$AA@ 1006ef78     LIBCMTD:getqloc.obj
 0002:00011f80       ??_C@_03KIALPMKC@usa?$AA@  1006ef80     LIBCMTD:getqloc.obj
 0002:00011f84       ??_C@_02FGJGKGGD@us?$AA@   1006ef84     LIBCMTD:getqloc.obj
 0002:00011f88       ??_C@_02NEINDODK@uk?$AA@   1006ef88     LIBCMTD:getqloc.obj
 0002:00011f8c       ??_C@_05JMPCFJFJ@swiss?$AA@ 1006ef8c     LIBCMTD:getqloc.obj
 0002:00011f94       ??_C@_0BA@HLOCPIOD@swedish?9finland?$AA@ 1006ef94     LIBCMTD:getqloc.obj
 0002:00011fa4       ??_C@_0BC@PKCNIABK@spanish?9venezuela?$AA@ 1006efa4     LIBCMTD:getqloc.obj
 0002:00011fb8       ??_C@_0BA@GBHHMIJI@spanish?9uruguay?$AA@ 1006efb8     LIBCMTD:getqloc.obj
 0002:00011fc8       ??_C@_0BE@BHDOHPMC@spanish?9puerto?5rico?$AA@ 1006efc8     LIBCMTD:getqloc.obj
 0002:00011fdc       ??_C@_0N@KMOIDGGN@spanish?9peru?$AA@ 1006efdc     LIBCMTD:getqloc.obj
 0002:00011fec       ??_C@_0BB@HMHLPGPH@spanish?9paraguay?$AA@ 1006efec     LIBCMTD:getqloc.obj
 0002:00012000       ??_C@_0P@MCPKNGFD@spanish?9panama?$AA@ 1006f000     LIBCMTD:getqloc.obj
 0002:00012010       ??_C@_0BC@IHOHGAIL@spanish?9nicaragua?$AA@ 1006f010     LIBCMTD:getqloc.obj
 0002:00012024       ??_C@_0P@KLMJDNFJ@spanish?9modern?$AA@ 1006f024     LIBCMTD:getqloc.obj
 0002:00012034       ??_C@_0BA@BPAPGBCM@spanish?9mexican?$AA@ 1006f034     LIBCMTD:getqloc.obj
 0002:00012044       ??_C@_0BB@PDECHHHE@spanish?9honduras?$AA@ 1006f044     LIBCMTD:getqloc.obj
 0002:00012058       ??_C@_0BC@KLHKFGDB@spanish?9guatemala?$AA@ 1006f058     LIBCMTD:getqloc.obj
 0002:0001206c       ??_C@_0BE@MFOOKJAI@spanish?9el?5salvador?$AA@ 1006f06c     LIBCMTD:getqloc.obj
 0002:00012080       ??_C@_0BA@FCOKFPFC@spanish?9ecuador?$AA@ 1006f080     LIBCMTD:getqloc.obj
 0002:00012090       ??_C@_0BL@PLMGIMOO@spanish?9dominican?5republic?$AA@ 1006f090     LIBCMTD:getqloc.obj
 0002:000120ac       ??_C@_0BD@HLGDNMHB@spanish?9costa?5rica?$AA@ 1006f0ac     LIBCMTD:getqloc.obj
 0002:000120c0       ??_C@_0BB@PKCBKCPE@spanish?9colombia?$AA@ 1006f0c0     LIBCMTD:getqloc.obj
 0002:000120d4       ??_C@_0O@MCBIJGNE@spanish?9chile?$AA@ 1006f0d4     LIBCMTD:getqloc.obj
 0002:000120e4       ??_C@_0BA@BEFEIGJJ@spanish?9bolivia?$AA@ 1006f0e4     LIBCMTD:getqloc.obj
 0002:000120f4       ??_C@_0BC@EMECMPD@spanish?9argentina?$AA@ 1006f0f4     LIBCMTD:getqloc.obj
 0002:00012108       ??_C@_0BF@EALFLENP@portuguese?9brazilian?$AA@ 1006f108     LIBCMTD:getqloc.obj
 0002:00012120       ??_C@_0BC@HBLEBLNN@norwegian?9nynorsk?$AA@ 1006f120     LIBCMTD:getqloc.obj
 0002:00012134       ??_C@_0BB@HMACDDCK@norwegian?9bokmal?$AA@ 1006f134     LIBCMTD:getqloc.obj
 0002:00012148       ??_C@_09BAFFPPHE@norwegian?$AA@ 1006f148     LIBCMTD:getqloc.obj
 0002:00012154       ??_C@_0O@EAJFJDFG@italian?9swiss?$AA@ 1006f154     LIBCMTD:getqloc.obj
 0002:00012164       ??_C@_0O@CNOMPGD@irish?9english?$AA@ 1006f164     LIBCMTD:getqloc.obj
 0002:00012174       ??_C@_0N@EDHBGCKG@german?9swiss?$AA@ 1006f174     LIBCMTD:getqloc.obj
 0002:00012184       ??_C@_0BC@JACMHNBP@german?9luxembourg?$AA@ 1006f184     LIBCMTD:getqloc.obj
 0002:00012198       ??_C@_0BE@HBGMGFEG@german?9lichtenstein?$AA@ 1006f198     LIBCMTD:getqloc.obj
 0002:000121ac       ??_C@_0BA@HKKBIBKL@german?9austrian?$AA@ 1006f1ac     LIBCMTD:getqloc.obj
 0002:000121bc       ??_C@_0N@GCAEPEBK@french?9swiss?$AA@ 1006f1bc     LIBCMTD:getqloc.obj
 0002:000121cc       ??_C@_0BC@DJFJJCK@french?9luxembourg?$AA@ 1006f1cc     LIBCMTD:getqloc.obj
 0002:000121e0       ??_C@_0BA@NNCEDFIC@french?9canadian?$AA@ 1006f1e0     LIBCMTD:getqloc.obj
 0002:000121f0       ??_C@_0P@CMPOCLM@french?9belgian?$AA@ 1006f1f0     LIBCMTD:getqloc.obj
 0002:00012200       ??_C@_0M@GHHDJOK@english?9usa?$AA@ 1006f200     LIBCMTD:getqloc.obj
 0002:0001220c       ??_C@_0L@PLDJKEIL@english?9us?$AA@ 1006f20c     LIBCMTD:getqloc.obj
 0002:00012218       ??_C@_0L@HJCCDMNC@english?9uk?$AA@ 1006f218     LIBCMTD:getqloc.obj
 0002:00012224       ??_C@_0BK@CKLIAGJB@english?9trinidad?5y?5tobago?$AA@ 1006f224     LIBCMTD:getqloc.obj
 0002:00012240       ??_C@_0BF@JMJMGNNF@english?9south?5africa?$AA@ 1006f240     LIBCMTD:getqloc.obj
 0002:00012258       ??_C@_0L@DKIIFDFD@english?9nz?$AA@ 1006f258     LIBCMTD:getqloc.obj
 0002:00012264       ??_C@_0BA@ONHGJCLH@english?9jamaica?$AA@ 1006f264     LIBCMTD:getqloc.obj
 0002:00012274       ??_C@_0M@HJBGHOPO@english?9ire?$AA@ 1006f274     LIBCMTD:getqloc.obj
 0002:00012280       ??_C@_0BC@LFEKMIFB@english?9caribbean?$AA@ 1006f280     LIBCMTD:getqloc.obj
 0002:00012294       ??_C@_0M@OLDPFKHI@english?9can?$AA@ 1006f294     LIBCMTD:getqloc.obj
 0002:000122a0       ??_C@_0P@OMDEHBMP@english?9belize?$AA@ 1006f2a0     LIBCMTD:getqloc.obj
 0002:000122b0       ??_C@_0M@KFHFPFED@english?9aus?$AA@ 1006f2b0     LIBCMTD:getqloc.obj
 0002:000122bc       ??_C@_0BB@MNMBKDFE@english?9american?$AA@ 1006f2bc     LIBCMTD:getqloc.obj
 0002:000122d0       ??_C@_0O@KIDLNNBA@dutch?9belgian?$AA@ 1006f2d0     LIBCMTD:getqloc.obj
 0002:000122e0       ??_C@_0BE@JBKABBMH@chinese?9traditional?$AA@ 1006f2e0     LIBCMTD:getqloc.obj
 0002:000122f4       ??_C@_0BC@MJJMPKCG@chinese?9singapore?$AA@ 1006f2f4     LIBCMTD:getqloc.obj
 0002:00012308       ??_C@_0BD@FDKADDCP@chinese?9simplified?$AA@ 1006f308     LIBCMTD:getqloc.obj
 0002:0001231c       ??_C@_0BB@DBEFDDME@chinese?9hongkong?$AA@ 1006f31c     LIBCMTD:getqloc.obj
 0002:00012330       ??_C@_07DHNMFMCI@chinese?$AA@ 1006f330     LIBCMTD:getqloc.obj
 0002:00012338       ??_C@_03FNDDCHI@chi?$AA@   1006f338     LIBCMTD:getqloc.obj
 0002:0001233c       ??_C@_03BMMIADDJ@chh?$AA@  1006f33c     LIBCMTD:getqloc.obj
 0002:00012340       ??_C@_08OAIPJDGI@canadian?$AA@ 1006f340     LIBCMTD:getqloc.obj
 0002:0001234c       ??_C@_07HBPMNPNJ@belgian?$AA@ 1006f34c     LIBCMTD:getqloc.obj
 0002:00012354       ??_C@_0L@OEKOPBEL@australian?$AA@ 1006f354     LIBCMTD:getqloc.obj
 0002:00012360       ??_C@_0BB@MEIMBEDG@american?9english?$AA@ 1006f360     LIBCMTD:getqloc.obj
 0002:00012374       ??_C@_0BB@DFMDPDGB@american?5english?$AA@ 1006f374     LIBCMTD:getqloc.obj
 0002:00012388       ??_C@_08IJLOKOLL@american?$AA@ 1006f388     LIBCMTD:getqloc.obj
 0002:00012398       ___rg_language             1006f398     LIBCMTD:getqloc.obj
 0002:000125a0       ___rg_country              1006f5a0     LIBCMTD:getqloc.obj
 0002:00012658       ___rglangidNotDefault      1006f658     LIBCMTD:getqloc.obj
 0002:0001266c       ??_C@_0BC@NFIEMBLL@Norwegian?9Nynorsk?$AA@ 1006f66c     LIBCMTD:getqloc.obj
 0002:00012680       ??_C@_1OM@OECHDGCF@?$AAs?$AAt?$AAr?$AAc?$AAp?$AAy?$AA_?$AAs?$AA?$CI?$AAl?$AAp?$AAO?$AAu?$AAt?$AAS?$AAt?$AAr?$AA?9?$AA?$DO?$AAs?$AAz?$AAL?$AAa?$AAn?$AAg?$AAu?$AAa?$AAg?$AAe?$AA?0?$AA?5?$AA?$CI@ 1006f680     LIBCMTD:getqloc.obj
 0002:0001276c       ??_C@_1CO@NJACLALJ@?$AA_?$AA_?$AAg?$AAe?$AAt?$AA_?$AAq?$AAu?$AAa?$AAl?$AAi?$AAf?$AAi?$AAe?$AAd?$AA_?$AAl?$AAo?$AAc?$AAa?$AAl?$AAe?$AA?$AA@ 1006f76c     LIBCMTD:getqloc.obj
 0002:0001279c       ??_C@_1BE@GIJNDGB@?$AAg?$AAe?$AAt?$AAq?$AAl?$AAo?$AAc?$AA?4?$AAc?$AA?$AA@ 1006f79c     LIBCMTD:getqloc.obj
 0002:000127b0       ??_C@_03NFKLAGEF@OCP?$AA@  1006f7b0     LIBCMTD:getqloc.obj
 0002:000127b4       ??_C@_03DFHEHBHG@ACP?$AA@  1006f7b4     LIBCMTD:getqloc.obj
 0002:000127b8       ??_C@_1JE@ECKHFIFP@?$AA?$CI?$AA?$CC?$AAI?$AAn?$AAv?$AAa?$AAl?$AAi?$AAd?$AA?5?$AAf?$AAi?$AAl?$AAe?$AA?5?$AAd?$AAe?$AAs?$AAc?$AAr?$AAi?$AAp?$AAt?$AAo?$AAr?$AA?4?$AA?5?$AAF?$AAi?$AAl?$AAe?$AA?5@ 1006f7b8     LIBCMTD:lseeki64.obj
 0002:0001284c       ??_C@_1CM@OKGMMMDH@?$AA?$CI?$AA_?$AAo?$AAs?$AAf?$AAi?$AAl?$AAe?$AA?$CI?$AAf?$AAh?$AA?$CJ?$AA?5?$AA?$CG?$AA?5?$AAF?$AAO?$AAP?$AAE?$AAN?$AA?$CJ?$AA?$AA@ 1006f84c     LIBCMTD:lseeki64.obj
 0002:00012878       ??_C@_1BE@KHFBJMNM@?$AA_?$AAl?$AAs?$AAe?$AAe?$AAk?$AAi?$AA6?$AA4?$AA?$AA@ 1006f878     LIBCMTD:lseeki64.obj
 0002:0001288c       ??_C@_1BG@NGOGNEMB@?$AAl?$AAs?$AAe?$AAe?$AAk?$AAi?$AA6?$AA4?$AA?4?$AAc?$AA?$AA@ 1006f88c     LIBCMTD:lseeki64.obj
 0002:000128a8       ??_C@_1FO@LPCLHKGE@?$AA?$CI?$AAf?$AAh?$AA?5?$AA?$DO?$AA?$DN?$AA?5?$AA0?$AA?5?$AA?$CG?$AA?$CG?$AA?5?$AA?$CI?$AAu?$AAn?$AAs?$AAi?$AAg?$AAn?$AAe?$AAd?$AA?$CJ?$AAf?$AAh?$AA?5?$AA?$DM?$AA?5?$AA?$CI?$AAu?$AAn?$AAs?$AAi@ 1006f8a8     LIBCMTD:lseeki64.obj
 0002:00012908       ??_C@_1O@KOFKDHPL@?$AA_?$AAw?$AAr?$AAi?$AAt?$AAe?$AA?$AA@ 1006f908     LIBCMTD:write.obj
 0002:00012918       ??_C@_1BA@PMLNGJCB@?$AAw?$AAr?$AAi?$AAt?$AAe?$AA?4?$AAc?$AA?$AA@ 1006f918     LIBCMTD:write.obj
 0002:00012928       ??_C@_1CC@EEOLPHGO@?$AA?$CI?$AA?$CI?$AAc?$AAn?$AAt?$AA?5?$AA?$CG?$AA?5?$AA1?$AA?$CJ?$AA?5?$AA?$DN?$AA?$DN?$AA?5?$AA0?$AA?$CJ?$AA?$AA@ 1006f928     LIBCMTD:write.obj
 0002:0001294c       ??_C@_1BM@NCANHCIP@?$AA_?$AAw?$AAr?$AAi?$AAt?$AAe?$AA_?$AAn?$AAo?$AAl?$AAo?$AAc?$AAk?$AA?$AA@ 1006f94c     LIBCMTD:write.obj
 0002:00012968       ??_C@_1BM@KFJLMBPG@?$AA?$CI?$AAb?$AAu?$AAf?$AA?5?$AA?$CB?$AA?$DN?$AA?5?$AAN?$AAU?$AAL?$AAL?$AA?$CJ?$AA?$AA@ 1006f968     LIBCMTD:write.obj
 0002:00012984       ??_C@_09PKAEMGHJ@_getbuf?4c?$AA@ 1006f984     LIBCMTD:_getbuf.obj
 0002:00012990       ??_C@_1BE@DJANJIEH@?$AA_?$AAg?$AAe?$AAt?$AAb?$AAu?$AAf?$AA?4?$AAc?$AA?$AA@ 1006f990     LIBCMTD:_getbuf.obj
 0002:000129a4       ??_C@_1BA@LEBDGIHM@?$AA_?$AAi?$AAs?$AAa?$AAt?$AAt?$AAy?$AA?$AA@ 1006f9a4     LIBCMTD:isatty.obj
 0002:000129b4       ??_C@_1BC@BPJEKAMC@?$AAi?$AAs?$AAa?$AAt?$AAt?$AAy?$AA?4?$AAc?$AA?$AA@ 1006f9b4     LIBCMTD:isatty.obj
 0002:000129c8       ??_C@_07PNHPCIEC@_file?4c?$AA@ 1006f9c8     LIBCMTD:_file.obj
 0002:000129d0       ??_C@_1BA@JGHIEKKM@?$AA_?$AAf?$AAi?$AAl?$AAe?$AAn?$AAo?$AA?$AA@ 1006f9d0     LIBCMTD:fileno.obj
 0002:000129e0       ??_C@_1BC@FBGAHIFN@?$AAf?$AAi?$AAl?$AAe?$AAn?$AAo?$AA?4?$AAc?$AA?$AA@ 1006f9e0     LIBCMTD:fileno.obj
 0002:000129f4       ??_C@_1O@GKDHFACN@?$AAp?$AAr?$AAi?$AAn?$AAt?$AAf?$AA?$AA@ 1006f9f4     LIBCMTD:printf.obj
 0002:00012a04       ??_C@_1BC@BHLBENIK@?$AAp?$AAr?$AAi?$AAn?$AAt?$AAf?$AA?4?$AAc?$AA?$AA@ 1006fa04     LIBCMTD:printf.obj
 0002:00012a18       ??_C@_1CA@CBMNPEO@?$AAs?$AAi?$AAz?$AAe?$AAI?$AAn?$AAB?$AAy?$AAt?$AAe?$AAs?$AA?5?$AA?$DO?$AA?5?$AA0?$AA?$AA@ 1006fa18     LIBCMTD:wctomb.obj
 0002:00012a38       ??_C@_1BI@IEADNOHF@?$AA_?$AAw?$AAc?$AAt?$AAo?$AAm?$AAb?$AA_?$AAs?$AA_?$AAl?$AA?$AA@ 1006fa38     LIBCMTD:wctomb.obj
 0002:00012a50       ??_C@_1BC@KLMMEMGB@?$AAw?$AAc?$AAt?$AAo?$AAm?$AAb?$AA?4?$AAc?$AA?$AA@ 1006fa50     LIBCMTD:wctomb.obj
 0002:00012a64       ??_C@_1CO@HFMIILNF@?$AAs?$AAi?$AAz?$AAe?$AAI?$AAn?$AAB?$AAy?$AAt?$AAe?$AAs?$AA?5?$AA?$DM?$AA?$DN?$AA?5?$AAI?$AAN?$AAT?$AA_?$AAM?$AAA?$AAX?$AA?$AA@ 1006fa64     LIBCMTD:wctomb.obj
 0002:00012a98       ??_C@_1FE@CEHLKAHD@?$AAi?$AAb?$AAa?$AAs?$AAe?$AA?5?$AA?$DN?$AA?$DN?$AA?5?$AA0?$AA?5?$AA?$HM?$AA?$HM?$AA?5?$AA?$CI?$AA2?$AA?5?$AA?$DM?$AA?$DN?$AA?5?$AAi?$AAb?$AAa?$AAs?$AAe?$AA?5?$AA?$CG?$AA?$CG?$AA?5?$AAi?$AAb?$AAa@ 1006fa98     LIBCMTD:strtol.obj
 0002:00012aec       ??_C@_1BA@LOLAMAJG@?$AAs?$AAt?$AAr?$AAt?$AAo?$AAx?$AAl?$AA?$AA@ 1006faec     LIBCMTD:strtol.obj
 0002:00012afc       ??_C@_1BC@CPINJNMH@?$AAs?$AAt?$AAr?$AAt?$AAo?$AAl?$AA?4?$AAc?$AA?$AA@ 1006fafc     LIBCMTD:strtol.obj
 0002:00012b10       ??_C@_1BK@LAOAACLJ@?$AAn?$AAp?$AAt?$AAr?$AA?5?$AA?$CB?$AA?$DN?$AA?5?$AAN?$AAU?$AAL?$AAL?$AA?$AA@ 1006fb10     LIBCMTD:strtol.obj
 0002:00012b2c       ??_C@_1BC@MFKEFFNI@?$AAm?$AAb?$AAt?$AAo?$AAw?$AAc?$AA?4?$AAc?$AA?$AA@ 1006fb2c     LIBCMTD:mbtowc.obj
 0002:00012b40       ??_C@_1NC@EINCOKCO@?$AA_?$AAl?$AAo?$AAc?$AA_?$AAu?$AAp?$AAd?$AAa?$AAt?$AAe?$AA?4?$AAG?$AAe?$AAt?$AAL?$AAo?$AAc?$AAa?$AAl?$AAe?$AAT?$AA?$CI?$AA?$CJ?$AA?9?$AA?$DO?$AAl?$AAo?$AAc?$AAi?$AAn?$AAf@ 1006fb40     LIBCMTD:mbtowc.obj
 0002:00012c14       ??_C@_1O@HJNPHHHB@?$AAf?$AAp?$AAu?$AAt?$AAw?$AAc?$AA?$AA@ 1006fc14     LIBCMTD:fputwc.obj
 0002:00012c24       ??_C@_1BC@LJHBJFMP@?$AAf?$AAp?$AAu?$AAt?$AAw?$AAc?$AA?4?$AAc?$AA?$AA@ 1006fc24     LIBCMTD:fputwc.obj
 0002:00012c38       ??_C@_1BM@JMKHIAHP@?$AA?$CI?$AAs?$AAt?$AAr?$AA?5?$AA?$CB?$AA?$DN?$AA?5?$AAN?$AAU?$AAL?$AAL?$AA?$CJ?$AA?$AA@ 1006fc38     LIBCMTD:fputwc.obj
 0002:00012c54       ??_C@_1BA@PCFLFGNC@?$AAw?$AAc?$AAs?$AAt?$AAo?$AAx?$AAl?$AA?$AA@ 1006fc54     LIBCMTD:wcstol.obj
 0002:00012c64       ??_C@_1BC@KCPEGNFM@?$AAw?$AAc?$AAs?$AAt?$AAo?$AAl?$AA?4?$AAc?$AA?$AA@ 1006fc64     LIBCMTD:wcstol.obj
 0002:00012c78       ??_C@_1OC@EJONBGJF@?$AAs?$AAt?$AAr?$AAn?$AAc?$AAp?$AAy?$AA_?$AAs?$AA?$CI?$AA?5?$AA?$CI?$AAc?$AAh?$AAa?$AAr?$AA?5?$AA?$CK?$AA?$CJ?$AAl?$AAp?$AAD?$AAe?$AAs?$AAt?$AAS?$AAt?$AAr?$AA?0?$AA?5?$AAc?$AAc@ 1006fc78     LIBCMTD:w_map.obj
 0002:00012d5c       ??_C@_1CO@FGMDILFM@?$AA_?$AA_?$AAc?$AAr?$AAt?$AAL?$AAC?$AAM?$AAa?$AAp?$AAS?$AAt?$AAr?$AAi?$AAn?$AAg?$AAW?$AA_?$AAs?$AAt?$AAa?$AAt?$AA?$AA@ 1006fd5c     LIBCMTD:w_map.obj
 0002:00012d8c       ??_C@_1BA@HAPJCPDO@?$AAw?$AA_?$AAm?$AAa?$AAp?$AA?4?$AAc?$AA?$AA@ 1006fd8c     LIBCMTD:w_map.obj
 0002:00012d9c       ??_C@_0L@KBNGFDKM@convrtcp?4c?$AA@ 1006fd9c     LIBCMTD:convrtcp.obj
 0002:00012da8       ___dnames                  1006fda8     LIBCMTD:timeset.obj
 0002:00012dc0       ___mnames                  1006fdc0     LIBCMTD:timeset.obj
 0002:00012de8       ??_C@_1BM@FIMHBHEB@?$AA_?$AAg?$AAe?$AAt?$AA_?$AAd?$AAa?$AAy?$AAl?$AAi?$AAg?$AAh?$AAt?$AA?$AA@ 1006fde8     LIBCMTD:timeset.obj
 0002:00012e04       ??_C@_1BE@OINBFMF@?$AAt?$AAi?$AAm?$AAe?$AAs?$AAe?$AAt?$AA?4?$AAc?$AA?$AA@ 1006fe04     LIBCMTD:timeset.obj
 0002:00012e18       ??_C@_1CI@MKJEHFPG@?$AA?$CI?$AA_?$AAD?$AAa?$AAy?$AAl?$AAi?$AAg?$AAh?$AAt?$AA?5?$AA?$CB?$AA?$DN?$AA?5?$AAN?$AAU?$AAL?$AAL?$AA?$CJ?$AA?$AA@ 1006fe18     LIBCMTD:timeset.obj
 0002:00012e40       ??_C@_1BK@EMODDHEE@?$AA_?$AAg?$AAe?$AAt?$AA_?$AAd?$AAs?$AAt?$AAb?$AAi?$AAa?$AAs?$AA?$AA@ 1006fe40     LIBCMTD:timeset.obj
 0002:00012e60       ??_C@_1EC@PKDJPAAB@?$AA?$CI?$AA_?$AAD?$AAa?$AAy?$AAl?$AAi?$AAg?$AAh?$AAt?$AA_?$AAs?$AAa?$AAv?$AAi?$AAn?$AAg?$AAs?$AA_?$AAb?$AAi?$AAa?$AAs?$AA?5?$AA?$CB?$AA?$DN?$AA?5?$AAN?$AAU?$AAL?$AAL?$AA?$CJ@ 1006fe60     LIBCMTD:timeset.obj
 0002:00012ea4       ??_C@_1BM@MGEAKPEJ@?$AA_?$AAg?$AAe?$AAt?$AA_?$AAt?$AAi?$AAm?$AAe?$AAz?$AAo?$AAn?$AAe?$AA?$AA@ 1006fea4     LIBCMTD:timeset.obj
 0002:00012ec0       ??_C@_1CI@PODJJGAL@?$AA?$CI?$AA_?$AAT?$AAi?$AAm?$AAe?$AAz?$AAo?$AAn?$AAe?$AA?5?$AA?$CB?$AA?$DN?$AA?5?$AAN?$AAU?$AAL?$AAL?$AA?$CJ?$AA?$AA@ 1006fec0     LIBCMTD:timeset.obj
 0002:00012ee8       ??_C@_1DG@HLGKANIP@?$AA_?$AAI?$AAn?$AAd?$AAe?$AAx?$AA?5?$AA?$DN?$AA?$DN?$AA?5?$AA0?$AA?5?$AA?$HM?$AA?$HM?$AA?5?$AA_?$AAI?$AAn?$AAd?$AAe?$AAx?$AA?5?$AA?$DN?$AA?$DN?$AA?5?$AA1?$AA?$AA@ 1006fee8     LIBCMTD:timeset.obj
 0002:00012f20       ??_C@_1CK@GBKHKEI@?$AA_?$AAR?$AAe?$AAt?$AAu?$AAr?$AAn?$AAV?$AAa?$AAl?$AAu?$AAe?$AA?5?$AA?$CB?$AA?$DN?$AA?5?$AAN?$AAU?$AAL?$AAL?$AA?$AA@ 1006ff20     LIBCMTD:timeset.obj
 0002:00012f4c       ??_C@_1BI@BHCKCCFA@?$AA_?$AAg?$AAe?$AAt?$AA_?$AAt?$AAz?$AAn?$AAa?$AAm?$AAe?$AA?$AA@ 1006ff4c     LIBCMTD:timeset.obj
 0002:00012f68       ??_C@_1KA@POFLNEC@?$AA?$CI?$AA_?$AAB?$AAu?$AAf?$AAf?$AAe?$AAr?$AA?5?$AA?$CB?$AA?$DN?$AA?5?$AAN?$AAU?$AAL?$AAL?$AA?5?$AA?$CG?$AA?$CG?$AA?5?$AA_?$AAS?$AAi?$AAz?$AAe?$AAI?$AAn?$AAB?$AAy?$AAt?$AAe?$AAs@ 1006ff68     LIBCMTD:timeset.obj
 0002:00013008       ??_C@_1EA@GEPBEDLJ@?$AAs?$AAt?$AAr?$AAn?$AAc?$AAp?$AAy?$AA_?$AAs?$AA?$CI?$AAt?$AAz?$AAn?$AAa?$AAm?$AAe?$AA?$FL?$AA1?$AA?$FN?$AA?0?$AA?5?$AA6?$AA4?$AA?0?$AA?5?$AAT?$AAZ?$AA?0?$AA?5?$AA3?$AA?$CJ?$AA?$AA@ 10070008     LIBCMTD:tzset.obj
 0002:00013048       ??_C@_1EA@FIJBKALB@?$AAs?$AAt?$AAr?$AAn?$AAc?$AAp?$AAy?$AA_?$AAs?$AA?$CI?$AAt?$AAz?$AAn?$AAa?$AAm?$AAe?$AA?$FL?$AA0?$AA?$FN?$AA?0?$AA?5?$AA6?$AA4?$AA?0?$AA?5?$AAT?$AAZ?$AA?0?$AA?5?$AA3?$AA?$CJ?$AA?$AA@ 10070048     LIBCMTD:tzset.obj
 0002:00013088       ??_C@_1EK@MCAIMDPB@?$AAs?$AAt?$AAr?$AAc?$AAp?$AAy?$AA_?$AAs?$AA?$CI?$AAl?$AAa?$AAs?$AAt?$AAT?$AAZ?$AA?0?$AA?5?$AAs?$AAt?$AAr?$AAl?$AAe?$AAn?$AA?$CI?$AAT?$AAZ?$AA?$CJ?$AA?5?$AA?$CL?$AA?5?$AA1?$AA?0@ 10070088     LIBCMTD:tzset.obj
 0002:000130d4       ??_C@_07LOOFNDIO@tzset?4c?$AA@ 100700d4     LIBCMTD:tzset.obj
 0002:000130dc       ??_C@_02CLFPBFFP@TZ?$AA@   100700dc     LIBCMTD:tzset.obj
 0002:000130e0       ??_C@_1CO@IMMOMMCB@?$AA_?$AAg?$AAe?$AAt?$AA_?$AAd?$AAs?$AAt?$AAb?$AAi?$AAa?$AAs?$AA?$CI?$AA?$CG?$AAd?$AAs?$AAt?$AAb?$AAi?$AAa?$AAs?$AA?$CJ?$AA?$AA@ 100700e0     LIBCMTD:tzset.obj
 0002:00013110       ??_C@_1DC@MEHEMOPB@?$AA_?$AAg?$AAe?$AAt?$AA_?$AAd?$AAa?$AAy?$AAl?$AAi?$AAg?$AAh?$AAt?$AA?$CI?$AA?$CG?$AAd?$AAa?$AAy?$AAl?$AAi?$AAg?$AAh?$AAt?$AA?$CJ?$AA?$AA@ 10070110     LIBCMTD:tzset.obj
 0002:00013144       ??_C@_1DC@CMKCHHFC@?$AA_?$AAg?$AAe?$AAt?$AA_?$AAt?$AAi?$AAm?$AAe?$AAz?$AAo?$AAn?$AAe?$AA?$CI?$AA?$CG?$AAt?$AAi?$AAm?$AAe?$AAz?$AAo?$AAn?$AAe?$AA?$CJ?$AA?$AA@ 10070144     LIBCMTD:tzset.obj
 0002:00013178       ??_C@_1BM@IIODHMJC@?$AA_?$AAt?$AAz?$AAs?$AAe?$AAt?$AA_?$AAn?$AAo?$AAl?$AAo?$AAc?$AAk?$AA?$AA@ 10070178     LIBCMTD:tzset.obj
 0002:00013194       ??_C@_1BA@HIHOBNBL@?$AAt?$AAz?$AAs?$AAe?$AAt?$AA?4?$AAc?$AA?$AA@ 10070194     LIBCMTD:tzset.obj
 0002:000131a4       ??_C@_1CA@GOLIIEDM@?$AA_?$AAi?$AAs?$AAi?$AAn?$AAd?$AAs?$AAt?$AA_?$AAn?$AAo?$AAl?$AAo?$AAc?$AAk?$AA?$AA@ 100701a4     LIBCMTD:tzset.obj
 0002:000131c4       ??_C@_1BA@GOCKIDGO@?$AAc?$AAv?$AAt?$AAd?$AAa?$AAt?$AAe?$AA?$AA@ 100701c4     LIBCMTD:tzset.obj
 0002:000131d4       ??_C@_1BG@GLLONOEH@?$AA_?$AAs?$AAt?$AAr?$AAi?$AAc?$AAm?$AAp?$AA_?$AAl?$AA?$AA@ 100701d4     LIBCMTD:stricmp.obj
 0002:000131ec       ??_C@_1BE@OLHMELNO@?$AAs?$AAt?$AAr?$AAi?$AAc?$AAm?$AAp?$AA?4?$AAc?$AA?$AA@ 100701ec     LIBCMTD:stricmp.obj
 0002:00013200       ??_C@_1BC@JLGKKIIG@?$AA_?$AAs?$AAt?$AAr?$AAi?$AAc?$AAm?$AAp?$AA?$AA@ 10070200     LIBCMTD:stricmp.obj
 0002:00013214       ??_C@_1CC@JLPHKJPH@?$AAc?$AAo?$AAu?$AAn?$AAt?$AA?5?$AA?$DM?$AA?$DN?$AA?5?$AAI?$AAN?$AAT?$AA_?$AAM?$AAA?$AAX?$AA?$AA@ 10070214     LIBCMTD:strnicmp.obj
 0002:00013238       ??_C@_1BI@BJLEPLEF@?$AA_?$AAs?$AAt?$AAr?$AAn?$AAi?$AAc?$AAm?$AAp?$AA_?$AAl?$AA?$AA@ 10070238     LIBCMTD:strnicmp.obj
 0002:00013250       ??_C@_1BG@DAODMAPG@?$AAs?$AAt?$AAr?$AAn?$AAi?$AAc?$AAm?$AAp?$AA?4?$AAc?$AA?$AA@ 10070250     LIBCMTD:strnicmp.obj
 0002:00013268       ??_C@_1BE@BHJDFFNA@?$AA_?$AAs?$AAt?$AAr?$AAn?$AAi?$AAc?$AAm?$AAp?$AA?$AA@ 10070268     LIBCMTD:strnicmp.obj
 0002:0001327c       ??_C@_09MGNHMPHC@osfinfo?4c?$AA@ 1007027c     LIBCMTD:osfinfo.obj
 0002:00013288       ??_C@_1BO@EMBOBGKE@?$AA_?$AAg?$AAe?$AAt?$AA_?$AAo?$AAs?$AAf?$AAh?$AAa?$AAn?$AAd?$AAl?$AAe?$AA?$AA@ 10070288     LIBCMTD:osfinfo.obj
 0002:000132a8       ??_C@_1BE@MIGAHMPD@?$AAo?$AAs?$AAf?$AAi?$AAn?$AAf?$AAo?$AA?4?$AAc?$AA?$AA@ 100702a8     LIBCMTD:osfinfo.obj
 0002:000132bc       ??_C@_1BA@NGNGNDEP@?$AA_?$AAc?$AAp?$AAu?$AAt?$AAw?$AAs?$AA?$AA@ 100702bc     LIBCMTD:putwch.obj
 0002:000132cc       ??_C@_1BC@HKEJKGAG@?$AAp?$AAu?$AAt?$AAw?$AAc?$AAh?$AA?4?$AAc?$AA?$AA@ 100702cc     LIBCMTD:putwch.obj
 0002:000132e0       ??_C@_09IFKHNCOH@_sftbuf?4c?$AA@ 100702e0     LIBCMTD:_sftbuf.obj
 0002:000132ec       ??_C@_1BE@DFMOKHKL@?$AA_?$AAs?$AAf?$AAt?$AAb?$AAu?$AAf?$AA?4?$AAc?$AA?$AA@ 100702ec     LIBCMTD:_sftbuf.obj
 0002:00013300       ??_C@_1CO@KCKAACMI@?$AAf?$AAl?$AAa?$AAg?$AA?5?$AA?$DN?$AA?$DN?$AA?5?$AA0?$AA?5?$AA?$HM?$AA?$HM?$AA?5?$AAf?$AAl?$AAa?$AAg?$AA?5?$AA?$DN?$AA?$DN?$AA?5?$AA1?$AA?$AA@ 10070300     LIBCMTD:_sftbuf.obj
 0002:00013330       ??_C@_1BO@JGFPDJCP@?$AAv?$AAp?$AAr?$AAi?$AAn?$AAt?$AAf?$AA_?$AAh?$AAe?$AAl?$AAp?$AAe?$AAr?$AA?$AA@ 10070330     LIBCMTD:vprintf.obj
 0002:00013350       ??_C@_1BE@DEJONPKH@?$AAv?$AAp?$AAr?$AAi?$AAn?$AAt?$AAf?$AA?4?$AAc?$AA?$AA@ 10070350     LIBCMTD:vprintf.obj
 0002:00013368       ??_C@_1GE@DJLAMNDK@?$AAf?$AA?3?$AA?2?$AAr?$AAt?$AAm?$AA?2?$AAv?$AAc?$AAt?$AAo?$AAo?$AAl?$AAs?$AA?2?$AAc?$AAr?$AAt?$AA_?$AAb?$AAl?$AAd?$AA?2?$AAs?$AAe?$AAl?$AAf?$AA_?$AAx?$AA8?$AA6?$AA?2@ 10070368     LIBCMTD:_flswbuf.obj
 0002:000133cc       ??_C@_1BA@BMMDEPNE@?$AAs?$AAt?$AAr?$AAt?$AAo?$AAx?$AAq?$AA?$AA@ 100703cc     LIBCMTD:strtoq.obj
 0002:000133dc       ??_C@_1BC@MIDDLJDN@?$AAs?$AAt?$AAr?$AAt?$AAo?$AAq?$AA?4?$AAc?$AA?$AA@ 100703dc     LIBCMTD:strtoq.obj
 0002:000133f0       ??_C@_1FA@HILOOCMA@?$AA?$CI?$AA_?$AAt?$AAc?$AAs?$AAn?$AAl?$AAe?$AAn?$AA?$CI?$AAo?$AAp?$AAt?$AAi?$AAo?$AAn?$AA?0?$AA?5?$AA_?$AAM?$AAA?$AAX?$AA_?$AAE?$AAN?$AAV?$AA?$CJ?$AA?5?$AA?$DM?$AA?5?$AA_?$AAM@ 100703f0     LIBCMTD:getenv.obj
 0002:00013440       ??_C@_1O@GMKGKCJO@?$AAg?$AAe?$AAt?$AAe?$AAn?$AAv?$AA?$AA@ 10070440     LIBCMTD:getenv.obj
 0002:00013450       ??_C@_1BC@CPAPBFCO@?$AAg?$AAe?$AAt?$AAe?$AAn?$AAv?$AA?4?$AAc?$AA?$AA@ 10070450     LIBCMTD:getenv.obj
 0002:00013464       ??_C@_1CC@FKAOHHLO@?$AA?$CI?$AAo?$AAp?$AAt?$AAi?$AAo?$AAn?$AA?5?$AA?$CB?$AA?$DN?$AA?5?$AAN?$AAU?$AAL?$AAL?$AA?$CJ?$AA?$AA@ 10070464     LIBCMTD:getenv.obj
 0002:00013488       ??_C@_1GI@JBIFPFJH@?$AA_?$AAt?$AAc?$AAs?$AAn?$AAl?$AAe?$AAn?$AA?$CI?$AA?$CK?$AAs?$AAe?$AAa?$AAr?$AAc?$AAh?$AA?5?$AA?$CL?$AA?5?$AAl?$AAe?$AAn?$AAg?$AAt?$AAh?$AA?5?$AA?$CL?$AA?5?$AA1?$AA?0?$AA?5?$AA_@ 10070488     LIBCMTD:getenv.obj
 0002:000134f0       ??_C@_1EI@HHOBPCFK@?$AAs?$AAt?$AAr?$AAc?$AAp?$AAy?$AA_?$AAs?$AA?$CI?$AAb?$AAu?$AAf?$AAf?$AAe?$AAr?$AA?0?$AA?5?$AAs?$AAi?$AAz?$AAe?$AAI?$AAn?$AAT?$AAC?$AAh?$AAa?$AAr?$AAs?$AA?0?$AA?5?$AAs@ 100704f0     LIBCMTD:getenv.obj
 0002:00013538       ??_C@_1JM@NLPGJJPH@?$AA?$CI?$AAb?$AAu?$AAf?$AAf?$AAe?$AAr?$AA?5?$AA?$CB?$AA?$DN?$AA?5?$AAN?$AAU?$AAL?$AAL?$AA?5?$AA?$CG?$AA?$CG?$AA?5?$AAs?$AAi?$AAz?$AAe?$AAI?$AAn?$AAT?$AAC?$AAh?$AAa?$AAr?$AAs?$AA?5@ 10070538     LIBCMTD:getenv.obj
 0002:000135d4       ??_C@_1CC@BAJKDIIF@?$AA_?$AAg?$AAe?$AAt?$AAe?$AAn?$AAv?$AA_?$AAs?$AA_?$AAh?$AAe?$AAl?$AAp?$AAe?$AAr?$AA?$AA@ 100705d4     LIBCMTD:getenv.obj
 0002:000135f8       ??_C@_1CK@PIKDAOCL@?$AAp?$AAR?$AAe?$AAt?$AAu?$AAr?$AAn?$AAV?$AAa?$AAl?$AAu?$AAe?$AA?5?$AA?$CB?$AA?$DN?$AA?5?$AAN?$AAU?$AAL?$AAL?$AA?$AA@ 100705f8     LIBCMTD:getenv.obj
 0002:00013624       ??_C@_1DM@GNKNEGJO@?$AAs?$AAt?$AAr?$AAc?$AAp?$AAy?$AA_?$AAs?$AA?$CI?$AA?$CK?$AAp?$AAB?$AAu?$AAf?$AAf?$AAe?$AAr?$AA?0?$AA?5?$AAs?$AAi?$AAz?$AAe?$AA?0?$AA?5?$AAs?$AAt?$AAr?$AA?$CJ?$AA?$AA@ 10070624     LIBCMTD:getenv.obj
 0002:00013660       ??_C@_1CA@GDBKELOE@?$AAv?$AAa?$AAr?$AAn?$AAa?$AAm?$AAe?$AA?5?$AA?$CB?$AA?$DN?$AA?5?$AAN?$AAU?$AAL?$AAL?$AA?$AA@ 10070660     LIBCMTD:getenv.obj
 0002:00013680       ??_C@_1CC@KPLOPIEM@?$AA_?$AAd?$AAu?$AAp?$AAe?$AAn?$AAv?$AA_?$AAs?$AA_?$AAh?$AAe?$AAl?$AAp?$AAe?$AAr?$AA?$AA@ 10070680     LIBCMTD:getenv.obj
 0002:000136a4       ??_C@_1CA@FHNFMDOJ@?$AAp?$AAB?$AAu?$AAf?$AAf?$AAe?$AAr?$AA?5?$AA?$CB?$AA?$DN?$AA?5?$AAN?$AAU?$AAL?$AAL?$AA?$AA@ 100706a4     LIBCMTD:getenv.obj
 0002:000136c4       ??_C@_06GDENEHCP@CONIN$?$AA@ 100706c4     LIBCMTD:initcon.obj
 0002:000136cc       ??_C@_07GPDNMNG@CONOUT$?$AA@ 100706cc     LIBCMTD:initcon.obj
 0002:000136d4       ??_C@_1O@EGMJNCOI@?$AAf?$AAc?$AAl?$AAo?$AAs?$AAe?$AA?$AA@ 100706d4     LIBCMTD:fclose.obj
 0002:000136e4       ??_C@_1BC@MHEDMIA@?$AAf?$AAc?$AAl?$AAo?$AAs?$AAe?$AA?4?$AAc?$AA?$AA@ 100706e4     LIBCMTD:fclose.obj
 0002:000136f8       ??_C@_1BO@JINCABEC@?$AA_?$AAf?$AAc?$AAl?$AAo?$AAs?$AAe?$AA_?$AAn?$AAo?$AAl?$AAo?$AAc?$AAk?$AA?$AA@ 100706f8     LIBCMTD:fclose.obj
 0002:00013718       ??_C@_1DG@LNNHNFHJ@?$AA?$CI?$AA_?$AAo?$AAs?$AAf?$AAi?$AAl?$AAe?$AA?$CI?$AAf?$AAi?$AAl?$AAe?$AAd?$AAe?$AAs?$AA?$CJ?$AA?5?$AA?$CG?$AA?5?$AAF?$AAO?$AAP?$AAE?$AAN?$AA?$CJ?$AA?$AA@ 10070718     LIBCMTD:commit.obj
 0002:00013750       ??_C@_1BA@FLNMBBIM@?$AA_?$AAc?$AAo?$AAm?$AAm?$AAi?$AAt?$AA?$AA@ 10070750     LIBCMTD:commit.obj
 0002:00013760       ??_C@_1BC@LOAFNBNC@?$AAc?$AAo?$AAm?$AAm?$AAi?$AAt?$AA?4?$AAc?$AA?$AA@ 10070760     LIBCMTD:commit.obj
 0002:00013778       ??_C@_1HC@KFLBHHBC@?$AA?$CI?$AAf?$AAi?$AAl?$AAe?$AAd?$AAe?$AAs?$AA?5?$AA?$DO?$AA?$DN?$AA?5?$AA0?$AA?5?$AA?$CG?$AA?$CG?$AA?5?$AA?$CI?$AAu?$AAn?$AAs?$AAi?$AAg?$AAn?$AAe?$AAd?$AA?$CJ?$AAf?$AAi?$AAl?$AAe?$AAd@ 10070778     LIBCMTD:commit.obj
 0002:000137ec       ??_C@_1BG@GBJNMPFA@?$AAs?$AA2?$AA?5?$AA?$CB?$AA?$DN?$AA?5?$AAN?$AAU?$AAL?$AAL?$AA?$AA@ 100707ec     LIBCMTD:mbsnbico.obj
 0002:00013804       ??_C@_1BM@FKNNDAHH@?$AA_?$AAm?$AAb?$AAs?$AAn?$AAb?$AAi?$AAc?$AAo?$AAl?$AAl?$AA_?$AAl?$AA?$AA@ 10070804     LIBCMTD:mbsnbico.obj
 0002:00013820       ??_C@_1BG@MHEMLGJO@?$AAm?$AAb?$AAs?$AAn?$AAb?$AAi?$AAc?$AAo?$AA?4?$AAc?$AA?$AA@ 10070820     LIBCMTD:mbsnbico.obj
 0002:00013838       ??_C@_1BG@MODEICJK@?$AAs?$AA1?$AA?5?$AA?$CB?$AA?$DN?$AA?5?$AAN?$AAU?$AAL?$AAL?$AA?$AA@ 10070838     LIBCMTD:mbsnbico.obj
 0002:00013850       ??_C@_0L@CELCHBFJ@wtombenv?4c?$AA@ 10070850     LIBCMTD:wtombenv.obj
 0002:0001385c       ??_C@_1O@EDEJGJBM@?$AA_?$AAc?$AAl?$AAo?$AAs?$AAe?$AA?$AA@ 1007085c     LIBCMTD:close.obj
 0002:0001386c       ??_C@_1BA@GOGDMMEN@?$AAc?$AAl?$AAo?$AAs?$AAe?$AA?4?$AAc?$AA?$AA@ 1007086c     LIBCMTD:close.obj
 0002:0001387c       ??_C@_1BG@BCLADFND@?$AA_?$AAf?$AAr?$AAe?$AAe?$AAb?$AAu?$AAf?$AA?4?$AAc?$AA?$AA@ 1007087c     LIBCMTD:_freebuf.obj
 0002:00013894       ??_C@_1BO@KIJENGPH@?$AAs?$AAt?$AAr?$AAe?$AAa?$AAm?$AA?5?$AA?$CB?$AA?$DN?$AA?5?$AAN?$AAU?$AAL?$AAL?$AA?$AA@ 10070894     LIBCMTD:_freebuf.obj
 0002:000138b4       ??_C@_1BA@DGECELNE@?$AAa?$AA_?$AAc?$AAm?$AAp?$AA?4?$AAc?$AA?$AA@ 100708b4     LIBCMTD:a_cmp.obj
 0002:000138c8       ??_C@_1HK@ELDMAMK@?$AAc?$AAc?$AAh?$AAC?$AAo?$AAu?$AAn?$AAt?$AA1?$AA?$DN?$AA?$DN?$AA0?$AA?5?$AA?$CG?$AA?$CG?$AA?5?$AAc?$AAc?$AAh?$AAC?$AAo?$AAu?$AAn?$AAt?$AA2?$AA?$DN?$AA?$DN?$AA1?$AA?5?$AA?$HM?$AA?$HM?$AA?5@ 100708c8     LIBCMTD:a_cmp.obj
 0002:00013944       ??_C@_1CC@CNADELFK@?$AA_?$AAs?$AAt?$AAr?$AAi?$AAn?$AAg?$AA2?$AA?5?$AA?$CB?$AA?$DN?$AA?5?$AAN?$AAU?$AAL?$AAL?$AA?$AA@ 10070944     LIBCMTD:strnicol.obj
 0002:00013968       ??_C@_1BK@IOJEBPLP@?$AA_?$AAs?$AAt?$AAr?$AAn?$AAi?$AAc?$AAo?$AAl?$AAl?$AA_?$AAl?$AA?$AA@ 10070968     LIBCMTD:strnicol.obj
 0002:00013984       ??_C@_1BG@BPACDEKP@?$AAs?$AAt?$AAr?$AAn?$AAi?$AAc?$AAo?$AAl?$AA?4?$AAc?$AA?$AA@ 10070984     LIBCMTD:strnicol.obj
 0002:0001399c       ??_C@_1CC@ICKKAGJA@?$AA_?$AAs?$AAt?$AAr?$AAi?$AAn?$AAg?$AA1?$AA?5?$AA?$CB?$AA?$DN?$AA?5?$AAN?$AAU?$AAL?$AAL?$AA?$AA@ 1007099c     LIBCMTD:strnicol.obj
 0002:000139c0       ??_C@_1FG@OKIAKKPK@?$AAs?$AAt?$AAr?$AAc?$AAp?$AAy?$AA_?$AAs?$AA?$CI?$AAn?$AAa?$AAm?$AAe?$AA?0?$AA?5?$AAs?$AAt?$AAr?$AAl?$AAe?$AAn?$AA?$CI?$AAo?$AAp?$AAt?$AAi?$AAo?$AAn?$AA?$CJ?$AA?5?$AA?$CL?$AA?5@ 100709c0     LIBCMTD:setenv.obj
 0002:00013a18       ??_C@_1EI@GHDNAPMG@?$AA?$CI?$AA?$CC?$AAC?$AAR?$AAT?$AA?5?$AAL?$AAo?$AAg?$AAi?$AAc?$AA?5?$AAe?$AAr?$AAr?$AAo?$AAr?$AA?5?$AAd?$AAu?$AAr?$AAi?$AAn?$AAg?$AA?5?$AAs?$AAe?$AAt?$AAe?$AAn?$AAv?$AA?$CC@ 10070a18     LIBCMTD:setenv.obj
 0002:00013a60       ??_C@_08BMJILFKN@setenv?4c?$AA@ 10070a60     LIBCMTD:setenv.obj
 0002:00013a70       ??_C@_1FC@EEJIEIDF@?$AA_?$AAt?$AAc?$AAs?$AAn?$AAl?$AAe?$AAn?$AA?$CI?$AAe?$AAq?$AAu?$AAa?$AAl?$AA?5?$AA?$CL?$AA?5?$AA1?$AA?0?$AA?5?$AA_?$AAM?$AAA?$AAX?$AA_?$AAE?$AAN?$AAV?$AA?$CJ?$AA?5?$AA?$DM?$AA?5@ 10070a70     LIBCMTD:setenv.obj
 0002:00013ac4       ??_C@_1DE@EEHFNNGH@?$AAe?$AAq?$AAu?$AAa?$AAl?$AA?5?$AA?9?$AA?5?$AAo?$AAp?$AAt?$AAi?$AAo?$AAn?$AA?5?$AA?$DM?$AA?5?$AA_?$AAM?$AAA?$AAX?$AA_?$AAE?$AAN?$AAV?$AA?$AA@ 10070ac4     LIBCMTD:setenv.obj
 0002:00013af8       ??_C@_1BI@CDAFOAAL@?$AA_?$AA_?$AAc?$AAr?$AAt?$AAs?$AAe?$AAt?$AAe?$AAn?$AAv?$AA?$AA@ 10070af8     LIBCMTD:setenv.obj
 0002:00013b10       ??_C@_1BC@KAEJODA@?$AAs?$AAe?$AAt?$AAe?$AAn?$AAv?$AA?4?$AAc?$AA?$AA@ 10070b10     LIBCMTD:setenv.obj
 0002:00013b24       ??_C@_1CA@LMBEKBDN@?$AAp?$AAo?$AAp?$AAt?$AAi?$AAo?$AAn?$AA?5?$AA?$CB?$AA?$DN?$AA?5?$AAN?$AAU?$AAL?$AAL?$AA?$AA@ 10070b24     LIBCMTD:setenv.obj
 0002:00013b48       ??_C@_1FK@DNFLNPD@?$AAs?$AAt?$AAr?$AAc?$AAp?$AAy?$AA_?$AAs?$AA?$CI?$AA?$CK?$AAn?$AAe?$AAw?$AAe?$AAn?$AAv?$AAp?$AAt?$AAr?$AA?0?$AA?5?$AAe?$AAn?$AAv?$AAp?$AAt?$AAr?$AAS?$AAi?$AAz?$AAe?$AA?0@ 10070b48     LIBCMTD:setenv.obj
 0002:00013ba4       ??_C@_1BK@ECKIJLPM@?$AAc?$AAo?$AAp?$AAy?$AA_?$AAe?$AAn?$AAv?$AAi?$AAr?$AAo?$AAn?$AA?$AA@ 10070ba4     LIBCMTD:setenv.obj
 0002:00013bc0       ??_C@_1BE@JKKFLIKJ@?$AA_?$AAm?$AAb?$AAs?$AAc?$AAh?$AAr?$AA_?$AAl?$AA?$AA@ 10070bc0     LIBCMTD:mbschr.obj
 0002:00013bd4       ??_C@_1BC@MDNHFJEJ@?$AAm?$AAb?$AAs?$AAc?$AAh?$AAr?$AA?4?$AAc?$AA?$AA@ 10070bd4     LIBCMTD:mbschr.obj
 0002:00013be8       ??_C@_1BO@JIBAMMGI@?$AAs?$AAt?$AAr?$AAi?$AAn?$AAg?$AA?5?$AA?$CB?$AA?$DN?$AA?5?$AAN?$AAU?$AAL?$AAL?$AA?$AA@ 10070be8     LIBCMTD:mbschr.obj
 0002:00013c08       __load_config_used         10070c08     LIBCMTD:loadcfg.obj
 0002:00013cb8       ??_R4?$CComObjectCached@VCComClassFactory@ATL@@@ATL@@6B@ 10070cb8     EventFiringObject.obj
 0002:00013ccc       ??_R3?$CComObjectCached@VCComClassFactory@ATL@@@ATL@@8 10070ccc     EventFiringObject.obj
 0002:00013cdc       ??_R2?$CComObjectCached@VCComClassFactory@ATL@@@ATL@@8 10070cdc     EventFiringObject.obj
 0002:00013cf8       ??_R1A@?0A@EA@?$CComObjectCached@VCComClassFactory@ATL@@@ATL@@8 10070cf8     EventFiringObject.obj
 0002:00013d14       ??_R1A@?0A@EA@CComClassFactory@ATL@@8 10070d14     EventFiringObject.obj
 0002:00013d30       ??_R3CComClassFactory@ATL@@8 10070d30     EventFiringObject.obj
 0002:00013d40       ??_R2CComClassFactory@ATL@@8 10070d40     EventFiringObject.obj
 0002:00013d58       ??_R1A@?0A@EA@IClassFactory@@8 10070d58     EventFiringObject.obj
 0002:00013d74       ??_R3IClassFactory@@8      10070d74     EventFiringObject.obj
 0002:00013d84       ??_R2IClassFactory@@8      10070d84     EventFiringObject.obj
 0002:00013d90       ??_R1A@?0A@EA@IUnknown@@8  10070d90     EventFiringObject.obj
 0002:00013dac       ??_R3IUnknown@@8           10070dac     EventFiringObject.obj
 0002:00013dbc       ??_R2IUnknown@@8           10070dbc     EventFiringObject.obj
 0002:00013dc4       ??_R13?0A@EA@?$CComObjectRootEx@VCComMultiThreadModel@ATL@@@ATL@@8 10070dc4     EventFiringObject.obj
 0002:00013de0       ??_R3?$CComObjectRootEx@VCComMultiThreadModel@ATL@@@ATL@@8 10070de0     EventFiringObject.obj
 0002:00013df0       ??_R2?$CComObjectRootEx@VCComMultiThreadModel@ATL@@@ATL@@8 10070df0     EventFiringObject.obj
 0002:00013dfc       ??_R1A@?0A@EA@?$CComObjectRootEx@VCComMultiThreadModel@ATL@@@ATL@@8 10070dfc     EventFiringObject.obj
 0002:00013e18       ??_R1A@?0A@EA@CComObjectRootBase@ATL@@8 10070e18     EventFiringObject.obj
 0002:00013e34       ??_R3CComObjectRootBase@ATL@@8 10070e34     EventFiringObject.obj
 0002:00013e44       ??_R2CComObjectRootBase@ATL@@8 10070e44     EventFiringObject.obj
 0002:00013e4c       ??_R13?0A@EA@CComObjectRootBase@ATL@@8 10070e4c     EventFiringObject.obj
 0002:00013e68       ??_R4CComClassFactory@ATL@@6B@ 10070e68     EventFiringObject.obj
 0002:00013e7c       ??_R4?$CComObject@VCEventFiringObject@@@ATL@@6BISupportErrorInfo@@@ 10070e7c     EventFiringObject.obj
 0002:00013e90       ??_R3?$CComObject@VCEventFiringObject@@@ATL@@8 10070e90     EventFiringObject.obj
 0002:00013ea0       ??_R2?$CComObject@VCEventFiringObject@@@ATL@@8 10070ea0     EventFiringObject.obj
 0002:00013ee8       ??_R1A@?0A@EA@?$CComObject@VCEventFiringObject@@@ATL@@8 10070ee8     EventFiringObject.obj
 0002:00013f04       ??_R1A@?0A@EA@CEventFiringObject@@8 10070f04     EventFiringObject.obj
 0002:00013f20       ??_R3CEventFiringObject@@8 10070f20     EventFiringObject.obj
 0002:00013f30       ??_R2CEventFiringObject@@8 10070f30     EventFiringObject.obj
 0002:00013f74       ??_R1BI@?0A@EA@?$CComObjectRootEx@VCComSingleThreadModel@ATL@@@ATL@@8 10070f74     EventFiringObject.obj
 0002:00013f90       ??_R3?$CComObjectRootEx@VCComSingleThreadModel@ATL@@@ATL@@8 10070f90     EventFiringObject.obj
 0002:00013fa0       ??_R2?$CComObjectRootEx@VCComSingleThreadModel@ATL@@@ATL@@8 10070fa0     EventFiringObject.obj
 0002:00013fac       ??_R1A@?0A@EA@?$CComObjectRootEx@VCComSingleThreadModel@ATL@@@ATL@@8 10070fac     EventFiringObject.obj
 0002:00013fc8       ??_R1BI@?0A@EA@CComObjectRootBase@ATL@@8 10070fc8     EventFiringObject.obj
 0002:00013fe4       ??_R1BM@?0A@EA@?$CComCoClass@VCEventFiringObject@@$1?CLSID_EventFiringObject@@3U_GUID@@B@ATL@@8 10070fe4     EventFiringObject.obj
 0002:00014000       ??_R3?$CComCoClass@VCEventFiringObject@@$1?CLSID_EventFiringObject@@3U_GUID@@B@ATL@@8 10071000     EventFiringObject.obj
 0002:00014010       ??_R2?$CComCoClass@VCEventFiringObject@@$1?CLSID_EventFiringObject@@3U_GUID@@B@ATL@@8 10071010     EventFiringObject.obj
 0002:00014018       ??_R1A@?0A@EA@?$CComCoClass@VCEventFiringObject@@$1?CLSID_EventFiringObject@@3U_GUID@@B@ATL@@8 10071018     EventFiringObject.obj
 0002:00014034       ??_R1A@?0A@EA@ISupportErrorInfo@@8 10071034     EventFiringObject.obj
 0002:00014050       ??_R3ISupportErrorInfo@@8  10071050     EventFiringObject.obj
 0002:00014060       ??_R2ISupportErrorInfo@@8  10071060     EventFiringObject.obj
 0002:0001406c       ??_R1A@?0A@EC@IUnknown@@8  1007106c     EventFiringObject.obj
 0002:00014088       ??_R13?0A@EA@?$IConnectionPointContainerImpl@VCEventFiringObject@@@ATL@@8 10071088     EventFiringObject.obj
 0002:000140a4       ??_R3?$IConnectionPointContainerImpl@VCEventFiringObject@@@ATL@@8 100710a4     EventFiringObject.obj
 0002:000140b4       ??_R2?$IConnectionPointContainerImpl@VCEventFiringObject@@@ATL@@8 100710b4     EventFiringObject.obj
 0002:000140c4       ??_R1A@?0A@EA@?$IConnectionPointContainerImpl@VCEventFiringObject@@@ATL@@8 100710c4     EventFiringObject.obj
 0002:000140e0       ??_R1A@?0A@EA@IConnectionPointContainer@@8 100710e0     EventFiringObject.obj
 0002:000140fc       ??_R3IConnectionPointContainer@@8 100710fc     EventFiringObject.obj
 0002:0001410c       ??_R2IConnectionPointContainer@@8 1007110c     EventFiringObject.obj
 0002:00014118       ??_R13?0A@EA@IConnectionPointContainer@@8 10071118     EventFiringObject.obj
 0002:00014134       ??_R13?0A@EC@IUnknown@@8   10071134     EventFiringObject.obj
 0002:00014150       ??_R17?0A@EA@?$IDispatchImpl@UIEventFiringObject@@$1?IID_IEventFiringObject@@3U_GUID@@B$1?LIBID_EVENTFIRINGOBJECTLib@@3U3@B$00$0A@VCComTypeInfoHolder@ATL@@@ATL@@8 10071150     EventFiringObject.obj
 0002:0001416c       ??_R3?$IDispatchImpl@UIEventFiringObject@@$1?IID_IEventFiringObject@@3U_GUID@@B$1?LIBID_EVENTFIRINGOBJECTLib@@3U3@B$00$0A@VCComTypeInfoHolder@ATL@@@ATL@@8 1007116c     EventFiringObject.obj
 0002:0001417c       ??_R2?$IDispatchImpl@UIEventFiringObject@@$1?IID_IEventFiringObject@@3U_GUID@@B$1?LIBID_EVENTFIRINGOBJECTLib@@3U3@B$00$0A@VCComTypeInfoHolder@ATL@@@ATL@@8 1007117c     EventFiringObject.obj
 0002:00014190       ??_R1A@?0A@EA@?$IDispatchImpl@UIEventFiringObject@@$1?IID_IEventFiringObject@@3U_GUID@@B$1?LIBID_EVENTFIRINGOBJECTLib@@3U3@B$00$0A@VCComTypeInfoHolder@ATL@@@ATL@@8 10071190     EventFiringObject.obj
 0002:000141ac       ??_R1A@?0A@EA@IEventFiringObject@@8 100711ac     EventFiringObject.obj
 0002:000141c8       ??_R3IEventFiringObject@@8 100711c8     EventFiringObject.obj
 0002:000141d8       ??_R2IEventFiringObject@@8 100711d8     EventFiringObject.obj
 0002:000141e8       ??_R1A@?0A@EA@IDispatch@@8 100711e8     EventFiringObject.obj
 0002:00014204       ??_R3IDispatch@@8          10071204     EventFiringObject.obj
 0002:00014214       ??_R2IDispatch@@8          10071214     EventFiringObject.obj
 0002:00014220       ??_R17?0A@EA@IEventFiringObject@@8 10071220     EventFiringObject.obj
 0002:0001423c       ??_R17?0A@EA@IDispatch@@8  1007123c     EventFiringObject.obj
 0002:00014258       ??_R17?0A@EC@IUnknown@@8   10071258     EventFiringObject.obj
 0002:00014274       ??_R1M@?0A@EA@?$CProxy_IEventFiringObjectEvents@VCEventFiringObject@@@@8 10071274     EventFiringObject.obj
 0002:00014290       ??_R3?$CProxy_IEventFiringObjectEvents@VCEventFiringObject@@@@8 10071290     EventFiringObject.obj
 0002:000142a0       ??_R2?$CProxy_IEventFiringObjectEvents@VCEventFiringObject@@@@8 100712a0     EventFiringObject.obj
 0002:000142b0       ??_R1A@?0A@EA@?$CProxy_IEventFiringObjectEvents@VCEventFiringObject@@@@8 100712b0     EventFiringObject.obj
 0002:000142cc       ??_R1A@?0A@EA@?$IConnectionPointImpl@VCEventFiringObject@@$1?DIID__IEventFiringObjectEvents@@3U_GUID@@BVCComDynamicUnkArray@ATL@@@ATL@@8 100712cc     EventFiringObject.obj
 0002:000142e8       ??_R3?$IConnectionPointImpl@VCEventFiringObject@@$1?DIID__IEventFiringObjectEvents@@3U_GUID@@BVCComDynamicUnkArray@ATL@@@ATL@@8 100712e8     EventFiringObject.obj
 0002:000142f8       ??_R2?$IConnectionPointImpl@VCEventFiringObject@@$1?DIID__IEventFiringObjectEvents@@3U_GUID@@BVCComDynamicUnkArray@ATL@@@ATL@@8 100712f8     EventFiringObject.obj
 0002:00014304       ??_R1A@?0A@EA@?$_ICPLocator@$1?DIID__IEventFiringObjectEvents@@3U_GUID@@B@ATL@@8 10071304     EventFiringObject.obj
 0002:00014320       ??_R3?$_ICPLocator@$1?DIID__IEventFiringObjectEvents@@3U_GUID@@B@ATL@@8 10071320     EventFiringObject.obj
 0002:00014330       ??_R2?$_ICPLocator@$1?DIID__IEventFiringObjectEvents@@3U_GUID@@B@ATL@@8 10071330     EventFiringObject.obj
 0002:00014338       ??_R1M@?0A@EA@?$IConnectionPointImpl@VCEventFiringObject@@$1?DIID__IEventFiringObjectEvents@@3U_GUID@@BVCComDynamicUnkArray@ATL@@@ATL@@8 10071338     EventFiringObject.obj
 0002:00014354       ??_R1M@?0A@EA@?$_ICPLocator@$1?DIID__IEventFiringObjectEvents@@3U_GUID@@B@ATL@@8 10071354     EventFiringObject.obj
 0002:00014370       ??_R4?$CComObject@VCEventFiringObject@@@ATL@@6B?$IConnectionPointContainerImpl@VCEventFiringObject@@@1@@ 10071370     EventFiringObject.obj
 0002:00014384       ??_R4?$CComObject@VCEventFiringObject@@@ATL@@6B?$IDispatchImpl@UIEventFiringObject@@$1?IID_IEventFiringObject@@3U_GUID@@B$1?LIBID_EVENTFIRINGOBJECTLib@@3U3@B$00$0A@VCComTypeInfoHolder@ATL@@@1@@ 10071384     EventFiringObject.obj
 0002:00014398       ??_R4?$CComObject@VCEventFiringObject@@@ATL@@6B?$CProxy_IEventFiringObjectEvents@VCEventFiringObject@@@@@ 10071398     EventFiringObject.obj
 0002:000143ac       ??_R4?$CProxy_IEventFiringObjectEvents@VCEventFiringObject@@@@6B@ 100713ac     EventFiringObject.obj
 0002:000143c0       ??_R4?$CComObject@V?$CComEnum@UIEnumConnectionPoints@@$1?_GUID_b196b285_bab4_101a_b69c_00aa00341d07@@3U__s_GUID@@BPAUIConnectionPoint@@V?$_CopyInterface@UIConnectionPoint@@@ATL@@VCComSingleThreadModel@6@@ATL@@@ATL@@6B@ 100713c0     EventFiringObject.obj
 0002:000143d4       ??_R3?$CComObject@V?$CComEnum@UIEnumConnectionPoints@@$1?_GUID_b196b285_bab4_101a_b69c_00aa00341d07@@3U__s_GUID@@BPAUIConnectionPoint@@V?$_CopyInterface@UIConnectionPoint@@@ATL@@VCComSingleThreadModel@6@@ATL@@@ATL@@8 100713d4     EventFiringObject.obj
 0002:000143e4       ??_R2?$CComObject@V?$CComEnum@UIEnumConnectionPoints@@$1?_GUID_b196b285_bab4_101a_b69c_00aa00341d07@@3U__s_GUID@@BPAUIConnectionPoint@@V?$_CopyInterface@UIConnectionPoint@@@ATL@@VCComSingleThreadModel@6@@ATL@@@ATL@@8 100713e4     EventFiringObject.obj
 0002:00014404       ??_R1A@?0A@EA@?$CComObject@V?$CComEnum@UIEnumConnectionPoints@@$1?_GUID_b196b285_bab4_101a_b69c_00aa00341d07@@3U__s_GUID@@BPAUIConnectionPoint@@V?$_CopyInterface@UIConnectionPoint@@@ATL@@VCComSingleThreadModel@6@@ATL@@@ATL@@8 10071404     EventFiringObject.obj
 0002:00014420       ??_R1A@?0A@EA@?$CComEnum@UIEnumConnectionPoints@@$1?_GUID_b196b285_bab4_101a_b69c_00aa00341d07@@3U__s_GUID@@BPAUIConnectionPoint@@V?$_CopyInterface@UIConnectionPoint@@@ATL@@VCComSingleThreadModel@6@@ATL@@8 10071420     EventFiringObject.obj
 0002:0001443c       ??_R3?$CComEnum@UIEnumConnectionPoints@@$1?_GUID_b196b285_bab4_101a_b69c_00aa00341d07@@3U__s_GUID@@BPAUIConnectionPoint@@V?$_CopyInterface@UIConnectionPoint@@@ATL@@VCComSingleThreadModel@6@@ATL@@8 1007143c     EventFiringObject.obj
 0002:0001444c       ??_R2?$CComEnum@UIEnumConnectionPoints@@$1?_GUID_b196b285_bab4_101a_b69c_00aa00341d07@@3U__s_GUID@@BPAUIConnectionPoint@@V?$_CopyInterface@UIConnectionPoint@@@ATL@@VCComSingleThreadModel@6@@ATL@@8 1007144c     EventFiringObject.obj
 0002:00014468       ??_R1A@?0A@EA@?$CComEnumImpl@UIEnumConnectionPoints@@$1?_GUID_b196b285_bab4_101a_b69c_00aa00341d07@@3U__s_GUID@@BPAUIConnectionPoint@@V?$_CopyInterface@UIConnectionPoint@@@ATL@@@ATL@@8 10071468     EventFiringObject.obj
 0002:00014484       ??_R3?$CComEnumImpl@UIEnumConnectionPoints@@$1?_GUID_b196b285_bab4_101a_b69c_00aa00341d07@@3U__s_GUID@@BPAUIConnectionPoint@@V?$_CopyInterface@UIConnectionPoint@@@ATL@@@ATL@@8 10071484     EventFiringObject.obj
 0002:00014494       ??_R2?$CComEnumImpl@UIEnumConnectionPoints@@$1?_GUID_b196b285_bab4_101a_b69c_00aa00341d07@@3U__s_GUID@@BPAUIConnectionPoint@@V?$_CopyInterface@UIConnectionPoint@@@ATL@@@ATL@@8 10071494     EventFiringObject.obj
 0002:000144a4       ??_R1A@?0A@EA@IEnumConnectionPoints@@8 100714a4     EventFiringObject.obj
 0002:000144c0       ??_R3IEnumConnectionPoints@@8 100714c0     EventFiringObject.obj
 0002:000144d0       ??_R2IEnumConnectionPoints@@8 100714d0     EventFiringObject.obj
 0002:000144dc       ??_R4?$CComAggObject@VCEventFiringObject@@@ATL@@6B@ 100714dc     EventFiringObject.obj
 0002:000144f0       ??_R3?$CComAggObject@VCEventFiringObject@@@ATL@@8 100714f0     EventFiringObject.obj
 0002:00014500       ??_R2?$CComAggObject@VCEventFiringObject@@@ATL@@8 10071500     EventFiringObject.obj
 0002:00014514       ??_R1A@?0A@EA@?$CComAggObject@VCEventFiringObject@@@ATL@@8 10071514     EventFiringObject.obj
 0002:00014530       ??_R13?0A@EA@?$CComObjectRootEx@VCComSingleThreadModel@ATL@@@ATL@@8 10071530     EventFiringObject.obj
 0002:0001454c       ??_R4?$CComContainedObject@VCEventFiringObject@@@ATL@@6BISupportErrorInfo@@@ 1007154c     EventFiringObject.obj
 0002:00014560       ??_R3?$CComContainedObject@VCEventFiringObject@@@ATL@@8 10071560     EventFiringObject.obj
 0002:00014570       ??_R2?$CComContainedObject@VCEventFiringObject@@@ATL@@8 10071570     EventFiringObject.obj
 0002:000145b8       ??_R1A@?0A@EA@?$CComContainedObject@VCEventFiringObject@@@ATL@@8 100715b8     EventFiringObject.obj
 0002:000145d4       ??_R4?$CComContainedObject@VCEventFiringObject@@@ATL@@6B?$IConnectionPointContainerImpl@VCEventFiringObject@@@1@@ 100715d4     EventFiringObject.obj
 0002:000145e8       ??_R4?$CComContainedObject@VCEventFiringObject@@@ATL@@6B?$IDispatchImpl@UIEventFiringObject@@$1?IID_IEventFiringObject@@3U_GUID@@B$1?LIBID_EVENTFIRINGOBJECTLib@@3U3@B$00$0A@VCComTypeInfoHolder@ATL@@@1@@ 100715e8     EventFiringObject.obj
 0002:000145fc       ??_R4?$CComContainedObject@VCEventFiringObject@@@ATL@@6B?$CProxy_IEventFiringObjectEvents@VCEventFiringObject@@@@@ 100715fc     EventFiringObject.obj
 0002:00014610       ??_R4?$CComObject@V?$CComEnum@UIEnumConnections@@$1?_GUID_b196b287_bab4_101a_b69c_00aa00341d07@@3U__s_GUID@@BUtagCONNECTDATA@@V?$_Copy@UtagCONNECTDATA@@@ATL@@VCComSingleThreadModel@6@@ATL@@@ATL@@6B@ 10071610     EventFiringObject.obj
 0002:00014624       ??_R3?$CComObject@V?$CComEnum@UIEnumConnections@@$1?_GUID_b196b287_bab4_101a_b69c_00aa00341d07@@3U__s_GUID@@BUtagCONNECTDATA@@V?$_Copy@UtagCONNECTDATA@@@ATL@@VCComSingleThreadModel@6@@ATL@@@ATL@@8 10071624     EventFiringObject.obj
 0002:00014634       ??_R2?$CComObject@V?$CComEnum@UIEnumConnections@@$1?_GUID_b196b287_bab4_101a_b69c_00aa00341d07@@3U__s_GUID@@BUtagCONNECTDATA@@V?$_Copy@UtagCONNECTDATA@@@ATL@@VCComSingleThreadModel@6@@ATL@@@ATL@@8 10071634     EventFiringObject.obj
 0002:00014654       ??_R1A@?0A@EA@?$CComObject@V?$CComEnum@UIEnumConnections@@$1?_GUID_b196b287_bab4_101a_b69c_00aa00341d07@@3U__s_GUID@@BUtagCONNECTDATA@@V?$_Copy@UtagCONNECTDATA@@@ATL@@VCComSingleThreadModel@6@@ATL@@@ATL@@8 10071654     EventFiringObject.obj
 0002:00014670       ??_R1A@?0A@EA@?$CComEnum@UIEnumConnections@@$1?_GUID_b196b287_bab4_101a_b69c_00aa00341d07@@3U__s_GUID@@BUtagCONNECTDATA@@V?$_Copy@UtagCONNECTDATA@@@ATL@@VCComSingleThreadModel@6@@ATL@@8 10071670     EventFiringObject.obj
 0002:0001468c       ??_R3?$CComEnum@UIEnumConnections@@$1?_GUID_b196b287_bab4_101a_b69c_00aa00341d07@@3U__s_GUID@@BUtagCONNECTDATA@@V?$_Copy@UtagCONNECTDATA@@@ATL@@VCComSingleThreadModel@6@@ATL@@8 1007168c     EventFiringObject.obj
 0002:0001469c       ??_R2?$CComEnum@UIEnumConnections@@$1?_GUID_b196b287_bab4_101a_b69c_00aa00341d07@@3U__s_GUID@@BUtagCONNECTDATA@@V?$_Copy@UtagCONNECTDATA@@@ATL@@VCComSingleThreadModel@6@@ATL@@8 1007169c     EventFiringObject.obj
 0002:000146b8       ??_R1A@?0A@EA@?$CComEnumImpl@UIEnumConnections@@$1?_GUID_b196b287_bab4_101a_b69c_00aa00341d07@@3U__s_GUID@@BUtagCONNECTDATA@@V?$_Copy@UtagCONNECTDATA@@@ATL@@@ATL@@8 100716b8     EventFiringObject.obj
 0002:000146d4       ??_R3?$CComEnumImpl@UIEnumConnections@@$1?_GUID_b196b287_bab4_101a_b69c_00aa00341d07@@3U__s_GUID@@BUtagCONNECTDATA@@V?$_Copy@UtagCONNECTDATA@@@ATL@@@ATL@@8 100716d4     EventFiringObject.obj
 0002:000146e4       ??_R2?$CComEnumImpl@UIEnumConnections@@$1?_GUID_b196b287_bab4_101a_b69c_00aa00341d07@@3U__s_GUID@@BUtagCONNECTDATA@@V?$_Copy@UtagCONNECTDATA@@@ATL@@@ATL@@8 100716e4     EventFiringObject.obj
 0002:000146f4       ??_R1A@?0A@EA@IEnumConnections@@8 100716f4     EventFiringObject.obj
 0002:00014710       ??_R3IEnumConnections@@8   10071710     EventFiringObject.obj
 0002:00014720       ??_R2IEnumConnections@@8   10071720     EventFiringObject.obj
 0002:0001472c       ??_R4CRegObject@ATL@@6B@   1007172c     EventFiringObject.obj
 0002:00014740       ??_R3CRegObject@ATL@@8     10071740     EventFiringObject.obj
 0002:00014750       ??_R2CRegObject@ATL@@8     10071750     EventFiringObject.obj
 0002:00014760       ??_R1A@?0A@EA@CRegObject@ATL@@8 10071760     EventFiringObject.obj
 0002:0001477c       ??_R1A@?0A@EA@IRegistrarBase@@8 1007177c     EventFiringObject.obj
 0002:00014798       ??_R3IRegistrarBase@@8     10071798     EventFiringObject.obj
 0002:000147a8       ??_R2IRegistrarBase@@8     100717a8     EventFiringObject.obj
 0002:000147b4       ??_R4CComModule@ATL@@6B@   100717b4     EventFiringObject.obj
 0002:000147c8       ??_R3CComModule@ATL@@8     100717c8     EventFiringObject.obj
 0002:000147d8       ??_R2CComModule@ATL@@8     100717d8     EventFiringObject.obj
 0002:000147ec       ??_R1A@?0A@EA@CComModule@ATL@@8 100717ec     EventFiringObject.obj
 0002:00014808       ??_R1A@?0A@EA@?$CAtlModuleT@VCComModule@ATL@@@ATL@@8 10071808     EventFiringObject.obj
 0002:00014824       ??_R3?$CAtlModuleT@VCComModule@ATL@@@ATL@@8 10071824     EventFiringObject.obj
 0002:00014834       ??_R2?$CAtlModuleT@VCComModule@ATL@@@ATL@@8 10071834     EventFiringObject.obj
 0002:00014844       ??_R1A@?0A@EA@CAtlModule@ATL@@8 10071844     EventFiringObject.obj
 0002:00014860       ??_R3CAtlModule@ATL@@8     10071860     EventFiringObject.obj
 0002:00014870       ??_R2CAtlModule@ATL@@8     10071870     EventFiringObject.obj
 0002:0001487c       ??_R13?0A@EA@_ATL_MODULE70@ATL@@8 1007187c     EventFiringObject.obj
 0002:00014898       ??_R3_ATL_MODULE70@ATL@@8  10071898     EventFiringObject.obj
 0002:000148a8       ??_R2_ATL_MODULE70@ATL@@8  100718a8     EventFiringObject.obj
 0002:000148b0       ??_R1A@?0A@EA@_ATL_MODULE70@ATL@@8 100718b0     EventFiringObject.obj
 0002:000148cc       ??_R4Thank_you@Define_the_symbol__ATL_MIXED@@6B@ 100718cc     StdAfx.obj
 0002:000148e0       ??_R3Thank_you@Define_the_symbol__ATL_MIXED@@8 100718e0     StdAfx.obj
 0002:000148f0       ??_R2Thank_you@Define_the_symbol__ATL_MIXED@@8 100718f0     StdAfx.obj
 0002:000148f8       ??_R1A@?0A@EA@Thank_you@Define_the_symbol__ATL_MIXED@@8 100718f8     StdAfx.obj
 0002:00014914       ??_R4bad_alloc@std@@6B@    10071914     LIBCMTD:new.obj
 0002:00014928       ??_R3bad_alloc@std@@8      10071928     LIBCMTD:new.obj
 0002:00014938       ??_R2bad_alloc@std@@8      10071938     LIBCMTD:new.obj
 0002:00014944       ??_R1A@?0A@EA@bad_alloc@std@@8 10071944     LIBCMTD:new.obj
 0002:00014960       ??_R1A@?0A@EA@exception@std@@8 10071960     LIBCMTD:new.obj
 0002:0001497c       ??_R3exception@std@@8      1007197c     LIBCMTD:new.obj
 0002:0001498c       ??_R2exception@std@@8      1007198c     LIBCMTD:new.obj
 0002:00014994       ??_R4type_info@@6B@        10071994     LIBCMTD:typinfo.obj
 0002:000149a8       ??_R3type_info@@8          100719a8     LIBCMTD:typinfo.obj
 0002:000149b8       ??_R2type_info@@8          100719b8     LIBCMTD:typinfo.obj
 0002:000149c0       ??_R1A@?0A@EA@type_info@@8 100719c0     LIBCMTD:typinfo.obj
 0002:000149dc       ??_R4exception@std@@6B@    100719dc     LIBCMTD:stdexcpt.obj
 0002:000149f0       ??_R4bad_cast@std@@6B@     100719f0     LIBCMTD:stdexcpt.obj
 0002:00014a04       ??_R3bad_cast@std@@8       10071a04     LIBCMTD:stdexcpt.obj
 0002:00014a14       ??_R2bad_cast@std@@8       10071a14     LIBCMTD:stdexcpt.obj
 0002:00014a20       ??_R1A@?0A@EA@bad_cast@std@@8 10071a20     LIBCMTD:stdexcpt.obj
 0002:00014a3c       ??_R4bad_typeid@std@@6B@   10071a3c     LIBCMTD:stdexcpt.obj
 0002:00014a50       ??_R3bad_typeid@std@@8     10071a50     LIBCMTD:stdexcpt.obj
 0002:00014a60       ??_R2bad_typeid@std@@8     10071a60     LIBCMTD:stdexcpt.obj
 0002:00014a6c       ??_R1A@?0A@EA@bad_typeid@std@@8 10071a6c     LIBCMTD:stdexcpt.obj
 0002:00014a88       ??_R4__non_rtti_object@std@@6B@ 10071a88     LIBCMTD:stdexcpt.obj
 0002:00014a9c       ??_R3__non_rtti_object@std@@8 10071a9c     LIBCMTD:stdexcpt.obj
 0002:00014aac       ??_R2__non_rtti_object@std@@8 10071aac     LIBCMTD:stdexcpt.obj
 0002:00014abc       ??_R1A@?0A@EA@__non_rtti_object@std@@8 10071abc     LIBCMTD:stdexcpt.obj
 0002:00014ad8       ??_R4bad_exception@std@@6B@ 10071ad8     LIBCMTD:frame.obj
 0002:00014aec       ??_R3bad_exception@std@@8  10071aec     LIBCMTD:frame.obj
 0002:00014afc       ??_R2bad_exception@std@@8  10071afc     LIBCMTD:frame.obj
 0002:00014b08       ??_R1A@?0A@EA@bad_exception@std@@8 10071b08     LIBCMTD:frame.obj
 0002:00014b24       ??_R4DNameNode@@6B@        10071b24     LIBCMTD:undname.obj
 0002:00014b38       ??_R3DNameNode@@8          10071b38     LIBCMTD:undname.obj
 0002:00014b48       ??_R2DNameNode@@8          10071b48     LIBCMTD:undname.obj
 0002:00014b50       ??_R1A@?0A@EA@DNameNode@@8 10071b50     LIBCMTD:undname.obj
 0002:00014b6c       ??_R4charNode@@6B@         10071b6c     LIBCMTD:undname.obj
 0002:00014b80       ??_R3charNode@@8           10071b80     LIBCMTD:undname.obj
 0002:00014b90       ??_R2charNode@@8           10071b90     LIBCMTD:undname.obj
 0002:00014b9c       ??_R1A@?0A@EA@charNode@@8  10071b9c     LIBCMTD:undname.obj
 0002:00014bb8       ??_R4pcharNode@@6B@        10071bb8     LIBCMTD:undname.obj
 0002:00014bcc       ??_R3pcharNode@@8          10071bcc     LIBCMTD:undname.obj
 0002:00014bdc       ??_R2pcharNode@@8          10071bdc     LIBCMTD:undname.obj
 0002:00014be8       ??_R1A@?0A@EA@pcharNode@@8 10071be8     LIBCMTD:undname.obj
 0002:00014c04       ??_R4pDNameNode@@6B@       10071c04     LIBCMTD:undname.obj
 0002:00014c18       ??_R3pDNameNode@@8         10071c18     LIBCMTD:undname.obj
 0002:00014c28       ??_R2pDNameNode@@8         10071c28     LIBCMTD:undname.obj
 0002:00014c34       ??_R1A@?0A@EA@pDNameNode@@8 10071c34     LIBCMTD:undname.obj
 0002:00014c50       ??_R4DNameStatusNode@@6B@  10071c50     LIBCMTD:undname.obj
 0002:00014c64       ??_R3DNameStatusNode@@8    10071c64     LIBCMTD:undname.obj
 0002:00014c74       ??_R2DNameStatusNode@@8    10071c74     LIBCMTD:undname.obj
 0002:00014c80       ??_R1A@?0A@EA@DNameStatusNode@@8 10071c80     LIBCMTD:undname.obj
 0002:00014ca0       ___safe_se_handler_table   10071ca0     <linker-defined>
 0002:00014d74       ___rtc_iaa                 10071d74     LIBCMTD:initsect.obj
 0002:00014d80       ___rtc_izz                 10071d80     LIBCMTD:initsect.obj
 0002:00014d84       ___rtc_taa                 10071d84     LIBCMTD:initsect.obj
 0002:00014d90       ___rtc_tzz                 10071d90     LIBCMTD:initsect.obj
 0002:000153bc       __TI1?AVCAtlException@ATL@@ 100723bc     EventFiringObject.obj
 0002:000153cc       __CTA1?AVCAtlException@ATL@@ 100723cc     EventFiringObject.obj
 0002:000153d4       __CT??_R0?AVCAtlException@ATL@@@84 100723d4     EventFiringObject.obj
 0002:0001595c       __TI2?AVbad_alloc@std@@    1007295c     LIBCMTD:new.obj
 0002:0001596c       __CTA2?AVbad_alloc@std@@   1007296c     LIBCMTD:new.obj
 0002:00015978       __CT??_R0?AVbad_alloc@std@@@8??0bad_alloc@std@@QAE@ABV01@@Z12 10072978     LIBCMTD:new.obj
 0002:00015994       __CT??_R0?AVexception@std@@@8??0exception@std@@QAE@ABV01@@Z12 10072994     LIBCMTD:new.obj
 0002:00015d2c       __TI2?AVbad_exception@std@@ 10072d2c     LIBCMTD:frame.obj
 0002:00015d3c       __CTA2?AVbad_exception@std@@ 10072d3c     LIBCMTD:frame.obj
 0002:00015d48       __CT??_R0?AVbad_exception@std@@@8??0bad_exception@std@@QAE@ABV01@@Z12 10072d48     LIBCMTD:frame.obj
 0002:00016624       ___pobjMapEntryFirst       10073624     StdAfx.obj
 0002:00016628       ___pobjMapEntryLast        10073628     StdAfx.obj
 0002:0001662c       __IMPORT_DESCRIPTOR_KERNEL32 1007362c     kernel32:KERNEL32.dll
 0002:00016640       __IMPORT_DESCRIPTOR_USER32 10073640     user32:USER32.dll
 0002:00016654       __IMPORT_DESCRIPTOR_ADVAPI32 10073654     advapi32:ADVAPI32.dll
 0002:00016668       __IMPORT_DESCRIPTOR_ole32  10073668     ole32:ole32.dll
 0002:0001667c       __IMPORT_DESCRIPTOR_OLEAUT32 1007367c     oleaut32:OLEAUT32.dll
 0002:00016690       __NULL_IMPORT_DESCRIPTOR   10073690     kernel32:KERNEL32.dll
 0003:00000048       ??_R0?AV?$CComObjectCached@VCComClassFactory@ATL@@@ATL@@@8 10075048     EventFiringObject.obj
 0003:00000088       ??_R0?AVCComClassFactory@ATL@@@8 10075088     EventFiringObject.obj
 0003:000000ac       ??_R0?AUIClassFactory@@@8  100750ac     EventFiringObject.obj
 0003:000000c8       ??_R0?AUIUnknown@@@8       100750c8     EventFiringObject.obj
 0003:000000e0       ??_R0?AV?$CComObjectRootEx@VCComMultiThreadModel@ATL@@@ATL@@@8 100750e0     EventFiringObject.obj
 0003:00000124       ??_R0?AVCComObjectRootBase@ATL@@@8 10075124     EventFiringObject.obj
 0003:0000014c       ??_R0?AV?$CComObject@VCEventFiringObject@@@ATL@@@8 1007514c     EventFiringObject.obj
 0003:00000184       ??_R0?AVCEventFiringObject@@@8 10075184     EventFiringObject.obj
 0003:000001a8       ??_R0?AV?$CComObjectRootEx@VCComSingleThreadModel@ATL@@@ATL@@@8 100751a8     EventFiringObject.obj
 0003:000001f0       ??_R0?AV?$CComCoClass@VCEventFiringObject@@$1?CLSID_EventFiringObject@@3U_GUID@@B@ATL@@@8 100751f0     EventFiringObject.obj
 0003:0000024c       ??_R0?AUISupportErrorInfo@@@8 1007524c     EventFiringObject.obj
 0003:00000270       ??_R0?AV?$IConnectionPointContainerImpl@VCEventFiringObject@@@ATL@@@8 10075270     EventFiringObject.obj
 0003:000002b8       ??_R0?AUIConnectionPointContainer@@@8 100752b8     EventFiringObject.obj
 0003:000002e0       ??_R0?AV?$IDispatchImpl@UIEventFiringObject@@$1?IID_IEventFiringObject@@3U_GUID@@B$1?LIBID_EVENTFIRINGOBJECTLib@@3U3@B$00$0A@VCComTypeInfoHolder@ATL@@@ATL@@@8 100752e0     EventFiringObject.obj
 0003:00000384       ??_R0?AUIEventFiringObject@@@8 10075384     EventFiringObject.obj
 0003:000003a8       ??_R0?AUIDispatch@@@8      100753a8     EventFiringObject.obj
 0003:000003c0       ??_R0?AV?$CProxy_IEventFiringObjectEvents@VCEventFiringObject@@@@@8 100753c0     EventFiringObject.obj
 0003:00000408       ??_R0?AV?$IConnectionPointImpl@VCEventFiringObject@@$1?DIID__IEventFiringObjectEvents@@3U_GUID@@BVCComDynamicUnkArray@ATL@@@ATL@@@8 10075408     EventFiringObject.obj
 0003:00000490       ??_R0?AV?$_ICPLocator@$1?DIID__IEventFiringObjectEvents@@3U_GUID@@B@ATL@@@8 10075490     EventFiringObject.obj
 0003:000004e0       ?_tih@?$IDispatchImpl@UIEventFiringObject@@$1?IID_IEventFiringObject@@3U_GUID@@B$1?LIBID_EVENTFIRINGOBJECTLib@@3U3@B$00$0A@VCComTypeInfoHolder@ATL@@@ATL@@1VCComTypeInfoHolder@2@A 100754e0     EventFiringObject.obj
 0003:00000500       ??_R0?AV?$CComObject@V?$CComEnum@UIEnumConnectionPoints@@$1?_GUID_b196b285_bab4_101a_b69c_00aa00341d07@@3U__s_GUID@@BPAUIConnectionPoint@@V?$_CopyInterface@UIConnectionPoint@@@ATL@@VCComSingleThreadModel@6@@ATL@@@ATL@@@8 10075500     EventFiringObject.obj
 0003:000005e0       ??_R0?AV?$CComEnum@UIEnumConnectionPoints@@$1?_GUID_b196b285_bab4_101a_b69c_00aa00341d07@@3U__s_GUID@@BPAUIConnectionPoint@@V?$_CopyInterface@UIConnectionPoint@@@ATL@@VCComSingleThreadModel@6@@ATL@@@8 100755e0     EventFiringObject.obj
 0003:000006b0       ??_R0?AV?$CComEnumImpl@UIEnumConnectionPoints@@$1?_GUID_b196b285_bab4_101a_b69c_00aa00341d07@@3U__s_GUID@@BPAUIConnectionPoint@@V?$_CopyInterface@UIConnectionPoint@@@ATL@@@ATL@@@8 100756b0     EventFiringObject.obj
 0003:00000768       ??_R0?AUIEnumConnectionPoints@@@8 10075768     EventFiringObject.obj
 0003:0000078c       ??_R0?AV?$CComAggObject@VCEventFiringObject@@@ATL@@@8 1007578c     EventFiringObject.obj
 0003:000007c4       ??_R0?AV?$CComContainedObject@VCEventFiringObject@@@ATL@@@8 100757c4     EventFiringObject.obj
 0003:00000808       ??_R0?AV?$CComObject@V?$CComEnum@UIEnumConnections@@$1?_GUID_b196b287_bab4_101a_b69c_00aa00341d07@@3U__s_GUID@@BUtagCONNECTDATA@@V?$_Copy@UtagCONNECTDATA@@@ATL@@VCComSingleThreadModel@6@@ATL@@@ATL@@@8 10075808     EventFiringObject.obj
 0003:000008d8       ??_R0?AV?$CComEnum@UIEnumConnections@@$1?_GUID_b196b287_bab4_101a_b69c_00aa00341d07@@3U__s_GUID@@BUtagCONNECTDATA@@V?$_Copy@UtagCONNECTDATA@@@ATL@@VCComSingleThreadModel@6@@ATL@@@8 100758d8     EventFiringObject.obj
 0003:00000990       ??_R0?AV?$CComEnumImpl@UIEnumConnections@@$1?_GUID_b196b287_bab4_101a_b69c_00aa00341d07@@3U__s_GUID@@BUtagCONNECTDATA@@V?$_Copy@UtagCONNECTDATA@@@ATL@@@ATL@@@8 10075990     EventFiringObject.obj
 0003:00000a34       ??_R0?AUIEnumConnections@@@8 10075a34     EventFiringObject.obj
 0003:00000a54       ??_R0?AVCAtlException@ATL@@@8 10075a54     EventFiringObject.obj
 0003:00000a74       ??_R0?AVCRegObject@ATL@@@8 10075a74     EventFiringObject.obj
 0003:00000a94       ??_R0?AUIRegistrarBase@@@8 10075a94     EventFiringObject.obj
 0003:00000ab4       ??_R0?AVCComModule@ATL@@@8 10075ab4     EventFiringObject.obj
 0003:00000ad4       ??_R0?AV?$CAtlModuleT@VCComModule@ATL@@@ATL@@@8 10075ad4     EventFiringObject.obj
 0003:00000b08       ??_R0?AVCAtlModule@ATL@@@8 10075b08     EventFiringObject.obj
 0003:00000b28       ??_R0?AU_ATL_MODULE70@ATL@@@8 10075b28     EventFiringObject.obj
 0003:00000b4c       ??_R0?AUThank_you@Define_the_symbol__ATL_MIXED@@@8 10075b4c     StdAfx.obj
 0003:00000b84       ?g_pfnGetThreadACP@ATL@@3P6GIXZA 10075b84     atlsd:atltrace.obj
 0003:00000b88       ?rcDefault@CWindow@ATL@@2UtagRECT@@A 10075b88     atlsd:atltrace.obj
 0003:00000b98       ?g_pszUpdateEventName@@3PBDB 10075b98     atlsd:Externs.obj
 0003:00000b9c       ?g_pszAllocFileMapName@@3PBDB 10075b9c     atlsd:Externs.obj
 0003:00000ba0       ?g_pszKernelObjFmt@@3PBDB  10075ba0     atlsd:Externs.obj
 0003:00000ba8       ??_R0?AVbad_alloc@std@@@8  10075ba8     LIBCMTD:new.obj
 0003:00000bc4       ??_R0?AVexception@std@@@8  10075bc4     LIBCMTD:new.obj
 0003:00000bf0       ___security_cookie         10075bf0     LIBCMTD:gs_cookie.obj
 0003:00000bf4       ___security_cookie_complement 10075bf4     LIBCMTD:gs_cookie.obj
 0003:00000bfc       ??_R0?AVtype_info@@@8      10075bfc     LIBCMTD:typinfo.obj
 0003:00000c20       ?__pMyUnhandledExceptionFilter@@3PAXA 10075c20     LIBCMTD:throw.obj
 0003:00000c30       __crtDbgFlag               10075c30     LIBCMTD:dbgheap.obj
 0003:00000c34       ___crtDebugFillThreshold   10075c34     LIBCMTD:dbgheap.obj
 0003:00000c3c       __crtBreakAlloc            10075c3c     LIBCMTD:dbgheap.obj
 0003:00000f00       ?_RTC_ErrorLevels@@3PAHA   10075f00     LIBCMTD:error.obj
 0003:00000f44       ??_R0?AVbad_cast@std@@@8   10075f44     LIBCMTD:stdexcpt.obj
 0003:00000f60       ??_R0?AVbad_typeid@std@@@8 10075f60     LIBCMTD:stdexcpt.obj
 0003:00000f80       ??_R0?AV__non_rtti_object@std@@@8 10075f80     LIBCMTD:stdexcpt.obj
 0003:00000fa4       __crtAssertBusy            10075fa4     LIBCMTD:dbgrptt.obj
 0003:00000fa8       __CrtDbgMode               10075fa8     LIBCMTD:dbgrptt.obj
 0003:00000fb4       __CrtDbgFile               10075fb4     LIBCMTD:dbgrptt.obj
 0003:00000fc0       __aexit_rtn                10075fc0     LIBCMTD:crt0dat.obj
 0003:00000fcc       ??_R0?AVbad_exception@std@@@8 10075fcc     LIBCMTD:frame.obj
 0003:00000ff0       ___flsindex                10075ff0     LIBCMTD:tidtable.obj
 0003:00000ff4       ___getvalueindex           10075ff4     LIBCMTD:tidtable.obj
 0003:00001000       ___abort_behavior          10076000     LIBCMTD:abort.obj
 0003:000010c0       __pfnAllocHook             100760c0     LIBCMTD:dbghook.obj
 0003:000010c4       __amblksiz                 100760c4     LIBCMTD:heapinit.obj
 0003:000010c8       ___initialmbcinfo          100760c8     LIBCMTD:mbctype.obj
 0003:000012e8       __mbctype                  100762e8     LIBCMTD:mbctype.obj
 0003:000013f0       __mbcasemap                100763f0     LIBCMTD:mbctype.obj
 0003:000014f0       ___ptmbcinfo               100764f0     LIBCMTD:mbctype.obj
 0003:000015ec       ___globallocalestatus      100765ec     LIBCMTD:glstatus.obj
 0003:000015f0       ___clocalestr              100765f0     LIBCMTD:nlsdata2.obj
 0003:000015f8       ___initiallocinfo          100765f8     LIBCMTD:nlsdata2.obj
 0003:000016d0       ___ptlocinfo               100766d0     LIBCMTD:nlsdata2.obj
 0003:000016d4       ___lc_clike                100766d4     LIBCMTD:nlsdata2.obj
 0003:000016d8       ___initiallocalestructinfo 100766d8     LIBCMTD:nlsdata2.obj
 0003:000016e0       ___badioinfo               100766e0     LIBCMTD:ioinit.obj
 0003:00001708       __XcptActTab               10076708     LIBCMTD:winxfltr.obj
 0003:00001780       __First_FPE_Indx           10076780     LIBCMTD:winxfltr.obj
 0003:00001784       __Num_FPE                  10076784     LIBCMTD:winxfltr.obj
 0003:00001788       __XcptActTabSize           10076788     LIBCMTD:winxfltr.obj
 0003:0000178c       __XcptActTabCount          1007678c     LIBCMTD:winxfltr.obj
 0003:00001790       ___nullstring              10076790     LIBCMTD:output.obj
 0003:00001794       ___wnullstring             10076794     LIBCMTD:output.obj
 0003:000017a4       __cfltcvt_tab              100767a4     LIBCMTD:cmiscdat.obj
 0003:000017cc       __NLG_Destination          100767cc     LIBCMTD:exsup.obj
 0003:000017dc       ??_R0?AVDNameNode@@@8      100767dc     LIBCMTD:undname.obj
 0003:000017f4       ??_R0?AVcharNode@@@8       100767f4     LIBCMTD:undname.obj
 0003:0000180c       ??_R0?AVpcharNode@@@8      1007680c     LIBCMTD:undname.obj
 0003:00001824       ??_R0?AVpDNameNode@@@8     10076824     LIBCMTD:undname.obj
 0003:00001840       ??_R0?AVDNameStatusNode@@@8 10076840     LIBCMTD:undname.obj
 0003:00001860       __pctype                   10076860     LIBCMTD:ctype.obj
 0003:00001864       __pwctype                  10076864     LIBCMTD:ctype.obj
 0003:00001868       ___lc_time_c               10076868     LIBCMTD:strftime.obj
 0003:00001920       ___lc_time_curr            10076920     LIBCMTD:strftime.obj
 0003:00001924       ___lconv_static_decimal    10076924     LIBCMTD:lconv.obj
 0003:00001928       ___lconv_c                 10076928     LIBCMTD:lconv.obj
 0003:00001958       ___lconv                   10076958     LIBCMTD:lconv.obj
 0003:0000195c       ___mb_cur_max              1007695c     LIBCMTD:nlsdata1.obj
 0003:00001960       ___decimal_point           10076960     LIBCMTD:nlsdata1.obj
 0003:00001964       ___decimal_point_length    10076964     LIBCMTD:nlsdata1.obj
 0003:00001978       __iob                      10076978     LIBCMTD:_file.obj
 0003:00001c00       __timezone                 10076c00     LIBCMTD:timeset.obj
 0003:00001c04       __daylight                 10076c04     LIBCMTD:timeset.obj
 0003:00001c08       __dstbias                  10076c08     LIBCMTD:timeset.obj
 0003:00001c90       __tzname                   10076c90     LIBCMTD:timeset.obj
 0003:00001cb0       __lpdays                   10076cb0     LIBCMTD:days.obj
 0003:00001ce4       __days                     10076ce4     LIBCMTD:days.obj
 0003:00001d20       __coninpfh                 10076d20     LIBCMTD:initcon.obj
 0003:00001d24       __confh                    10076d24     LIBCMTD:initcon.obj
 0003:00001d40       ?m_bInitFailed@CAtlBaseModule@ATL@@2_NA 10076d40     EventFiringObject.obj
 0003:00001d44       ?_pPerfRegFunc@ATL@@3P6AJPAUHINSTANCE__@@@ZA 10076d44     EventFiringObject.obj
 0003:00001d48       ?_pPerfUnRegFunc@ATL@@3P6AJXZA 10076d48     EventFiringObject.obj
 0003:00001d4c       ?_pAtlModule@ATL@@3PAVCAtlModule@1@A 10076d4c     EventFiringObject.obj
 0003:00001d50       ?m_libid@CAtlModule@ATL@@2U_GUID@@A 10076d50     EventFiringObject.obj
 0003:00001d60       ?_pModule@ATL@@3PAVCComModule@1@A 10076d60     EventFiringObject.obj
 0003:00001d64       ?_entries@?1??GetConnMap@CEventFiringObject@@SAPBU_ATL_CONNMAP_ENTRY@ATL@@PAH@Z@4QBU34@B 10076d64     EventFiringObject.obj
 0003:00001d6c       ??_B?1??GetConnMap@CEventFiringObject@@SAPBU_ATL_CONNMAP_ENTRY@ATL@@PAH@Z@51 10076d6c     EventFiringObject.obj
 0003:00001d70       ?map@?2??VTFromRegType@CRegParser@ATL@@KAHPBDAAG@Z@4QBUtypemap@?1??123@KAH01@Z@B 10076d70     EventFiringObject.obj
 0003:00001d90       ??_B?2??VTFromRegType@CRegParser@ATL@@KAHPBDAAG@Z@52 10076d90     EventFiringObject.obj
 0003:00001d94       ?_Module@@3VCComModule@ATL@@A 10076d94     EventFiringObject.obj
 0003:00001dc4       ?_pAtlAutoThreadModule@ATL@@3PAUIAtlAutoThreadModule@1@A 10076dc4     StdAfx.obj
 0003:00001dc8       ?s_pfnPrevHook@CNoUIAssertHook@ATL@@0P6AHHPADPAH@ZA 10076dc8     StdAfx.obj
 0003:00001dcc       ?ATL_CREATE_OBJECT@CComApartment@ATL@@2IA 10076dcc     StdAfx.obj
 0003:00001dd0       ?clash@Define_the_symbol__ATL_MIXED@@3UThank_you@1@A 10076dd0     StdAfx.obj
 0003:00001dd4       ?clash@Inconsistent_definition_of_symbol__ATL_MIXED@@3U_Please_define_it_the_same_throughout_your_project@1@A 10076dd4     StdAfx.obj
 0003:00001dd8       ?atlTraceGeneral@ATL@@3VCTraceCategory@1@A 10076dd8     atlsd:atltrace.obj
 0003:00001ddc       ?atlTraceCOM@ATL@@3VCTraceCategory@1@A 10076ddc     atlsd:atltrace.obj
 0003:00001de0       ?atlTraceQI@ATL@@3VCTraceCategory@1@A 10076de0     atlsd:atltrace.obj
 0003:00001de4       ?atlTraceRegistrar@ATL@@3VCTraceCategory@1@A 10076de4     atlsd:atltrace.obj
 0003:00001de8       ?atlTraceRefcount@ATL@@3VCTraceCategory@1@A 10076de8     atlsd:atltrace.obj
 0003:00001dec       ?atlTraceWindowing@ATL@@3VCTraceCategory@1@A 10076dec     atlsd:atltrace.obj
 0003:00001df0       ?atlTraceControls@ATL@@3VCTraceCategory@1@A 10076df0     atlsd:atltrace.obj
 0003:00001df4       ?atlTraceHosting@ATL@@3VCTraceCategory@1@A 10076df4     atlsd:atltrace.obj
 0003:00001df8       ?atlTraceDBClient@ATL@@3VCTraceCategory@1@A 10076df8     atlsd:atltrace.obj
 0003:00001dfc       ?atlTraceDBProvider@ATL@@3VCTraceCategory@1@A 10076dfc     atlsd:atltrace.obj
 0003:00001e00       ?atlTraceSnapin@ATL@@3VCTraceCategory@1@A 10076e00     atlsd:atltrace.obj
 0003:00001e04       ?atlTraceNotImpl@ATL@@3VCTraceCategory@1@A 10076e04     atlsd:atltrace.obj
 0003:00001e08       ?atlTraceAllocation@ATL@@3VCTraceCategory@1@A 10076e08     atlsd:atltrace.obj
 0003:00001e0c       ?atlTraceException@ATL@@3VCTraceCategory@1@A 10076e0c     atlsd:atltrace.obj
 0003:00001e10       ?atlTraceTime@ATL@@3VCTraceCategory@1@A 10076e10     atlsd:atltrace.obj
 0003:00001e14       ?atlTraceCache@ATL@@3VCTraceCategory@1@A 10076e14     atlsd:atltrace.obj
 0003:00001e18       ?atlTraceStencil@ATL@@3VCTraceCategory@1@A 10076e18     atlsd:atltrace.obj
 0003:00001e1c       ?atlTraceString@ATL@@3VCTraceCategory@1@A 10076e1c     atlsd:atltrace.obj
 0003:00001e20       ?atlTraceMap@ATL@@3VCTraceCategory@1@A 10076e20     atlsd:atltrace.obj
 0003:00001e24       ?atlTraceUtil@ATL@@3VCTraceCategory@1@A 10076e24     atlsd:atltrace.obj
 0003:00001e28       ?atlTraceSecurity@ATL@@3VCTraceCategory@1@A 10076e28     atlsd:atltrace.obj
 0003:00001e2c       ?atlTraceSync@ATL@@3VCTraceCategory@1@A 10076e2c     atlsd:atltrace.obj
 0003:00001e30       ?atlTraceISAPI@ATL@@3VCTraceCategory@1@A 10076e30     atlsd:atltrace.obj
 0003:00001e34       ?atlTraceUser@ATL@@3VCTraceCategory@1@A 10076e34     atlsd:atltrace.obj
 0003:00001e38       ?atlTraceUser2@ATL@@3VCTraceCategory@1@A 10076e38     atlsd:atltrace.obj
 0003:00001e3c       ?atlTraceUser3@ATL@@3VCTraceCategory@1@A 10076e3c     atlsd:atltrace.obj
 0003:00001e40       ?atlTraceUser4@ATL@@3VCTraceCategory@1@A 10076e40     atlsd:atltrace.obj
 0003:00001e44       ?g_Allocator@@3VCAtlAllocator@@A 10076e44     atlsd:Externs.obj
 0003:00001e78       ?s_trace@CTrace@ATL@@2V12@A 10076e78     atlsd:Externs.obj
 0003:00001e80       ?_AtlBaseModule@ATL@@3VCAtlBaseModule@1@A 10076e80     atlsd:atlbase.obj
 0003:00001ebc       ?_AtlWinModule@ATL@@3VCAtlWinModule@1@A 10076ebc     atlsd:atlbase.obj
 0003:00001ee8       ?_AtlComModule@ATL@@3VCAtlComModule@1@A 10076ee8     atlsd:atlcommodule.obj
 0003:00001f38       ?_pfnDumpClient@@3P6AXPAXI@ZA 10076f38     LIBCMTD:dbgheap.obj
 0003:00001f40       ___crtDebugCheckCount      10076f40     LIBCMTD:dbgheap.obj
 0003:00001f4c       __aenvptr                  10076f4c     LIBCMTD:dllcrt0.obj
 0003:00001f50       __wenvptr                  10076f50     LIBCMTD:dllcrt0.obj
 0003:00001f54       ___error_mode              10076f54     LIBCMTD:dllcrt0.obj
 0003:00001f58       ___app_type                10076f58     LIBCMTD:dllcrt0.obj
 0003:000020c8       ?wsprintffp@@3P6AHPADPBDZZA 100770c8     LIBCMTD:error.obj
 0003:000020d4       ?_pnhHeap@@3P6AHI@ZA       100770d4     LIBCMTD:handler.obj
 0003:000020d8       ___pInvalidArgHandler      100770d8     LIBCMTD:invarg.obj
 0003:000020dc       __umaskval                 100770dc     LIBCMTD:crt0dat.obj
 0003:000020e0       __osplatform               100770e0     LIBCMTD:crt0dat.obj
 0003:000020e4       __osver                    100770e4     LIBCMTD:crt0dat.obj
 0003:000020e8       __winver                   100770e8     LIBCMTD:crt0dat.obj
 0003:000020ec       __winmajor                 100770ec     LIBCMTD:crt0dat.obj
 0003:000020f0       __winminor                 100770f0     LIBCMTD:crt0dat.obj
 0003:000020f4       ___argc                    100770f4     LIBCMTD:crt0dat.obj
 0003:000020f8       ___argv                    100770f8     LIBCMTD:crt0dat.obj
 0003:000020fc       ___wargv                   100770fc     LIBCMTD:crt0dat.obj
 0003:00002100       __environ                  10077100     LIBCMTD:crt0dat.obj
 0003:00002104       ___initenv                 10077104     LIBCMTD:crt0dat.obj
 0003:00002108       __wenviron                 10077108     LIBCMTD:crt0dat.obj
 0003:0000210c       ___winitenv                1007710c     LIBCMTD:crt0dat.obj
 0003:00002110       __pgmptr                   10077110     LIBCMTD:crt0dat.obj
 0003:00002114       __wpgmptr                  10077114     LIBCMTD:crt0dat.obj
 0003:00002118       __exitflag                 10077118     LIBCMTD:crt0dat.obj
 0003:0000211c       __C_Termination_Done       1007711c     LIBCMTD:crt0dat.obj
 0003:00002120       __C_Exit_Done              10077120     LIBCMTD:crt0dat.obj
 0003:00002150       _gpFlsAlloc                10077150     LIBCMTD:tidtable.obj
 0003:00002154       _gpFlsGetValue             10077154     LIBCMTD:tidtable.obj
 0003:00002158       _gpFlsSetValue             10077158     LIBCMTD:tidtable.obj
 0003:0000215c       _gpFlsFree                 1007715c     LIBCMTD:tidtable.obj
 0003:00002160       ?__pInconsistency@@3P6AXXZA 10077160     LIBCMTD:hooks.obj
 0003:000027b4       ___pPurecall               100777b4     LIBCMTD:inithelp.obj
 0003:000027c0       __newmode                  100777c0     LIBCMTD:_newmode.obj
 0003:000027c4       __crtheap                  100777c4     LIBCMTD:heapinit.obj
 0003:000027c8       ___sbh_pHeaderDefer        100777c8     LIBCMTD:sbheap.obj
 0003:000027d0       ___mbulinfo                100777d0     LIBCMTD:mbctype.obj
 0003:000027dc       ___mbcodepage              100777dc     LIBCMTD:mbctype.obj
 0003:000027e0       ___ismbcodepage            100777e0     LIBCMTD:mbctype.obj
 0003:000027e4       ___mblcid                  100777e4     LIBCMTD:mbctype.obj
 0003:000027e8       ___locale_changed          100777e8     LIBCMTD:setlocal.obj
 0003:000027ec       ___lc_handle               100777ec     LIBCMTD:nlsdata2.obj
 0003:00002804       ___lc_codepage             10077804     LIBCMTD:nlsdata2.obj
 0003:00002808       ___lc_collate_cp           10077808     LIBCMTD:nlsdata2.obj
 0003:00002958       ?pArgList@UnDecorator@@0PAVReplicator@@A 10077958     LIBCMTD:undname.obj
 0003:0000295c       ?pZNameList@UnDecorator@@0PAVReplicator@@A 1007795c     LIBCMTD:undname.obj
 0003:00002960       ?pTemplateArgList@UnDecorator@@0PAVReplicator@@A 10077960     LIBCMTD:undname.obj
 0003:00002964       ?gName@UnDecorator@@0PBDB  10077964     LIBCMTD:undname.obj
 0003:00002968       ?name@UnDecorator@@0PBDB   10077968     LIBCMTD:undname.obj
 0003:0000296c       ?outputString@UnDecorator@@0PADA 1007796c     LIBCMTD:undname.obj
 0003:00002970       ?maxStringLength@UnDecorator@@0HA 10077970     LIBCMTD:undname.obj
 0003:00002974       ?disableFlags@UnDecorator@@0KA 10077974     LIBCMTD:undname.obj
 0003:00002978       ?m_pGetParameter@UnDecorator@@0P6APADJ@ZA 10077978     LIBCMTD:undname.obj
 0003:0000297c       ?fExplicitTemplateParams@UnDecorator@@0_NA 1007797c     LIBCMTD:undname.obj
 0003:0000297d       ?fGetTemplateArgumentList@UnDecorator@@0_NA 1007797d     LIBCMTD:undname.obj
 0003:000029e0       ___lconv_static_null       100779e0     LIBCMTD:lconv.obj
 0003:000029e4       __cflush                   100779e4     LIBCMTD:_file.obj
 0003:00002aa8       __stdbuf                   10077aa8     LIBCMTD:_sftbuf.obj
 0003:00002ab8       ___piob                    10077ab8     <common>
 0003:00002ac0       __bufin                    10077ac0     <common>
 0003:00003ac0       __nstream                  10078ac0     <common>
 0003:00003ac4       __nhandle                  10078ac4     <common>
 0003:00003ae0       ___pioinfo                 10078ae0     <common>
 0003:00003be0       ___setlc_active            10078be0     <common>
 0003:00003be4       ___unguarded_readlc_active 10078be4     <common>
 0003:00003be8       ___sbh_initialized         10078be8     <common>
 0003:00003bec       ___sbh_cntHeaderList       10078bec     <common>
 0003:00003bf0       ___sbh_pHeaderList         10078bf0     <common>
 0003:00003bf4       ___sbh_threshold           10078bf4     <common>
 0003:00003bf8       ___sbh_pHeaderScan         10078bf8     <common>
 0003:00003bfc       ___sbh_sizeHeaderList      10078bfc     <common>
 0003:00003c00       ___sbh_indGroupDefer       10078c00     <common>
 0003:00003c04       ___active_heap             10078c04     <common>
 0003:00003c08       __debugger_hook_dummy      10078c08     <common>
 0003:00003c0c       ___use_sse2_mathfcns       10078c0c     <common>
 0003:00003c10       ___sse2_available          10078c10     <common>
 0003:00003c14       ___env_initialized         10078c14     <common>
 0003:00003c18       ___onexitend               10078c18     <common>
 0003:00003c1c       ___onexitbegin             10078c1c     <common>
 0003:00003c20       ___mbctype_initialized     10078c20     <common>
 0003:00003c24       __FPinit                   10078c24     <common>
 0003:00003c28       ___dyn_tls_init_callback   10078c28     <common>
 0003:00003c2c       __pfnReportHook            10078c2c     <common>
 0003:00003c30       __pReportHookListW         10078c30     <common>
 0003:00003c34       __pReportHookList          10078c34     <common>
 0003:00003c38       __acmdln                   10078c38     <common>

 entry point at        0001:0001d2d0

 Static symbols

 0001:00000110       ?AtlGetDirLen@ATL@@YGIPB_W@Z 10001110 f   EventFiringObject.obj
 0001:000001d0       ?AtlFindExtension@ATL@@YAPADPBD@Z 100011d0 f   EventFiringObject.obj
 0001:0000035d       __catch$?CreateInstance@?$CComCreator@V?$CComObjectCached@VCComClassFactory@ATL@@@ATL@@@ATL@@SGJPAXABU_GUID@@PAPAX@Z$0 1000135d f i EventFiringObject.obj
 0001:000007d7       __catch$?CreateInstance@?$CComCreator@V?$CComObject@VCEventFiringObject@@@ATL@@@ATL@@SGJPAXABU_GUID@@PAPAX@Z$0 100017d7 f i EventFiringObject.obj
 0001:00000a0d       __catch$?CreateInstance@?$CComCreator@V?$CComAggObject@VCEventFiringObject@@@ATL@@@ATL@@SGJPAXABU_GUID@@PAPAX@Z$0 10001a0d f i EventFiringObject.obj
 0001:0000107b       __catch$?EnumConnectionPoints@?$IConnectionPointContainerImpl@VCEventFiringObject@@@ATL@@UAGJPAPAUIEnumConnectionPoints@@@Z$0 1000207b f i EventFiringObject.obj
 0001:00002769       __catch$?EnumConnections@?$IConnectionPointImpl@VCEventFiringObject@@$1?DIID__IEventFiringObjectEvents@@3U_GUID@@BVCComDynamicUnkArray@ATL@@@ATL@@UAGJPAPAUIEnumConnections@@@Z$0 10003769 f i EventFiringObject.obj
 0001:0000280c       __catch$?EnumConnections@?$IConnectionPointImpl@VCEventFiringObject@@$1?DIID__IEventFiringObjectEvents@@3U_GUID@@BVCComDynamicUnkArray@ATL@@@ATL@@UAGJPAPAUIEnumConnections@@@Z$2 1000380c f i EventFiringObject.obj
 0001:00002ef1       __catch$?Init@?$CComEnumImpl@UIEnumConnectionPoints@@$1?_GUID_b196b285_bab4_101a_b69c_00aa00341d07@@3U__s_GUID@@BPAUIConnectionPoint@@V?$_CopyInterface@UIConnectionPoint@@@ATL@@@ATL@@QAEJPAPAUIConnectionPoint@@0PAUIUnknown@@W4CComEnumFlags@2@@Z$0 10003ef1 f i EventFiringObject.obj
 0001:000037d5       __catch$?CreateInstance@?$CComObject@V?$CComEnum@UIEnumConnectionPoints@@$1?_GUID_b196b285_bab4_101a_b69c_00aa00341d07@@3U__s_GUID@@BPAUIConnectionPoint@@V?$_CopyInterface@UIConnectionPoint@@@ATL@@VCComSingleThreadModel@6@@ATL@@@ATL@@SGJPAPAV12@@Z$0 100047d5 f i EventFiringObject.obj
 0001:00003de1       __catch$?Init@?$CComEnumImpl@UIEnumConnections@@$1?_GUID_b196b287_bab4_101a_b69c_00aa00341d07@@3U__s_GUID@@BUtagCONNECTDATA@@V?$_Copy@UtagCONNECTDATA@@@ATL@@@ATL@@QAEJPAUtagCONNECTDATA@@0PAUIUnknown@@W4CComEnumFlags@2@@Z$0 10004de1 f i EventFiringObject.obj
 0001:00004025       __catch$?CreateInstance@?$CComObject@V?$CComEnum@UIEnumConnections@@$1?_GUID_b196b287_bab4_101a_b69c_00aa00341d07@@3U__s_GUID@@BUtagCONNECTDATA@@V?$_Copy@UtagCONNECTDATA@@@ATL@@VCComSingleThreadModel@6@@ATL@@@ATL@@SGJPAPAV12@@Z$0 10005025 f i EventFiringObject.obj
 0001:00005728       __catch$?Add@CExpansionVector@ATL@@QAEHPBDPB_W@Z$0 10006728 f i EventFiringObject.obj
 0001:0000579b       __catch$?Add@CExpansionVector@ATL@@QAEHPBDPB_W@Z$2 1000679b f i EventFiringObject.obj
 0001:00005fb5       __catch$?RegisterFromResource@CRegObject@ATL@@IAEJPB_WPBD1H@Z$3 10006fb5 f i EventFiringObject.obj
 0001:00008ac9       __catch$?AddValue@CRegParser@ATL@@IAEJAAVCRegKey@2@PBDPAD@Z$0 10009ac9 f i EventFiringObject.obj
 0001:00008f77       __catch$?AddValue@CRegParser@ATL@@IAEJAAVCRegKey@2@PBDPAD@Z$2 10009f77 f i EventFiringObject.obj
 0001:0000c116       __catch$?LoadNameCache@CComTypeInfoHolder@ATL@@QAEJPAUITypeInfo@@@Z$0 1000d116 f i EventFiringObject.obj
 0001:0000c8b8       __catch$?Add@CComDynamicUnkArray@ATL@@QAEKPAUIUnknown@@@Z$0 1000d8b8 f i EventFiringObject.obj
 0001:000111e0       ?Init@@YG_NXZ              100121e0 f   atlsd:Externs.obj
 0001:00012980       ?ShouldTraceOutput@ATL@@YG_NKKIPAPBVCAtlTraceCategory@@PAP6AHHPBDH11ZZ@Z 10013980 f   atlsd:AtlDebugAPI.obj
 0001:00017680       ?CatchGuardHandler@@YA?AW4_EXCEPTION_DISPOSITION@@PAUEHExceptionRecord@@PAUCatchGuardRN@@PAX2@Z 10018680 f   LIBCMTD:trnsctrl.obj
 0001:000177c0       ?TranslatorGuardHandler@@YA?AW4_EXCEPTION_DISPOSITION@@PAUEHExceptionRecord@@PAUTranslatorGuardRN@@PAX2@Z 100187c0 f   LIBCMTD:trnsctrl.obj
 0001:00017fe0       _ValidateLocalCookies      10018fe0 f   LIBCMTD:chandler4.obj
 0001:00018500       _cmpBYTE                   10019500 f   LIBCMTD:memcmp.obj
 0001:00018530       _cmpResult                 10019530 f   LIBCMTD:memcmp.obj
 0001:00018550       _unaligned_memcmp          10019550 f   LIBCMTD:memcmp.obj
 0001:00018c60       _cmpWORD                   10019c60 f   LIBCMTD:memcmp.obj
 0001:00018ce0       _cmpDWORD                  10019ce0 f   LIBCMTD:memcmp.obj
 0001:000195b0       ?ArrayUnwindFilter@@YAHPAU_EXCEPTION_POINTERS@@@Z 1001a5b0 f   LIBCMTD:ehvecdtr.obj
 0001:00019d90       _realloc_help              1001ad90 f   LIBCMTD:dbgheap.obj
 0001:0001ad00       _CheckBytes                1001bd00 f   LIBCMTD:dbgheap.obj
 0001:0001bb70       ?_CrtMemDumpAllObjectsSince_stat@@YAXPBU_CrtMemState@@PAUlocaleinfo_struct@@@Z 1001cb70 f   LIBCMTD:dbgheap.obj
 0001:0001be80       __printMemBlockData        1001ce80 f   LIBCMTD:dbgheap.obj
 0001:0001cdd0       __onexit_nolock            1001ddd0 f   LIBCMTD:onexit.obj
 0001:0001d300       ___DllMainCRTStartup       1001e300 f   LIBCMTD:dllcrt0.obj
 0001:00020610       ?DebuggerProbe@@YAHK@Z     10021610 f   LIBCMTD:error.obj
 0001:000206f0       ?failwithmessage@@YAXPAXHHPBD@Z 100216f0 f   LIBCMTD:error.obj
 0001:00020930       ?DebuggerRuntime@@YAHKHPAXPB_W@Z 10021930 f   LIBCMTD:error.obj
 0001:00020c30       ?_getMemBlockDataString@@YAXPAD00I@Z 10021c30 f   LIBCMTD:error.obj
 0001:00022fc0       ?wcsncnt@@YAIPB_WI@Z       10023fc0 f   LIBCMTD:wcstombs.obj
 0001:00023600       _doexit                    10024600 f   LIBCMTD:crt0dat.obj
 0001:00023860       __initterm                 10024860 f   LIBCMTD:crt0dat.obj
 0001:00024340       _ctrlevent_capture@4       10025340 f   LIBCMTD:winsig.obj
 0001:00024740       _siglookup                 10025740 f   LIBCMTD:winsig.obj
 0001:00024b90       ?FindHandler@@YAXPAUEHExceptionRecord@@PAUEHRegistrationNode@@PAU_CONTEXT@@PAXPBU_s_FuncInfo@@EH1@Z 10025b90 f   LIBCMTD:frame.obj
 0001:000250e0       ?FindHandlerForForeignException@@YAXPAUEHExceptionRecord@@PAUEHRegistrationNode@@PAU_CONTEXT@@PAXPBU_s_FuncInfo@@HH1@Z 100260e0 f   LIBCMTD:frame.obj
 0001:00025500       ?CatchIt@@YAXPAUEHExceptionRecord@@PAUEHRegistrationNode@@PAU_CONTEXT@@PAXPBU_s_FuncInfo@@PBU_s_HandlerType@@PBU_s_CatchableType@@PBU_s_TryBlockMapEntry@@H1E@Z 10026500 f   LIBCMTD:frame.obj
 0001:000255c0       ?CallCatchBlock@@YAPAXPAUEHExceptionRecord@@PAUEHRegistrationNode@@PAU_CONTEXT@@PBU_s_FuncInfo@@PAXHK@Z 100265c0 f   LIBCMTD:frame.obj
 0001:00025850       ?ExFilterRethrow@@YAHPAU_EXCEPTION_POINTERS@@@Z 10026850 f   LIBCMTD:frame.obj
 0001:00026490       ?IsInExceptionSpec@@YAEPAUEHExceptionRecord@@PBU_s_ESTypeList@@@Z 10027490 f   LIBCMTD:frame.obj
 0001:00026550       ?CallUnexpected@@YAXPBU_s_ESTypeList@@@Z 10027550 f   LIBCMTD:frame.obj
 0001:0002659c       __catch$?CallUnexpected@@YAXPBU_s_ESTypeList@@@Z$0 1002759c f   LIBCMTD:frame.obj
 0001:000265e0       ?Is_bad_exception_allowed@@YAEPBU_s_ESTypeList@@@Z 100275e0 f   LIBCMTD:frame.obj
 0001:00028170       __unwind_handler4          10029170 f   LIBCMTD:exsup4.obj
 0001:000285e0       _fastzero_I                100295e0 f   LIBCMTD:p4_memset.obj
 0001:0002bee0       ?getSystemCP@@YAHH@Z       1002cee0 f   LIBCMTD:mbctype.obj
 0001:0002c310       ?CPtoLCID@@YAHH@Z          1002d310 f   LIBCMTD:mbctype.obj
 0001:0002c390       ?setSBCS@@YAXPAUthreadmbcinfostruct@@@Z 1002d390 f   LIBCMTD:mbctype.obj
 0001:0002c470       ?setSBUpLow@@YAXPAUthreadmbcinfostruct@@@Z 1002d470 f   LIBCMTD:mbctype.obj
 0001:0002ce70       __updatetlocinfoEx_nolock  1002de70 f   LIBCMTD:setlocal.obj
 0001:0002d3a0       __copytlocinfo_nolock      1002e3a0 f   LIBCMTD:setlocal.obj
 0001:0002d780       _sync_legacy_variables_lk  1002e780 f   LIBCMTD:setlocal.obj
 0001:0002d800       __setlocale_nolock         1002e800 f   LIBCMTD:setlocal.obj
 0001:0002dbf0       __setlocale_set_cat        1002ebf0 f   LIBCMTD:setlocal.obj
 0001:0002e120       __setlocale_get_all        1002f120 f   LIBCMTD:setlocal.obj
 0001:0002f420       _parse_cmdline             10030420 f   LIBCMTD:stdargv.obj
 0001:0002fd40       _xcptlookup                10030d40 f   LIBCMTD:winxfltr.obj
 0001:00031360       _write_char                10032360 f   LIBCMTD:output.obj
 0001:00031400       _write_multi_char          10032400 f   LIBCMTD:output.obj
 0001:00031440       _write_string              10032440 f   LIBCMTD:output.obj
 0001:00032f30       _write_char                10033f30 f   LIBCMTD:outputs.obj
 0001:00032fd0       _write_multi_char          10033fd0 f   LIBCMTD:outputs.obj
 0001:00033010       _write_string              10034010 f   LIBCMTD:outputs.obj
 0001:00036d80       _write_char                10037d80 f   LIBCMTD:outputp.obj
 0001:00036e20       _write_multi_char          10037e20 f   LIBCMTD:outputp.obj
 0001:00036e60       _write_string              10037e60 f   LIBCMTD:outputp.obj
 0001:00037fb0       _write_char                10038fb0 f   LIBCMTD:woutput.obj
 0001:00038010       _write_multi_char          10039010 f   LIBCMTD:woutput.obj
 0001:00038050       _write_string              10039050 f   LIBCMTD:woutput.obj
 0001:000392b0       _write_char                1003a2b0 f   LIBCMTD:woutputs.obj
 0001:00039310       _write_multi_char          1003a310 f   LIBCMTD:woutputs.obj
 0001:00039350       _write_string              1003a350 f   LIBCMTD:woutputs.obj
 0001:0003cc50       _write_char                1003dc50 f   LIBCMTD:woutputp.obj
 0001:0003ccb0       _write_multi_char          1003dcb0 f   LIBCMTD:woutputp.obj
 0001:0003ccf0       _write_string              1003dcf0 f   LIBCMTD:woutputp.obj
 0001:0003d720       ___crtInitCritSecNoSpinCount@8 1003e720 f   LIBCMTD:initcrit.obj
 0001:0003da10       ?GetPdbDll@@YAPAUHINSTANCE__@@XZ 1003ea10 f   LIBCMTD:pdblkup.obj
 0001:0003e380       _xtoa_s@20                 1003f380 f   LIBCMTD:xtoas.obj
 0001:0003e790       @x64toa_s@24               1003f790 f   LIBCMTD:xtoas.obj
 0001:0003efb0       _xtow_s@20                 1003ffb0 f   LIBCMTD:xtows.obj
 0001:0003f3e0       @x64tow_s@24               100403e0 f   LIBCMTD:xtows.obj
 0001:0003fab0       __unwind_handler           10040ab0 f   LIBCMTD:exsup.obj
 0001:00049120       ?und_strlen@@YAIPBD@Z      1004a120 f   LIBCMTD:undname.obj
 0001:00049160       ?und_strncpy@@YAPADPADPBDI@Z 1004a160 f   LIBCMTD:undname.obj
 0001:000491b0       ?und_strncmp@@YAIPBD0I@Z   1004a1b0 f   LIBCMTD:undname.obj
 0001:0004a080       ?__crtGetLocaleInfoW_stat@@YAHPAUlocaleinfo_struct@@KKPA_WHH@Z 1004b080 f   LIBCMTD:w_loc.obj
 0001:0004a2e0       ?__crtGetLocaleInfoA_stat@@YAHPAUlocaleinfo_struct@@KKPADHH@Z 1004b2e0 f   LIBCMTD:a_loc.obj
 0001:0004a4e0       _has_osfxsr_set            1004b4e0 f   LIBCMTD:cpu_disp.obj
 0001:0004a6a0       _fastcopy_I                1004b6a0 f   LIBCMTD:p4_memcpy.obj
 0001:0004aa40       ?x_ismbbtype_l@@YAHPAUlocaleinfo_struct@@IHH@Z 1004ba40 f   LIBCMTD:ismbbyte.obj
 0001:0004ab60       ?__crtLCMapStringA_stat@@YAHPAUlocaleinfo_struct@@KKPBDHPADHHH@Z 1004bb60 f   LIBCMTD:a_map.obj
 0001:0004b060       ?strncnt@@YAHPBDH@Z        1004c060 f   LIBCMTD:a_map.obj
 0001:0004b110       ?__crtGetStringTypeA_stat@@YAHPAUlocaleinfo_struct@@KPBDHPAGHHH@Z 1004c110 f   LIBCMTD:a_str.obj
 0001:0004b490       __get_lc_time              1004c490 f   LIBCMTD:inittime.obj
 0001:0004c0a0       _fix_grouping              1004d0a0 f   LIBCMTD:initnum.obj
 0001:0004c610       _fix_grouping              1004d610 f   LIBCMTD:initmon.obj
 0001:0004dca0       ?_expandtime@@YAHPAUlocaleinfo_struct@@DPBUtm@@PAPADPAIPAU__lc_time_data@@I@Z 1004eca0 f   LIBCMTD:strftime.obj
 0001:0004ec40       ?_store_str@@YAXPADPAPADPAI@Z 1004fc40 f   LIBCMTD:strftime.obj
 0001:0004ec90       ?_store_num@@YAXHHPAPADPAII@Z 1004fc90 f   LIBCMTD:strftime.obj
 0001:0004ed40       ?_store_number@@YAXHPAPADPAI@Z 1004fd40 f   LIBCMTD:strftime.obj
 0001:0004edf0       ?_store_winword@@YAHPAUlocaleinfo_struct@@HPBUtm@@PAPADPAIPAU__lc_time_data@@@Z 1004fdf0 f   LIBCMTD:strftime.obj
 0001:0004fe80       _TranslateName             10050e80 f   LIBCMTD:getqloc.obj
 0001:0004ff10       _GetLcidFromLangCountry    10050f10 f   LIBCMTD:getqloc.obj
 0001:0004ffd0       _LangCountryEnumProc@4     10050fd0 f   LIBCMTD:getqloc.obj
 0001:00050410       _GetLcidFromLanguage       10051410 f   LIBCMTD:getqloc.obj
 0001:00050490       _LanguageEnumProc@4        10051490 f   LIBCMTD:getqloc.obj
 0001:00050630       _GetLcidFromCountry        10051630 f   LIBCMTD:getqloc.obj
 0001:00050680       _CountryEnumProc@4         10051680 f   LIBCMTD:getqloc.obj
 0001:00050780       _GetLcidFromDefault        10051780 f   LIBCMTD:getqloc.obj
 0001:000507b0       _ProcessCodePage           100517b0 f   LIBCMTD:getqloc.obj
 0001:00050860       _TestDefaultCountry        10051860 f   LIBCMTD:getqloc.obj
 0001:000508b0       _TestDefaultLanguage       100518b0 f   LIBCMTD:getqloc.obj
 0001:00050950       _LcidFromHexString         10051950 f   LIBCMTD:getqloc.obj
 0001:000509d0       _GetPrimaryLen             100519d0 f   LIBCMTD:getqloc.obj
 0001:00052a40       ?strtoxl@@YAKPAUlocaleinfo_struct@@PBDPAPBDHH@Z 10053a40 f   LIBCMTD:strtol.obj
 0001:00053740       ?wcstoxl@@YAKPAUlocaleinfo_struct@@PB_WPAPB_WHH@Z 10054740 f   LIBCMTD:wcstol.obj
 0001:00053c60       ?__crtLCMapStringW_stat@@YAHPAUlocaleinfo_struct@@KKPB_WHPA_WHH@Z 10054c60 f   LIBCMTD:w_map.obj
 0001:00053fb0       ?wcsncnt@@YAHPB_WH@Z       10054fb0 f   LIBCMTD:w_map.obj
 0001:00054990       __tzset_nolock             10055990 f   LIBCMTD:tzset.obj
 0001:00054f70       __isindst_nolock           10055f70 f   LIBCMTD:tzset.obj
 0001:00055280       _cvtdate                   10056280 f   LIBCMTD:tzset.obj
 0001:00056b50       _flsall                    10057b50 f   LIBCMTD:fflush.obj
 0001:00057710       ?__crtGetStringTypeW_stat@@YAHPAUlocaleinfo_struct@@KPB_WHPAGHH@Z 10058710 f   LIBCMTD:w_str.obj
 0001:00057a10       ?strtoxq@@YA_KPAUlocaleinfo_struct@@PBDPAPBDHH@Z 10058a10 f   LIBCMTD:strtoq.obj
 0001:000582c0       __getenv_s_helper          100592c0 f   LIBCMTD:getenv.obj
 0001:00058520       __dupenv_s_helper          10059520 f   LIBCMTD:getenv.obj
 0001:000595c0       ?__crtCompareStringA_stat@@YAHPAUlocaleinfo_struct@@KKPBDH1HH@Z 1005a5c0 f   LIBCMTD:a_cmp.obj
 0001:00059ad0       ?strncnt@@YAHPBDH@Z        1005aad0 f   LIBCMTD:a_cmp.obj
 0001:0005a280       _findenv                   1005b280 f   LIBCMTD:setenv.obj
 0001:0005a300       _copy_environ              1005b300 f   LIBCMTD:setenv.obj
 0001:0005a920       __unwindfunclet$?CreateInstance@?$CComCreator@V?$CComObjectCached@VCComClassFactory@ATL@@@ATL@@@ATL@@SGJPAXABU_GUID@@PAPAX@Z$2 1005b920 f   EventFiringObject.obj
 0001:0005a92b       __ehhandler$?CreateInstance@?$CComCreator@V?$CComObjectCached@VCComClassFactory@ATL@@@ATL@@@ATL@@SGJPAXABU_GUID@@PAPAX@Z 1005b92b f   EventFiringObject.obj
 0001:0005a950       __unwindfunclet$??1?$CComObjectCached@VCComClassFactory@ATL@@@ATL@@QAE@XZ$0 1005b950 f   EventFiringObject.obj
 0001:0005a958       __ehhandler$??1?$CComObjectCached@VCComClassFactory@ATL@@@ATL@@QAE@XZ 1005b958 f   EventFiringObject.obj
 0001:0005a980       __ehhandler$?CreateInstance@?$CComCreator@V?$CComObject@VCEventFiringObject@@@ATL@@@ATL@@SGJPAXABU_GUID@@PAPAX@Z 1005b980 f   EventFiringObject.obj
 0001:0005a9a0       __unwindfunclet$?CreateInstance@?$CComCreator@V?$CComAggObject@VCEventFiringObject@@@ATL@@@ATL@@SGJPAXABU_GUID@@PAPAX@Z$2 1005b9a0 f   EventFiringObject.obj
 0001:0005a9ab       __ehhandler$?CreateInstance@?$CComCreator@V?$CComAggObject@VCEventFiringObject@@@ATL@@@ATL@@SGJPAXABU_GUID@@PAPAX@Z 1005b9ab f   EventFiringObject.obj
 0001:0005a9d0       __unwindfunclet$??0?$CComObjectRootEx@VCComMultiThreadModel@ATL@@@ATL@@QAE@XZ$0 1005b9d0 f   EventFiringObject.obj
 0001:0005a9d8       __ehhandler$??0?$CComObjectRootEx@VCComMultiThreadModel@ATL@@@ATL@@QAE@XZ 1005b9d8 f   EventFiringObject.obj
 0001:0005aa00       __unwindfunclet$??0CEventFiringObject@@QAE@XZ$0 1005ba00 f   EventFiringObject.obj
 0001:0005aa0b       __ehhandler$??0CEventFiringObject@@QAE@XZ 1005ba0b f   EventFiringObject.obj
 0001:0005aa30       __unwindfunclet$?EnumConnectionPoints@?$IConnectionPointContainerImpl@VCEventFiringObject@@@ATL@@UAGJPAPAUIEnumConnectionPoints@@@Z$2 1005ba30 f   EventFiringObject.obj
 0001:0005aa38       __ehhandler$?EnumConnectionPoints@?$IConnectionPointContainerImpl@VCEventFiringObject@@@ATL@@UAGJPAPAUIEnumConnectionPoints@@@Z 1005ba38 f   EventFiringObject.obj
 0001:0005aa60       __unwindfunclet$??0?$CComEnum@UIEnumConnectionPoints@@$1?_GUID_b196b285_bab4_101a_b69c_00aa00341d07@@3U__s_GUID@@BPAUIConnectionPoint@@V?$_CopyInterface@UIConnectionPoint@@@ATL@@VCComSingleThreadModel@6@@ATL@@QAE@XZ$0 1005ba60 f   EventFiringObject.obj
 0001:0005aa68       __ehhandler$??0?$CComEnum@UIEnumConnectionPoints@@$1?_GUID_b196b285_bab4_101a_b69c_00aa00341d07@@3U__s_GUID@@BPAUIConnectionPoint@@V?$_CopyInterface@UIConnectionPoint@@@ATL@@VCComSingleThreadModel@6@@ATL@@QAE@XZ 1005ba68 f   EventFiringObject.obj
 0001:0005aa90       __unwindfunclet$??1?$CComEnum@UIEnumConnectionPoints@@$1?_GUID_b196b285_bab4_101a_b69c_00aa00341d07@@3U__s_GUID@@BPAUIConnectionPoint@@V?$_CopyInterface@UIConnectionPoint@@@ATL@@VCComSingleThreadModel@6@@ATL@@UAE@XZ$0 1005ba90 f   EventFiringObject.obj
 0001:0005aa98       __ehhandler$??1?$CComEnum@UIEnumConnectionPoints@@$1?_GUID_b196b285_bab4_101a_b69c_00aa00341d07@@3U__s_GUID@@BPAUIConnectionPoint@@V?$_CopyInterface@UIConnectionPoint@@@ATL@@VCComSingleThreadModel@6@@ATL@@UAE@XZ 1005ba98 f   EventFiringObject.obj
 0001:0005aac0       __unwindfunclet$??0?$CComAggObject@VCEventFiringObject@@@ATL@@QAE@PAX@Z$0 1005bac0 f   EventFiringObject.obj
 0001:0005aacb       __unwindfunclet$??0?$CComAggObject@VCEventFiringObject@@@ATL@@QAE@PAX@Z$1 1005bacb f   EventFiringObject.obj
 0001:0005aad6       __ehhandler$??0?$CComAggObject@VCEventFiringObject@@@ATL@@QAE@PAX@Z 1005bad6 f   EventFiringObject.obj
 0001:0005ab00       __unwindfunclet$??1CEventFiringObject@@QAE@XZ$0 1005bb00 f   EventFiringObject.obj
 0001:0005ab27       __ehhandler$??1CEventFiringObject@@QAE@XZ 1005bb27 f   EventFiringObject.obj
 0001:0005ab50       __unwindfunclet$??1?$CComAggObject@VCEventFiringObject@@@ATL@@UAE@XZ$0 1005bb50 f   EventFiringObject.obj
 0001:0005ab77       __unwindfunclet$??1?$CComAggObject@VCEventFiringObject@@@ATL@@UAE@XZ$1 1005bb77 f   EventFiringObject.obj
 0001:0005ab82       __ehhandler$??1?$CComAggObject@VCEventFiringObject@@@ATL@@UAE@XZ 1005bb82 f   EventFiringObject.obj
 0001:0005aba0       __unwindfunclet$??1?$IConnectionPointImpl@VCEventFiringObject@@$1?DIID__IEventFiringObjectEvents@@3U_GUID@@BVCComDynamicUnkArray@ATL@@@ATL@@QAE@XZ$0 1005bba0 f   EventFiringObject.obj
 0001:0005abab       __ehhandler$??1?$IConnectionPointImpl@VCEventFiringObject@@$1?DIID__IEventFiringObjectEvents@@3U_GUID@@BVCComDynamicUnkArray@ATL@@@ATL@@QAE@XZ 1005bbab f   EventFiringObject.obj
 0001:0005abd0       __ehhandler$?EnumConnections@?$IConnectionPointImpl@VCEventFiringObject@@$1?DIID__IEventFiringObjectEvents@@3U_GUID@@BVCComDynamicUnkArray@ATL@@@ATL@@UAGJPAPAUIEnumConnections@@@Z 1005bbd0 f   EventFiringObject.obj
 0001:0005abf0       __unwindfunclet$??1?$CComEnumImpl@UIEnumConnectionPoints@@$1?_GUID_b196b285_bab4_101a_b69c_00aa00341d07@@3U__s_GUID@@BPAUIConnectionPoint@@V?$_CopyInterface@UIConnectionPoint@@@ATL@@@ATL@@UAE@XZ$0 1005bbf0 f   EventFiringObject.obj
 0001:0005abfb       __ehhandler$??1?$CComEnumImpl@UIEnumConnectionPoints@@$1?_GUID_b196b285_bab4_101a_b69c_00aa00341d07@@3U__s_GUID@@BPAUIConnectionPoint@@V?$_CopyInterface@UIConnectionPoint@@@ATL@@@ATL@@UAE@XZ 1005bbfb f   EventFiringObject.obj
 0001:0005ac20       __unwindfunclet$?Clone@?$CComEnumImpl@UIEnumConnectionPoints@@$1?_GUID_b196b285_bab4_101a_b69c_00aa00341d07@@3U__s_GUID@@BPAUIConnectionPoint@@V?$_CopyInterface@UIConnectionPoint@@@ATL@@@ATL@@UAGJPAPAUIEnumConnectionPoints@@@Z$0 1005bc20 f   EventFiringObject.obj
 0001:0005ac39       __ehhandler$?Clone@?$CComEnumImpl@UIEnumConnectionPoints@@$1?_GUID_b196b285_bab4_101a_b69c_00aa00341d07@@3U__s_GUID@@BPAUIConnectionPoint@@V?$_CopyInterface@UIConnectionPoint@@@ATL@@@ATL@@UAGJPAPAUIEnumConnectionPoints@@@Z 1005bc39 f   EventFiringObject.obj
 0001:0005ac60       __ehhandler$?Init@?$CComEnumImpl@UIEnumConnectionPoints@@$1?_GUID_b196b285_bab4_101a_b69c_00aa00341d07@@3U__s_GUID@@BPAUIConnectionPoint@@V?$_CopyInterface@UIConnectionPoint@@@ATL@@@ATL@@QAEJPAPAUIConnectionPoint@@0PAUIUnknown@@W4CComEnumFlags@2@@Z 1005bc60 f   EventFiringObject.obj
 0001:0005ac80       __unwindfunclet$??0?$CComEnum@UIEnumConnections@@$1?_GUID_b196b287_bab4_101a_b69c_00aa00341d07@@3U__s_GUID@@BUtagCONNECTDATA@@V?$_Copy@UtagCONNECTDATA@@@ATL@@VCComSingleThreadModel@6@@ATL@@QAE@XZ$0 1005bc80 f   EventFiringObject.obj
 0001:0005ac88       __ehhandler$??0?$CComEnum@UIEnumConnections@@$1?_GUID_b196b287_bab4_101a_b69c_00aa00341d07@@3U__s_GUID@@BUtagCONNECTDATA@@V?$_Copy@UtagCONNECTDATA@@@ATL@@VCComSingleThreadModel@6@@ATL@@QAE@XZ 1005bc88 f   EventFiringObject.obj
 0001:0005acb0       __unwindfunclet$??1?$CComEnum@UIEnumConnections@@$1?_GUID_b196b287_bab4_101a_b69c_00aa00341d07@@3U__s_GUID@@BUtagCONNECTDATA@@V?$_Copy@UtagCONNECTDATA@@@ATL@@VCComSingleThreadModel@6@@ATL@@UAE@XZ$0 1005bcb0 f   EventFiringObject.obj
 0001:0005acb8       __ehhandler$??1?$CComEnum@UIEnumConnections@@$1?_GUID_b196b287_bab4_101a_b69c_00aa00341d07@@3U__s_GUID@@BUtagCONNECTDATA@@V?$_Copy@UtagCONNECTDATA@@@ATL@@VCComSingleThreadModel@6@@ATL@@UAE@XZ 1005bcb8 f   EventFiringObject.obj
 0001:0005ace0       __ehhandler$?CreateInstance@?$CComObject@V?$CComEnum@UIEnumConnectionPoints@@$1?_GUID_b196b285_bab4_101a_b69c_00aa00341d07@@3U__s_GUID@@BPAUIConnectionPoint@@V?$_CopyInterface@UIConnectionPoint@@@ATL@@VCComSingleThreadModel@6@@ATL@@@ATL@@SGJPAPAV12@@Z 1005bce0 f   EventFiringObject.obj
 0001:0005ad00       __unwindfunclet$??1?$CComEnumImpl@UIEnumConnections@@$1?_GUID_b196b287_bab4_101a_b69c_00aa00341d07@@3U__s_GUID@@BUtagCONNECTDATA@@V?$_Copy@UtagCONNECTDATA@@@ATL@@@ATL@@UAE@XZ$0 1005bd00 f   EventFiringObject.obj
 0001:0005ad0b       __ehhandler$??1?$CComEnumImpl@UIEnumConnections@@$1?_GUID_b196b287_bab4_101a_b69c_00aa00341d07@@3U__s_GUID@@BUtagCONNECTDATA@@V?$_Copy@UtagCONNECTDATA@@@ATL@@@ATL@@UAE@XZ 1005bd0b f   EventFiringObject.obj
 0001:0005ad30       __unwindfunclet$?Clone@?$CComEnumImpl@UIEnumConnections@@$1?_GUID_b196b287_bab4_101a_b69c_00aa00341d07@@3U__s_GUID@@BUtagCONNECTDATA@@V?$_Copy@UtagCONNECTDATA@@@ATL@@@ATL@@UAGJPAPAUIEnumConnections@@@Z$0 1005bd30 f   EventFiringObject.obj
 0001:0005ad49       __ehhandler$?Clone@?$CComEnumImpl@UIEnumConnections@@$1?_GUID_b196b287_bab4_101a_b69c_00aa00341d07@@3U__s_GUID@@BUtagCONNECTDATA@@V?$_Copy@UtagCONNECTDATA@@@ATL@@@ATL@@UAGJPAPAUIEnumConnections@@@Z 1005bd49 f   EventFiringObject.obj
 0001:0005ad70       __ehhandler$?Init@?$CComEnumImpl@UIEnumConnections@@$1?_GUID_b196b287_bab4_101a_b69c_00aa00341d07@@3U__s_GUID@@BUtagCONNECTDATA@@V?$_Copy@UtagCONNECTDATA@@@ATL@@@ATL@@QAEJPAUtagCONNECTDATA@@0PAUIUnknown@@W4CComEnumFlags@2@@Z 1005bd70 f   EventFiringObject.obj
 0001:0005ad90       __ehhandler$?CreateInstance@?$CComObject@V?$CComEnum@UIEnumConnections@@$1?_GUID_b196b287_bab4_101a_b69c_00aa00341d07@@3U__s_GUID@@BUtagCONNECTDATA@@V?$_Copy@UtagCONNECTDATA@@@ATL@@VCComSingleThreadModel@6@@ATL@@@ATL@@SGJPAPAV12@@Z 1005bd90 f   EventFiringObject.obj
 0001:0005adb0       __unwindfunclet$??1CRegObject@ATL@@UAE@XZ$0 1005bdb0 f   EventFiringObject.obj
 0001:0005adbb       __ehhandler$??1CRegObject@ATL@@UAE@XZ 1005bdbb f   EventFiringObject.obj
 0001:0005ade0       __unwindfunclet$??1CExpansionVector@ATL@@QAE@XZ$0 1005bde0 f   EventFiringObject.obj
 0001:0005ade8       __ehhandler$??1CExpansionVector@ATL@@QAE@XZ 1005bde8 f   EventFiringObject.obj
 0001:0005ae10       __unwindfunclet$?AddReplacement@CRegObject@ATL@@UAGJPB_W0@Z$0 1005be10 f   EventFiringObject.obj
 0001:0005ae18       __ehhandler$?AddReplacement@CRegObject@ATL@@UAGJPB_W0@Z 1005be18 f   EventFiringObject.obj
 0001:0005ae40       __unwindfunclet$?Add@CExpansionVector@ATL@@QAEHPBDPB_W@Z$4 1005be40 f   EventFiringObject.obj
 0001:0005ae48       __unwindfunclet$?Add@CExpansionVector@ATL@@QAEHPBDPB_W@Z$5 1005be48 f   EventFiringObject.obj
 0001:0005ae50       __ehhandler$?Add@CExpansionVector@ATL@@QAEHPBDPB_W@Z 1005be50 f   EventFiringObject.obj
 0001:0005ae70       __unwindfunclet$?ResourceRegister@CRegObject@ATL@@QAGJPB_WI0@Z$0 1005be70 f   EventFiringObject.obj
 0001:0005ae78       __ehhandler$?ResourceRegister@CRegObject@ATL@@QAGJPB_WI0@Z 1005be78 f   EventFiringObject.obj
 0001:0005aea0       __unwindfunclet$?RegisterFromResource@CRegObject@ATL@@IAEJPB_WPBD1H@Z$6 1005bea0 f   EventFiringObject.obj
 0001:0005aea8       __unwindfunclet$?RegisterFromResource@CRegObject@ATL@@IAEJPB_WPBD1H@Z$7 1005bea8 f   EventFiringObject.obj
 0001:0005aeb3       __ehhandler$?RegisterFromResource@CRegObject@ATL@@IAEJPB_WPBD1H@Z 1005beb3 f   EventFiringObject.obj
 0001:0005aee0       __unwindfunclet$?ResourceUnregister@CRegObject@ATL@@QAGJPB_WI0@Z$0 1005bee0 f   EventFiringObject.obj
 0001:0005aee8       __ehhandler$?ResourceUnregister@CRegObject@ATL@@QAGJPB_WI0@Z 1005bee8 f   EventFiringObject.obj
 0001:0005af10       __unwindfunclet$?PreProcessBuffer@CRegParser@ATL@@QAEJPADPAPAD@Z$0 1005bf10 f   EventFiringObject.obj
 0001:0005af18       __ehhandler$?PreProcessBuffer@CRegParser@ATL@@QAEJPADPAPAD@Z 1005bf18 f   EventFiringObject.obj
 0001:0005af40       __unwindfunclet$?AddString@CParseBuffer@CRegParser@ATL@@QAEHPB_W@Z$0 1005bf40 f   EventFiringObject.obj
 0001:0005af48       __ehhandler$?AddString@CParseBuffer@CRegParser@ATL@@QAEHPB_W@Z 1005bf48 f   EventFiringObject.obj
 0001:0005af70       __unwindfunclet$?RegisterSubkeys@CRegParser@ATL@@IAEJPADPAUHKEY__@@HH@Z$2 1005bf70 f   EventFiringObject.obj
 0001:0005af78       __unwindfunclet$?RegisterSubkeys@CRegParser@ATL@@IAEJPADPAUHKEY__@@HH@Z$3 1005bf78 f   EventFiringObject.obj
 0001:0005af83       __unwindfunclet$?RegisterSubkeys@CRegParser@ATL@@IAEJPADPAUHKEY__@@HH@Z$4 1005bf83 f   EventFiringObject.obj
 0001:0005af8e       __ehhandler$?RegisterSubkeys@CRegParser@ATL@@IAEJPADPAUHKEY__@@HH@Z 1005bf8e f   EventFiringObject.obj
 0001:0005afc0       __unwindfunclet$?AddValue@CRegParser@ATL@@IAEJAAVCRegKey@2@PBDPAD@Z$4 1005bfc0 f   EventFiringObject.obj
 0001:0005afcb       __unwindfunclet$?AddValue@CRegParser@ATL@@IAEJAAVCRegKey@2@PBDPAD@Z$5 1005bfcb f   EventFiringObject.obj
 0001:0005afd6       __unwindfunclet$?AddValue@CRegParser@ATL@@IAEJAAVCRegKey@2@PBDPAD@Z$6 1005bfd6 f   EventFiringObject.obj
 0001:0005afe1       __ehhandler$?AddValue@CRegParser@ATL@@IAEJAAVCRegKey@2@PBDPAD@Z 1005bfe1 f   EventFiringObject.obj
 0001:0005b010       __unwindfunclet$?GetTI@CComTypeInfoHolder@ATL@@QAEJK@Z$0 1005c010 f   EventFiringObject.obj
 0001:0005b018       __unwindfunclet$?GetTI@CComTypeInfoHolder@ATL@@QAEJK@Z$1 1005c018 f   EventFiringObject.obj
 0001:0005b023       __unwindfunclet$?GetTI@CComTypeInfoHolder@ATL@@QAEJK@Z$2 1005c023 f   EventFiringObject.obj
 0001:0005b02e       __unwindfunclet$?GetTI@CComTypeInfoHolder@ATL@@QAEJK@Z$3 1005c02e f   EventFiringObject.obj
 0001:0005b039       __unwindfunclet$?GetTI@CComTypeInfoHolder@ATL@@QAEJK@Z$4 1005c039 f   EventFiringObject.obj
 0001:0005b044       __unwindfunclet$?GetTI@CComTypeInfoHolder@ATL@@QAEJK@Z$5 1005c044 f   EventFiringObject.obj
 0001:0005b04f       __unwindfunclet$?GetTI@CComTypeInfoHolder@ATL@@QAEJK@Z$6 1005c04f f   EventFiringObject.obj
 0001:0005b05a       __ehhandler$?GetTI@CComTypeInfoHolder@ATL@@QAEJK@Z 1005c05a f   EventFiringObject.obj
 0001:0005b090       __unwindfunclet$?LoadNameCache@CComTypeInfoHolder@ATL@@QAEJPAUITypeInfo@@@Z$2 1005c090 f   EventFiringObject.obj
 0001:0005b09b       __unwindfunclet$?LoadNameCache@CComTypeInfoHolder@ATL@@QAEJPAUITypeInfo@@@Z$3 1005c09b f   EventFiringObject.obj
 0001:0005b0a3       __ehhandler$?LoadNameCache@CComTypeInfoHolder@ATL@@QAEJPAUITypeInfo@@@Z 1005c0a3 f   EventFiringObject.obj
 0001:0005b0c0       __ehhandler$?Add@CComDynamicUnkArray@ATL@@QAEKPAUIUnknown@@@Z 1005c0c0 f   EventFiringObject.obj
 0001:0005b0e0       __unwindfunclet$?InternalSetAtIndex@?$CSimpleMap@PADPA_WVCExpansionVectorEqualHelper@ATL@@@ATL@@QAEXHABQADABQA_W@Z$0 1005c0e0 f   EventFiringObject.obj
 0001:0005b0f9       __unwindfunclet$?InternalSetAtIndex@?$CSimpleMap@PADPA_WVCExpansionVectorEqualHelper@ATL@@@ATL@@QAEXHABQADABQA_W@Z$1 1005c0f9 f   EventFiringObject.obj
 0001:0005b113       __ehhandler$?InternalSetAtIndex@?$CSimpleMap@PADPA_WVCExpansionVectorEqualHelper@ATL@@@ATL@@QAEXHABQADABQA_W@Z 1005c113 f   EventFiringObject.obj
 0001:0005b130       __unwindfunclet$?ResourceRegisterSz@CRegObject@ATL@@QAGJPB_W00@Z$0 1005c130 f   EventFiringObject.obj
 0001:0005b138       __ehhandler$?ResourceRegisterSz@CRegObject@ATL@@QAGJPB_W00@Z 1005c138 f   EventFiringObject.obj
 0001:0005b160       __unwindfunclet$?ResourceUnregisterSz@CRegObject@ATL@@QAGJPB_W00@Z$0 1005c160 f   EventFiringObject.obj
 0001:0005b168       __ehhandler$?ResourceUnregisterSz@CRegObject@ATL@@QAGJPB_W00@Z 1005c168 f   EventFiringObject.obj
 0001:0005b190       __unwindfunclet$?Fire_Event1@?$CProxy_IEventFiringObjectEvents@VCEventFiringObject@@@@QAEJJ@Z$0 1005c190 f   EventFiringObject_Impl.obj
 0001:0005b198       __unwindfunclet$?Fire_Event1@?$CProxy_IEventFiringObjectEvents@VCEventFiringObject@@@@QAEJJ@Z$1 1005c198 f   EventFiringObject_Impl.obj
 0001:0005b1a0       __ehhandler$?Fire_Event1@?$CProxy_IEventFiringObjectEvents@VCEventFiringObject@@@@QAEJJ@Z 1005c1a0 f   EventFiringObject_Impl.obj
 0001:0005b1c0       __ehhandler$?CallUnexpected@@YAXPBU_s_ESTypeList@@@Z 1005c1c0 f   LIBCMTD:frame.obj
 0001:0005b1e0       __unwindfunclet$?getSystemCP@@YAHH@Z$0 1005c1e0 f   LIBCMTD:mbctype.obj
 0001:0005b1e8       __ehhandler$?getSystemCP@@YAHH@Z 1005c1e8 f   LIBCMTD:mbctype.obj
 0001:0005b210       __unwindfunclet$?x_ismbbtype_l@@YAHPAUlocaleinfo_struct@@IHH@Z$0 1005c210 f   LIBCMTD:ismbbyte.obj
 0001:0005b218       __ehhandler$?x_ismbbtype_l@@YAHPAUlocaleinfo_struct@@IHH@Z 1005c218 f   LIBCMTD:ismbbyte.obj
 0001:0005b240       __unwindfunclet$?strtoxl@@YAKPAUlocaleinfo_struct@@PBDPAPBDHH@Z$0 1005c240 f   LIBCMTD:strtol.obj
 0001:0005b248       __ehhandler$?strtoxl@@YAKPAUlocaleinfo_struct@@PBDPAPBDHH@Z 1005c248 f   LIBCMTD:strtol.obj
 0001:0005b270       __unwindfunclet$?wcstoxl@@YAKPAUlocaleinfo_struct@@PB_WPAPB_WHH@Z$0 1005c270 f   LIBCMTD:wcstol.obj
 0001:0005b278       __ehhandler$?wcstoxl@@YAKPAUlocaleinfo_struct@@PB_WPAPB_WHH@Z 1005c278 f   LIBCMTD:wcstol.obj
 0001:0005b2a0       __unwindfunclet$?strtoxq@@YA_KPAUlocaleinfo_struct@@PBDPAPBDHH@Z$0 1005c2a0 f   LIBCMTD:strtoq.obj
 0001:0005b2a8       __ehhandler$?strtoxq@@YA_KPAUlocaleinfo_struct@@PBDPAPBDHH@Z 1005c2a8 f   LIBCMTD:strtoq.obj
 0001:0005b2d0       ??__E_Module@@YAXXZ        1005c2d0 f   EventFiringObject.obj
 0001:0005b300       ??__Eclash@Inconsistent_definition_of_symbol__ATL_MIXED@@YAXXZ 1005c300 f   StdAfx.obj
 0001:0005b320       ??__Eclash@Define_the_symbol__ATL_MIXED@@YAXXZ 1005c320 f   StdAfx.obj
 0001:0005b340       ??__EatlTraceGeneral@ATL@@YAXXZ 1005c340 f   atlsd:atltrace.obj
 0001:0005b360       ??__EatlTraceCOM@ATL@@YAXXZ 1005c360 f   atlsd:atltrace.obj
 0001:0005b380       ??__EatlTraceQI@ATL@@YAXXZ 1005c380 f   atlsd:atltrace.obj
 0001:0005b3a0       ??__EatlTraceRegistrar@ATL@@YAXXZ 1005c3a0 f   atlsd:atltrace.obj
 0001:0005b3c0       ??__EatlTraceRefcount@ATL@@YAXXZ 1005c3c0 f   atlsd:atltrace.obj
 0001:0005b3e0       ??__EatlTraceWindowing@ATL@@YAXXZ 1005c3e0 f   atlsd:atltrace.obj
 0001:0005b400       ??__EatlTraceControls@ATL@@YAXXZ 1005c400 f   atlsd:atltrace.obj
 0001:0005b420       ??__EatlTraceHosting@ATL@@YAXXZ 1005c420 f   atlsd:atltrace.obj
 0001:0005b440       ??__EatlTraceDBClient@ATL@@YAXXZ 1005c440 f   atlsd:atltrace.obj
 0001:0005b460       ??__EatlTraceDBProvider@ATL@@YAXXZ 1005c460 f   atlsd:atltrace.obj
 0001:0005b480       ??__EatlTraceSnapin@ATL@@YAXXZ 1005c480 f   atlsd:atltrace.obj
 0001:0005b4a0       ??__EatlTraceNotImpl@ATL@@YAXXZ 1005c4a0 f   atlsd:atltrace.obj
 0001:0005b4c0       ??__EatlTraceAllocation@ATL@@YAXXZ 1005c4c0 f   atlsd:atltrace.obj
 0001:0005b4e0       ??__EatlTraceException@ATL@@YAXXZ 1005c4e0 f   atlsd:atltrace.obj
 0001:0005b500       ??__EatlTraceTime@ATL@@YAXXZ 1005c500 f   atlsd:atltrace.obj
 0001:0005b520       ??__EatlTraceCache@ATL@@YAXXZ 1005c520 f   atlsd:atltrace.obj
 0001:0005b540       ??__EatlTraceStencil@ATL@@YAXXZ 1005c540 f   atlsd:atltrace.obj
 0001:0005b560       ??__EatlTraceString@ATL@@YAXXZ 1005c560 f   atlsd:atltrace.obj
 0001:0005b580       ??__EatlTraceMap@ATL@@YAXXZ 1005c580 f   atlsd:atltrace.obj
 0001:0005b5a0       ??__EatlTraceUtil@ATL@@YAXXZ 1005c5a0 f   atlsd:atltrace.obj
 0001:0005b5c0       ??__EatlTraceSecurity@ATL@@YAXXZ 1005c5c0 f   atlsd:atltrace.obj
 0001:0005b5e0       ??__EatlTraceSync@ATL@@YAXXZ 1005c5e0 f   atlsd:atltrace.obj
 0001:0005b600       ??__EatlTraceISAPI@ATL@@YAXXZ 1005c600 f   atlsd:atltrace.obj
 0001:0005b620       ??__EatlTraceUser@ATL@@YAXXZ 1005c620 f   atlsd:atltrace.obj
 0001:0005b640       ??__EatlTraceUser2@ATL@@YAXXZ 1005c640 f   atlsd:atltrace.obj
 0001:0005b660       ??__EatlTraceUser3@ATL@@YAXXZ 1005c660 f   atlsd:atltrace.obj
 0001:0005b680       ??__EatlTraceUser4@ATL@@YAXXZ 1005c680 f   atlsd:atltrace.obj
 0001:0005b6a0       ??__Eg_Allocator@@YAXXZ    1005c6a0 f   atlsd:Externs.obj
 0001:0005b6c0       ??__Eg_bInitialized@@YAXXZ 1005c6c0 f   atlsd:Externs.obj
 0001:0005b6d0       ??__E?s_trace@CTrace@ATL@@2V12@A@@YAXXZ 1005c6d0 f   atlsd:Externs.obj
 0001:0005b700       ??__E_AtlBaseModule@ATL@@YAXXZ 1005c700 f   atlsd:atlbase.obj
 0001:0005b720       ??__E_AtlWinModule@ATL@@YAXXZ 1005c720 f   atlsd:atlbase.obj
 0001:0005b740       ??__E_AtlComModule@ATL@@YAXXZ 1005c740 f   atlsd:atlcommodule.obj
 0001:0005b760       ??__F_Module@@YAXXZ        1005c760 f   EventFiringObject.obj
 0001:0005b780       ??__Fg_Allocator@@YAXXZ    1005c780 f   atlsd:Externs.obj
 0001:0005b790       ??__F?s_trace@CTrace@ATL@@2V12@A@@YAXXZ 1005c790 f   atlsd:Externs.obj
 0001:0005b7a0       ??__F_AtlBaseModule@ATL@@YAXXZ 1005c7a0 f   atlsd:atlbase.obj
 0001:0005b7b0       ??__F_AtlWinModule@ATL@@YAXXZ 1005c7b0 f   atlsd:atlbase.obj
 0001:0005b7c0       ??__F_AtlComModule@ATL@@YAXXZ 1005c7c0 f   atlsd:atlcommodule.obj
 0001:0005b7d0       ??__Fnomem@?5???2@YAPAXI@Z@YAXXZ 1005c7d0 f   LIBCMTD:new.obj
